Archive member included to satisfy reference by file (symbol)

C:/Users/oukeh/OneDrive/桌面/code-mod-example/code-mod-framework/lib/libnx_min/nx/lib\libnx_min.a(switch_crt0.o)
                              (_start)
C:/Users/oukeh/OneDrive/桌面/code-mod-example/code-mod-framework/lib/libnx_min/nx/lib\libnx_min.a(exception.o)
                              C:/Users/oukeh/OneDrive/桌面/code-mod-example/code-mod-framework/lib/libnx_min/nx/lib\libnx_min.a(switch_crt0.o) (__libnx_exception_entry)
C:/Users/oukeh/OneDrive/桌面/code-mod-example/code-mod-framework/lib/libnx_min/nx/lib\libnx_min.a(argv.o)
                              C:/Users/oukeh/OneDrive/桌面/code-mod-example/code-mod-framework/lib/libnx_min/nx/lib\libnx_min.a(switch_crt0.o) (__system_argv)
C:/Users/oukeh/OneDrive/桌面/code-mod-example/code-mod-framework/lib/libnx_min/nx/lib\libnx_min.a(env.o)
                              C:/Users/oukeh/OneDrive/桌面/code-mod-example/code-mod-framework/lib/libnx_min/nx/lib\libnx_min.a(argv.o) (envIsNso)
C:/Users/oukeh/OneDrive/桌面/code-mod-example/code-mod-framework/lib/libnx_min/nx/lib\libnx_min.a(init.o)
                              C:/Users/oukeh/OneDrive/桌面/code-mod-example/code-mod-framework/lib/libnx_min/nx/lib\libnx_min.a(exception.o) (__nx_exceptiondump)
C:/Users/oukeh/OneDrive/桌面/code-mod-example/code-mod-framework/lib/libnx_min/nx/lib\libnx_min.a(hosversion.o)
                              C:/Users/oukeh/OneDrive/桌面/code-mod-example/code-mod-framework/lib/libnx_min/nx/lib\libnx_min.a(init.o) (hosversionSet)
C:/Users/oukeh/OneDrive/桌面/code-mod-example/code-mod-framework/lib/libnx_min/nx/lib\libnx_min.a(dynamic.o)
                              C:/Users/oukeh/OneDrive/桌面/code-mod-example/code-mod-framework/lib/libnx_min/nx/lib\libnx_min.a(switch_crt0.o) (__nx_dynamic)
C:/Users/oukeh/OneDrive/桌面/code-mod-example/code-mod-framework/lib/libnx_min/nx/lib\libnx_min.a(fs_dev.o)
                              C:/Users/oukeh/OneDrive/桌面/code-mod-example/code-mod-framework/lib/libnx_min/nx/lib\libnx_min.a(init.o) (fsdevMountSdmc)
C:/Users/oukeh/OneDrive/桌面/code-mod-example/code-mod-framework/lib/libnx_min/nx/lib\libnx_min.a(decode_utf8.o)
                              C:/Users/oukeh/OneDrive/桌面/code-mod-example/code-mod-framework/lib/libnx_min/nx/lib\libnx_min.a(fs_dev.o) (decode_utf8)
C:/Users/oukeh/OneDrive/桌面/code-mod-example/code-mod-framework/lib/libnx_min/nx/lib\libnx_min.a(svc.o)
                              C:/Users/oukeh/OneDrive/桌面/code-mod-example/code-mod-framework/lib/libnx_min/nx/lib\libnx_min.a(init.o) (svcSetHeapSize)
C:/Users/oukeh/OneDrive/桌面/code-mod-example/code-mod-framework/lib/libnx_min/nx/lib\libnx_min.a(readtp.o)
                              C:/Users/oukeh/OneDrive/桌面/code-mod-example/code-mod-framework/lib/libnx_min/nx/lib\libnx_min.a(fs_dev.o) (__aarch64_read_tp)
C:/Users/oukeh/OneDrive/桌面/code-mod-example/code-mod-framework/lib/libnx_min/nx/lib\libnx_min.a(virtmem.o)
                              C:/Users/oukeh/OneDrive/桌面/code-mod-example/code-mod-framework/lib/libnx_min/nx/lib\libnx_min.a(init.o) (virtmemSetup)
C:/Users/oukeh/OneDrive/桌面/code-mod-example/code-mod-framework/lib/libnx_min/nx/lib\libnx_min.a(mutex.o)
                              C:/Users/oukeh/OneDrive/桌面/code-mod-example/code-mod-framework/lib/libnx_min/nx/lib\libnx_min.a(virtmem.o) (mutexLock)
C:/Users/oukeh/OneDrive/桌面/code-mod-example/code-mod-framework/lib/libnx_min/nx/lib\libnx_min.a(fs.o)
                              C:/Users/oukeh/OneDrive/桌面/code-mod-example/code-mod-framework/lib/libnx_min/nx/lib\libnx_min.a(init.o) (fsInitialize)
C:/Users/oukeh/OneDrive/桌面/code-mod-example/code-mod-framework/lib/libnx_min/nx/lib\libnx_min.a(set.o)
                              C:/Users/oukeh/OneDrive/桌面/code-mod-example/code-mod-framework/lib/libnx_min/nx/lib\libnx_min.a(init.o) (setsysInitialize)
C:/Users/oukeh/OneDrive/桌面/code-mod-example/code-mod-framework/lib/libnx_min/nx/lib\libnx_min.a(fatal.o)
                              C:/Users/oukeh/OneDrive/桌面/code-mod-example/code-mod-framework/lib/libnx_min/nx/lib\libnx_min.a(env.o) (fatalSimple)
C:/Users/oukeh/OneDrive/桌面/code-mod-example/code-mod-framework/lib/libnx_min/nx/lib\libnx_min.a(sm.o)
                              C:/Users/oukeh/OneDrive/桌面/code-mod-example/code-mod-framework/lib/libnx_min/nx/lib\libnx_min.a(env.o) (smAddOverrideHandle)
C:/Users/oukeh/OneDrive/桌面/code-mod-example/code-mod-framework/lib/libnx_min/nx/lib\libnx_min.a(hid.o)
                              C:/Users/oukeh/OneDrive/桌面/code-mod-example/code-mod-framework/lib/libnx_min/nx/lib\libnx_min.a(init.o) (hidExit)
C:/Users/oukeh/OneDrive/桌面/code-mod-example/code-mod-framework/lib/libnx_min/nx/lib\libnx_min.a(time.o)
                              C:/Users/oukeh/OneDrive/桌面/code-mod-example/code-mod-framework/lib/libnx_min/nx/lib\libnx_min.a(init.o) (timeExit)
C:/Users/oukeh/OneDrive/桌面/code-mod-example/code-mod-framework/lib/libnx_min/nx/lib\libnx_min.a(applet.o)
                              C:/Users/oukeh/OneDrive/桌面/code-mod-example/code-mod-framework/lib/libnx_min/nx/lib\libnx_min.a(hid.o) (appletGetAppletResourceUserId)
C:/Users/oukeh/OneDrive/桌面/code-mod-example/code-mod-framework/lib/libnx_min/nx/lib\libnx_min.a(newlib.o)
                              C:/Users/oukeh/OneDrive/桌面/code-mod-example/code-mod-framework/lib/libnx_min/nx/lib\libnx_min.a(init.o) (__libnx_init_time)
C:/Users/oukeh/OneDrive/桌面/code-mod-example/code-mod-framework/lib/libnx_min/nx/lib\libnx_min.a(thread.o)
                              C:/Users/oukeh/OneDrive/桌面/code-mod-example/code-mod-framework/lib/libnx_min/nx/lib\libnx_min.a(newlib.o) (threadCreate)
C:/Users/oukeh/OneDrive/桌面/code-mod-example/code-mod-framework/lib/libnx_min/nx/lib\libnx_min.a(condvar.o)
                              C:/Users/oukeh/OneDrive/桌面/code-mod-example/code-mod-framework/lib/libnx_min/nx/lib\libnx_min.a(newlib.o) (condvarWaitTimeout)
C:/Users/oukeh/OneDrive/桌面/code-mod-example/code-mod-framework/lib/libnx_min/nx/lib\libnx_min.a(event.o)
                              C:/Users/oukeh/OneDrive/桌面/code-mod-example/code-mod-framework/lib/libnx_min/nx/lib\libnx_min.a(set.o) (eventLoadRemote)
C:/Users/oukeh/OneDrive/桌面/code-mod-example/code-mod-framework/lib/libnx_min/nx/lib\libnx_min.a(tmem.o)
                              C:/Users/oukeh/OneDrive/桌面/code-mod-example/code-mod-framework/lib/libnx_min/nx/lib\libnx_min.a(applet.o) (tmemCreate)
C:/Users/oukeh/OneDrive/桌面/code-mod-example/code-mod-framework/lib/libnx_min/nx/lib\libnx_min.a(rwlock.o)
                              C:/Users/oukeh/OneDrive/桌面/code-mod-example/code-mod-framework/lib/libnx_min/nx/lib\libnx_min.a(hid.o) (rwlockReadLock)
C:/Users/oukeh/OneDrive/桌面/code-mod-example/code-mod-framework/lib/libnx_min/nx/lib\libnx_min.a(wait.o)
                              C:/Users/oukeh/OneDrive/桌面/code-mod-example/code-mod-framework/lib/libnx_min/nx/lib\libnx_min.a(applet.o) (waitObjects)
C:/Users/oukeh/OneDrive/桌面/code-mod-example/code-mod-framework/lib/libnx_min/nx/lib\libnx_min.a(shmem.o)
                              C:/Users/oukeh/OneDrive/桌面/code-mod-example/code-mod-framework/lib/libnx_min/nx/lib\libnx_min.a(hid.o) (shmemLoadRemote)
C:/Users/oukeh/OneDrive/桌面/code-mod-example/code-mod-framework/lib/libnx_min/nx/lib\libnx_min.a(detect.o)
                              C:/Users/oukeh/OneDrive/桌面/code-mod-example/code-mod-framework/lib/libnx_min/nx/lib\libnx_min.a(fatal.o) (detectKernelVersion)
C:/Users/oukeh/OneDrive/桌面/code-mod-example/code-mod-framework/lib/libnx_min/nx/lib\libnx_min.a(apm.o)
                              C:/Users/oukeh/OneDrive/桌面/code-mod-example/code-mod-framework/lib/libnx_min/nx/lib\libnx_min.a(applet.o) (apmExit)
c:/devkitpro/devkita64/bin/../lib/gcc/aarch64-none-elf/9.2.0/../../../../aarch64-none-elf/lib/pic\libg.a(lib_a-bsearch.o)
                              C:/Users/oukeh/OneDrive/桌面/code-mod-example/code-mod-framework/lib/libnx_min/nx/lib\libnx_min.a(fs_dev.o) (bsearch)
c:/devkitpro/devkita64/bin/../lib/gcc/aarch64-none-elf/9.2.0/../../../../aarch64-none-elf/lib/pic\libg.a(lib_a-ctype_.o)
                              C:/Users/oukeh/OneDrive/桌面/code-mod-example/code-mod-framework/lib/libnx_min/nx/lib\libnx_min.a(argv.o) (_ctype_)
c:/devkitpro/devkita64/bin/../lib/gcc/aarch64-none-elf/9.2.0/../../../../aarch64-none-elf/lib/pic\libg.a(lib_a-errno.o)
                              C:/Users/oukeh/OneDrive/桌面/code-mod-example/code-mod-framework/lib/libnx_min/nx/lib\libnx_min.a(fs_dev.o) (__errno)
c:/devkitpro/devkita64/bin/../lib/gcc/aarch64-none-elf/9.2.0/../../../../aarch64-none-elf/lib/pic\libg.a(lib_a-exit.o)
                              C:/Users/oukeh/OneDrive/桌面/code-mod-example/code-mod-framework/lib/libnx_min/nx/lib\libnx_min.a(switch_crt0.o) (exit)
c:/devkitpro/devkita64/bin/../lib/gcc/aarch64-none-elf/9.2.0/../../../../aarch64-none-elf/lib/pic\libg.a(lib_a-fini.o)
                              main.o (__libc_fini_array)
c:/devkitpro/devkita64/bin/../lib/gcc/aarch64-none-elf/9.2.0/../../../../aarch64-none-elf/lib/pic\libg.a(lib_a-impure.o)
                              c:/devkitpro/devkita64/bin/../lib/gcc/aarch64-none-elf/9.2.0/../../../../aarch64-none-elf/lib/pic\libg.a(lib_a-exit.o) (_global_impure_ptr)
c:/devkitpro/devkita64/bin/../lib/gcc/aarch64-none-elf/9.2.0/../../../../aarch64-none-elf/lib/pic\libg.a(lib_a-init.o)
                              main.o (__libc_init_array)
c:/devkitpro/devkita64/bin/../lib/gcc/aarch64-none-elf/9.2.0/../../../../aarch64-none-elf/lib/pic\libg.a(lib_a-malign.o)
                              C:/Users/oukeh/OneDrive/桌面/code-mod-example/code-mod-framework/lib/libnx_min/nx/lib\libnx_min.a(hid.o) (memalign)
c:/devkitpro/devkita64/bin/../lib/gcc/aarch64-none-elf/9.2.0/../../../../aarch64-none-elf/lib/pic\libg.a(lib_a-malignr.o)
                              c:/devkitpro/devkita64/bin/../lib/gcc/aarch64-none-elf/9.2.0/../../../../aarch64-none-elf/lib/pic\libg.a(lib_a-malign.o) (_memalign_r)
c:/devkitpro/devkita64/bin/../lib/gcc/aarch64-none-elf/9.2.0/../../../../aarch64-none-elf/lib/pic\libg.a(lib_a-malloc.o)
                              C:/Users/oukeh/OneDrive/桌面/code-mod-example/code-mod-framework/lib/libnx_min/nx/lib\libnx_min.a(newlib.o) (malloc)
c:/devkitpro/devkita64/bin/../lib/gcc/aarch64-none-elf/9.2.0/../../../../aarch64-none-elf/lib/pic\libg.a(lib_a-mallocr.o)
                              c:/devkitpro/devkita64/bin/../lib/gcc/aarch64-none-elf/9.2.0/../../../../aarch64-none-elf/lib/pic\libg.a(lib_a-malignr.o) (_malloc_r)
c:/devkitpro/devkita64/bin/../lib/gcc/aarch64-none-elf/9.2.0/../../../../aarch64-none-elf/lib/pic\libg.a(lib_a-memcpy.o)
                              C:/Users/oukeh/OneDrive/桌面/code-mod-example/code-mod-framework/lib/libnx_min/nx/lib\libnx_min.a(fs_dev.o) (memcpy)
c:/devkitpro/devkita64/bin/../lib/gcc/aarch64-none-elf/9.2.0/../../../../aarch64-none-elf/lib/pic\libg.a(lib_a-memset.o)
                              C:/Users/oukeh/OneDrive/桌面/code-mod-example/code-mod-framework/lib/libnx_min/nx/lib\libnx_min.a(argv.o) (memset)
c:/devkitpro/devkita64/bin/../lib/gcc/aarch64-none-elf/9.2.0/../../../../aarch64-none-elf/lib/pic\libg.a(lib_a-mlock.o)
                              c:/devkitpro/devkita64/bin/../lib/gcc/aarch64-none-elf/9.2.0/../../../../aarch64-none-elf/lib/pic\libg.a(lib_a-malignr.o) (__malloc_lock)
c:/devkitpro/devkita64/bin/../lib/gcc/aarch64-none-elf/9.2.0/../../../../aarch64-none-elf/lib/pic\libg.a(lib_a-setenv.o)
                              C:/Users/oukeh/OneDrive/桌面/code-mod-example/code-mod-framework/lib/libnx_min/nx/lib\libnx_min.a(newlib.o) (setenv)
c:/devkitpro/devkita64/bin/../lib/gcc/aarch64-none-elf/9.2.0/../../../../aarch64-none-elf/lib/pic\libg.a(lib_a-setenv_r.o)
                              c:/devkitpro/devkita64/bin/../lib/gcc/aarch64-none-elf/9.2.0/../../../../aarch64-none-elf/lib/pic\libg.a(lib_a-setenv.o) (_setenv_r)
c:/devkitpro/devkita64/bin/../lib/gcc/aarch64-none-elf/9.2.0/../../../../aarch64-none-elf/lib/pic\libg.a(lib_a-strchr.o)
                              raygun_printer.o (strchr)
c:/devkitpro/devkita64/bin/../lib/gcc/aarch64-none-elf/9.2.0/../../../../aarch64-none-elf/lib/pic\libg.a(lib_a-strcpy.o)
                              C:/Users/oukeh/OneDrive/桌面/code-mod-example/code-mod-framework/lib/libnx_min/nx/lib\libnx_min.a(env.o) (strcpy)
c:/devkitpro/devkita64/bin/../lib/gcc/aarch64-none-elf/9.2.0/../../../../aarch64-none-elf/lib/pic\libg.a(lib_a-strlen.o)
                              acmd_wrapper.o (strlen)
c:/devkitpro/devkita64/bin/../lib/gcc/aarch64-none-elf/9.2.0/../../../../aarch64-none-elf/lib/pic\libg.a(lib_a-strncat.o)
                              C:/Users/oukeh/OneDrive/桌面/code-mod-example/code-mod-framework/lib/libnx_min/nx/lib\libnx_min.a(fs_dev.o) (strncat)
c:/devkitpro/devkita64/bin/../lib/gcc/aarch64-none-elf/9.2.0/../../../../aarch64-none-elf/lib/pic\libg.a(lib_a-strncmp.o)
                              saltysd_helper.o (strncmp)
c:/devkitpro/devkita64/bin/../lib/gcc/aarch64-none-elf/9.2.0/../../../../aarch64-none-elf/lib/pic\libg.a(lib_a-strncpy.o)
                              C:/Users/oukeh/OneDrive/桌面/code-mod-example/code-mod-framework/lib/libnx_min/nx/lib\libnx_min.a(argv.o) (strncpy)
c:/devkitpro/devkita64/bin/../lib/gcc/aarch64-none-elf/9.2.0/../../../../aarch64-none-elf/lib/pic\libg.a(lib_a-strnlen.o)
                              C:/Users/oukeh/OneDrive/桌面/code-mod-example/code-mod-framework/lib/libnx_min/nx/lib\libnx_min.a(fs_dev.o) (strnlen)
c:/devkitpro/devkita64/bin/../lib/gcc/aarch64-none-elf/9.2.0/../../../../aarch64-none-elf/lib/pic\libg.a(lib_a-toupper.o)
                              raygun_printer.o (toupper)
c:/devkitpro/devkita64/bin/../lib/gcc/aarch64-none-elf/9.2.0/../../../../aarch64-none-elf/lib/pic\libg.a(lib_a-vsnprintf.o)
                              raygun_printer.o (vsnprintf)
c:/devkitpro/devkita64/bin/../lib/gcc/aarch64-none-elf/9.2.0/../../../../aarch64-none-elf/lib/pic\libg.a(lib_a-__call_atexit.o)
                              c:/devkitpro/devkita64/bin/../lib/gcc/aarch64-none-elf/9.2.0/../../../../aarch64-none-elf/lib/pic\libg.a(lib_a-exit.o) (__call_exitprocs)
c:/devkitpro/devkita64/bin/../lib/gcc/aarch64-none-elf/9.2.0/../../../../aarch64-none-elf/lib/pic\libg.a(lib_a-environ.o)
                              c:/devkitpro/devkita64/bin/../lib/gcc/aarch64-none-elf/9.2.0/../../../../aarch64-none-elf/lib/pic\libg.a(lib_a-setenv_r.o) (environ)
c:/devkitpro/devkita64/bin/../lib/gcc/aarch64-none-elf/9.2.0/../../../../aarch64-none-elf/lib/pic\libg.a(lib_a-envlock.o)
                              c:/devkitpro/devkita64/bin/../lib/gcc/aarch64-none-elf/9.2.0/../../../../aarch64-none-elf/lib/pic\libg.a(lib_a-setenv_r.o) (__env_lock)
c:/devkitpro/devkita64/bin/../lib/gcc/aarch64-none-elf/9.2.0/../../../../aarch64-none-elf/lib/pic\libg.a(lib_a-freer.o)
                              c:/devkitpro/devkita64/bin/../lib/gcc/aarch64-none-elf/9.2.0/../../../../aarch64-none-elf/lib/pic\libg.a(lib_a-malignr.o) (_free_r)
c:/devkitpro/devkita64/bin/../lib/gcc/aarch64-none-elf/9.2.0/../../../../aarch64-none-elf/lib/pic\libg.a(lib_a-getenv_r.o)
                              c:/devkitpro/devkita64/bin/../lib/gcc/aarch64-none-elf/9.2.0/../../../../aarch64-none-elf/lib/pic\libg.a(lib_a-setenv_r.o) (_findenv_r)
c:/devkitpro/devkita64/bin/../lib/gcc/aarch64-none-elf/9.2.0/../../../../aarch64-none-elf/lib/pic\libg.a(lib_a-reallocr.o)
                              c:/devkitpro/devkita64/bin/../lib/gcc/aarch64-none-elf/9.2.0/../../../../aarch64-none-elf/lib/pic\libg.a(lib_a-setenv_r.o) (_realloc_r)
c:/devkitpro/devkita64/bin/../lib/gcc/aarch64-none-elf/9.2.0/../../../../aarch64-none-elf/lib/pic\libg.a(lib_a-svfprintf.o)
                              c:/devkitpro/devkita64/bin/../lib/gcc/aarch64-none-elf/9.2.0/../../../../aarch64-none-elf/lib/pic\libg.a(lib_a-vsnprintf.o) (_svfprintf_r)
c:/devkitpro/devkita64/bin/../lib/gcc/aarch64-none-elf/9.2.0/../../../../aarch64-none-elf/lib/pic\libg.a(lib_a-wcrtomb.o)
                              c:/devkitpro/devkita64/bin/../lib/gcc/aarch64-none-elf/9.2.0/../../../../aarch64-none-elf/lib/pic\libg.a(lib_a-svfprintf.o) (_wcrtomb_r)
c:/devkitpro/devkita64/bin/../lib/gcc/aarch64-none-elf/9.2.0/../../../../aarch64-none-elf/lib/pic\libg.a(lib_a-wcsrtombs.o)
                              c:/devkitpro/devkita64/bin/../lib/gcc/aarch64-none-elf/9.2.0/../../../../aarch64-none-elf/lib/pic\libg.a(lib_a-svfprintf.o) (_wcsrtombs_r)
c:/devkitpro/devkita64/bin/../lib/gcc/aarch64-none-elf/9.2.0/../../../../aarch64-none-elf/lib/pic\libg.a(lib_a-dtoa.o)
                              c:/devkitpro/devkita64/bin/../lib/gcc/aarch64-none-elf/9.2.0/../../../../aarch64-none-elf/lib/pic\libg.a(lib_a-svfprintf.o) (_dtoa_r)
c:/devkitpro/devkita64/bin/../lib/gcc/aarch64-none-elf/9.2.0/../../../../aarch64-none-elf/lib/pic\libg.a(lib_a-localeconv.o)
                              c:/devkitpro/devkita64/bin/../lib/gcc/aarch64-none-elf/9.2.0/../../../../aarch64-none-elf/lib/pic\libg.a(lib_a-svfprintf.o) (_localeconv_r)
c:/devkitpro/devkita64/bin/../lib/gcc/aarch64-none-elf/9.2.0/../../../../aarch64-none-elf/lib/pic\libg.a(lib_a-locale.o)
                              c:/devkitpro/devkita64/bin/../lib/gcc/aarch64-none-elf/9.2.0/../../../../aarch64-none-elf/lib/pic\libg.a(lib_a-svfprintf.o) (__global_locale)
c:/devkitpro/devkita64/bin/../lib/gcc/aarch64-none-elf/9.2.0/../../../../aarch64-none-elf/lib/pic\libg.a(lib_a-mbtowc_r.o)
                              c:/devkitpro/devkita64/bin/../lib/gcc/aarch64-none-elf/9.2.0/../../../../aarch64-none-elf/lib/pic\libg.a(lib_a-locale.o) (__ascii_mbtowc)
c:/devkitpro/devkita64/bin/../lib/gcc/aarch64-none-elf/9.2.0/../../../../aarch64-none-elf/lib/pic\libg.a(lib_a-memchr.o)
                              c:/devkitpro/devkita64/bin/../lib/gcc/aarch64-none-elf/9.2.0/../../../../aarch64-none-elf/lib/pic\libg.a(lib_a-svfprintf.o) (memchr)
c:/devkitpro/devkita64/bin/../lib/gcc/aarch64-none-elf/9.2.0/../../../../aarch64-none-elf/lib/pic\libg.a(lib_a-memmove.o)
                              c:/devkitpro/devkita64/bin/../lib/gcc/aarch64-none-elf/9.2.0/../../../../aarch64-none-elf/lib/pic\libg.a(lib_a-reallocr.o) (memmove)
c:/devkitpro/devkita64/bin/../lib/gcc/aarch64-none-elf/9.2.0/../../../../aarch64-none-elf/lib/pic\libg.a(lib_a-mprec.o)
                              c:/devkitpro/devkita64/bin/../lib/gcc/aarch64-none-elf/9.2.0/../../../../aarch64-none-elf/lib/pic\libg.a(lib_a-dtoa.o) (_Balloc)
c:/devkitpro/devkita64/bin/../lib/gcc/aarch64-none-elf/9.2.0/../../../../aarch64-none-elf/lib/pic\libg.a(lib_a-s_frexp.o)
                              c:/devkitpro/devkita64/bin/../lib/gcc/aarch64-none-elf/9.2.0/../../../../aarch64-none-elf/lib/pic\libg.a(lib_a-svfprintf.o) (frexp)
c:/devkitpro/devkita64/bin/../lib/gcc/aarch64-none-elf/9.2.0/../../../../aarch64-none-elf/lib/pic\libg.a(lib_a-strcasecmp.o)
                              c:/devkitpro/devkita64/bin/../lib/gcc/aarch64-none-elf/9.2.0/../../../../aarch64-none-elf/lib/pic\libg.a(lib_a-locale.o) (strcasecmp)
c:/devkitpro/devkita64/bin/../lib/gcc/aarch64-none-elf/9.2.0/../../../../aarch64-none-elf/lib/pic\libg.a(lib_a-strcat.o)
                              c:/devkitpro/devkita64/bin/../lib/gcc/aarch64-none-elf/9.2.0/../../../../aarch64-none-elf/lib/pic\libg.a(lib_a-locale.o) (strcat)
c:/devkitpro/devkita64/bin/../lib/gcc/aarch64-none-elf/9.2.0/../../../../aarch64-none-elf/lib/pic\libg.a(lib_a-strcmp.o)
                              c:/devkitpro/devkita64/bin/../lib/gcc/aarch64-none-elf/9.2.0/../../../../aarch64-none-elf/lib/pic\libg.a(lib_a-locale.o) (strcmp)
c:/devkitpro/devkita64/bin/../lib/gcc/aarch64-none-elf/9.2.0/../../../../aarch64-none-elf/lib/pic\libg.a(lib_a-strlcpy.o)
                              c:/devkitpro/devkita64/bin/../lib/gcc/aarch64-none-elf/9.2.0/../../../../aarch64-none-elf/lib/pic\libg.a(lib_a-locale.o) (strlcpy)
c:/devkitpro/devkita64/bin/../lib/gcc/aarch64-none-elf/9.2.0/../../../../aarch64-none-elf/lib/pic\libg.a(lib_a-strncasecmp.o)
                              c:/devkitpro/devkita64/bin/../lib/gcc/aarch64-none-elf/9.2.0/../../../../aarch64-none-elf/lib/pic\libg.a(lib_a-locale.o) (strncasecmp)
c:/devkitpro/devkita64/bin/../lib/gcc/aarch64-none-elf/9.2.0/../../../../aarch64-none-elf/lib/pic\libg.a(lib_a-strtol.o)
                              c:/devkitpro/devkita64/bin/../lib/gcc/aarch64-none-elf/9.2.0/../../../../aarch64-none-elf/lib/pic\libg.a(lib_a-locale.o) (strtol)
c:/devkitpro/devkita64/bin/../lib/gcc/aarch64-none-elf/9.2.0/../../../../aarch64-none-elf/lib/pic\libg.a(lib_a-svfiprintf.o)
                              c:/devkitpro/devkita64/bin/../lib/gcc/aarch64-none-elf/9.2.0/../../../../aarch64-none-elf/lib/pic\libg.a(lib_a-svfprintf.o) (__state_table)
c:/devkitpro/devkita64/bin/../lib/gcc/aarch64-none-elf/9.2.0/../../../../aarch64-none-elf/lib/pic\libg.a(lib_a-wcsnrtombs.o)
                              c:/devkitpro/devkita64/bin/../lib/gcc/aarch64-none-elf/9.2.0/../../../../aarch64-none-elf/lib/pic\libg.a(lib_a-wcsrtombs.o) (_wcsnrtombs_r)
c:/devkitpro/devkita64/bin/../lib/gcc/aarch64-none-elf/9.2.0/../../../../aarch64-none-elf/lib/pic\libg.a(lib_a-wctomb_r.o)
                              c:/devkitpro/devkita64/bin/../lib/gcc/aarch64-none-elf/9.2.0/../../../../aarch64-none-elf/lib/pic\libg.a(lib_a-locale.o) (__ascii_wctomb)
c:/devkitpro/devkita64/bin/../lib/gcc/aarch64-none-elf/9.2.0/../../../../aarch64-none-elf/lib/pic\libg.a(lib_a-callocr.o)
                              c:/devkitpro/devkita64/bin/../lib/gcc/aarch64-none-elf/9.2.0/../../../../aarch64-none-elf/lib/pic\libg.a(lib_a-mprec.o) (_calloc_r)
c:/devkitpro/devkita64/bin/../lib/gcc/aarch64-none-elf/9.2.0/../../../../aarch64-none-elf/lib/pic\libsysbase.a(iosupport.o)
                              C:/Users/oukeh/OneDrive/桌面/code-mod-example/code-mod-framework/lib/libnx_min/nx/lib\libnx_min.a(fs_dev.o) (setDefaultDevice)
c:/devkitpro/devkita64/bin/../lib/gcc/aarch64-none-elf/9.2.0/../../../../aarch64-none-elf/lib/pic\libsysbase.a(sbrk.o)
                              c:/devkitpro/devkita64/bin/../lib/gcc/aarch64-none-elf/9.2.0/../../../../aarch64-none-elf/lib/pic\libg.a(lib_a-mallocr.o) (_sbrk_r)
c:/devkitpro/devkita64/bin/../lib/gcc/aarch64-none-elf/9.2.0/../../../../aarch64-none-elf/lib/pic\libsysbase.a(_exit.o)
                              c:/devkitpro/devkita64/bin/../lib/gcc/aarch64-none-elf/9.2.0/../../../../aarch64-none-elf/lib/pic\libg.a(lib_a-exit.o) (_exit)
c:/devkitpro/devkita64/bin/../lib/gcc/aarch64-none-elf/9.2.0/../../../../aarch64-none-elf/lib/pic\libsysbase.a(malloc_vars.o)
                              main.o (fake_heap_start)
c:/devkitpro/devkita64/bin/../lib/gcc/aarch64-none-elf/9.2.0/../../../../aarch64-none-elf/lib/pic\libsysbase.a(chdir.o)
                              C:/Users/oukeh/OneDrive/桌面/code-mod-example/code-mod-framework/lib/libnx_min/nx/lib\libnx_min.a(fs_dev.o) (chdir)
c:/devkitpro/devkita64/bin/../lib/gcc/aarch64-none-elf/9.2.0/../../../../aarch64-none-elf/lib/pic\libsysbase.a(locks.o)
                              C:/Users/oukeh/OneDrive/桌面/code-mod-example/code-mod-framework/lib/libnx_min/nx/lib\libnx_min.a(newlib.o) (timespec2nsec)
c:/devkitpro/devkita64/bin/../lib/gcc/aarch64-none-elf/9.2.0/../../../../aarch64-none-elf/lib/pic\libsysbase.a(getreent.o)
                              C:/Users/oukeh/OneDrive/桌面/code-mod-example/code-mod-framework/lib/libnx_min/nx/lib\libnx_min.a(fs_dev.o) (__getreent)
c:/devkitpro/devkita64/bin/../lib/gcc/aarch64-none-elf/9.2.0/../../../../aarch64-none-elf/lib/pic\libsysbase.a(clocks.o)
                              c:/devkitpro/devkita64/bin/../lib/gcc/aarch64-none-elf/9.2.0/../../../../aarch64-none-elf/lib/pic\libsysbase.a(locks.o) (clock_gettime)
c:/devkitpro/devkita64/bin/../lib/gcc/aarch64-none-elf/9.2.0/pic\libgcc.a(trunctfdf2.o)
                              c:/devkitpro/devkita64/bin/../lib/gcc/aarch64-none-elf/9.2.0/../../../../aarch64-none-elf/lib/pic\libg.a(lib_a-svfprintf.o) (__trunctfdf2)
c:/devkitpro/devkita64/bin/../lib/gcc/aarch64-none-elf/9.2.0/pic\libgcc.a(sfp-exceptions.o)
                              c:/devkitpro/devkita64/bin/../lib/gcc/aarch64-none-elf/9.2.0/pic\libgcc.a(trunctfdf2.o) (__sfp_handle_exceptions)
c:/devkitpro/devkita64/bin/../lib/gcc/aarch64-none-elf/9.2.0/../../../../aarch64-none-elf/lib/pic\libg.a(lib_a-strrchr.o)
                              c:/devkitpro/devkita64/bin/../lib/gcc/aarch64-none-elf/9.2.0/../../../../aarch64-none-elf/lib/pic\libsysbase.a(chdir.o) (strrchr)

Allocating common symbols
Common symbol       size              file

__nx_exceptiondump  0x340             C:/Users/oukeh/OneDrive/桌面/code-mod-example/code-mod-framework/lib/libnx_min/nx/lib\libnx_min.a(init.o)
__system_argv       0x8               C:/Users/oukeh/OneDrive/桌面/code-mod-example/code-mod-framework/lib/libnx_min/nx/lib\libnx_min.a(argv.o)
__system_argc       0x4               C:/Users/oukeh/OneDrive/桌面/code-mod-example/code-mod-framework/lib/libnx_min/nx/lib\libnx_min.a(argv.o)
__stack_top         0x8               C:/Users/oukeh/OneDrive/桌面/code-mod-example/code-mod-framework/lib/libnx_min/nx/lib\libnx_min.a(init.o)

Discarded input sections

 .text          0x0000000000000000        0x0 c:/devkitpro/devkita64/bin/../lib/gcc/aarch64-none-elf/9.2.0/pic/crti.o
 .data          0x0000000000000000        0x0 c:/devkitpro/devkita64/bin/../lib/gcc/aarch64-none-elf/9.2.0/pic/crti.o
 .bss           0x0000000000000000        0x0 c:/devkitpro/devkita64/bin/../lib/gcc/aarch64-none-elf/9.2.0/pic/crti.o
 .text          0x0000000000000000        0x0 c:/devkitpro/devkita64/bin/../lib/gcc/aarch64-none-elf/9.2.0/pic/crtbegin.o
 .data          0x0000000000000000        0x0 c:/devkitpro/devkita64/bin/../lib/gcc/aarch64-none-elf/9.2.0/pic/crtbegin.o
 .bss           0x0000000000000000        0x0 c:/devkitpro/devkita64/bin/../lib/gcc/aarch64-none-elf/9.2.0/pic/crtbegin.o
 .data.__dso_handle
                0x0000000000000000        0x8 c:/devkitpro/devkita64/bin/../lib/gcc/aarch64-none-elf/9.2.0/pic/crtbegin.o
 .comment       0x0000000000000000       0x23 c:/devkitpro/devkita64/bin/../lib/gcc/aarch64-none-elf/9.2.0/pic/crtbegin.o
 .comment       0x0000000000000000       0x23 main.o
 .data          0x0000000000000000        0x0 acmd_wrapper.o
 .bss           0x0000000000000000        0x0 acmd_wrapper.o
 .comment       0x0000000000000000       0x23 acmd_wrapper.o
 .data          0x0000000000000000        0x0 saltysd_helper.o
 .comment       0x0000000000000000       0x23 saltysd_helper.o
 .data          0x0000000000000000        0x0 lua_bind_hash.o
 .bss           0x0000000000000000        0x0 lua_bind_hash.o
 .comment       0x0000000000000000       0x23 lua_bind_hash.o
 .data          0x0000000000000000        0x0 l2c_imports.o
 .bss           0x0000000000000000        0x0 l2c_imports.o
 .comment       0x0000000000000000       0x23 l2c_imports.o
 .data          0x0000000000000000        0x0 raygun_printer.o
 .bss           0x0000000000000000        0x0 raygun_printer.o
 .comment       0x0000000000000000       0x23 raygun_printer.o
 .text          0x0000000000000000        0x0 C:/Users/oukeh/OneDrive/桌面/code-mod-example/code-mod-framework/lib/libnx_min/nx/lib\libnx_min.a(switch_crt0.o)
 .data          0x0000000000000000        0x0 C:/Users/oukeh/OneDrive/桌面/code-mod-example/code-mod-framework/lib/libnx_min/nx/lib\libnx_min.a(switch_crt0.o)
 .bss           0x0000000000000000        0x0 C:/Users/oukeh/OneDrive/桌面/code-mod-example/code-mod-framework/lib/libnx_min/nx/lib\libnx_min.a(switch_crt0.o)
 .debug_line    0x0000000000000000       0xc3 C:/Users/oukeh/OneDrive/桌面/code-mod-example/code-mod-framework/lib/libnx_min/nx/lib\libnx_min.a(switch_crt0.o)
 .debug_info    0x0000000000000000       0x2e C:/Users/oukeh/OneDrive/桌面/code-mod-example/code-mod-framework/lib/libnx_min/nx/lib\libnx_min.a(switch_crt0.o)
 .debug_abbrev  0x0000000000000000       0x14 C:/Users/oukeh/OneDrive/桌面/code-mod-example/code-mod-framework/lib/libnx_min/nx/lib\libnx_min.a(switch_crt0.o)
 .debug_aranges
                0x0000000000000000       0x30 C:/Users/oukeh/OneDrive/桌面/code-mod-example/code-mod-framework/lib/libnx_min/nx/lib\libnx_min.a(switch_crt0.o)
 .debug_str     0x0000000000000000       0xc1 C:/Users/oukeh/OneDrive/桌面/code-mod-example/code-mod-framework/lib/libnx_min/nx/lib\libnx_min.a(switch_crt0.o)
 .text          0x0000000000000000        0x0 C:/Users/oukeh/OneDrive/桌面/code-mod-example/code-mod-framework/lib/libnx_min/nx/lib\libnx_min.a(exception.o)
 .data          0x0000000000000000        0x0 C:/Users/oukeh/OneDrive/桌面/code-mod-example/code-mod-framework/lib/libnx_min/nx/lib\libnx_min.a(exception.o)
 .bss           0x0000000000000000        0x0 C:/Users/oukeh/OneDrive/桌面/code-mod-example/code-mod-framework/lib/libnx_min/nx/lib\libnx_min.a(exception.o)
 .debug_line    0x0000000000000000      0x11e C:/Users/oukeh/OneDrive/桌面/code-mod-example/code-mod-framework/lib/libnx_min/nx/lib\libnx_min.a(exception.o)
 .debug_info    0x0000000000000000       0x22 C:/Users/oukeh/OneDrive/桌面/code-mod-example/code-mod-framework/lib/libnx_min/nx/lib\libnx_min.a(exception.o)
 .debug_abbrev  0x0000000000000000       0x12 C:/Users/oukeh/OneDrive/桌面/code-mod-example/code-mod-framework/lib/libnx_min/nx/lib\libnx_min.a(exception.o)
 .debug_aranges
                0x0000000000000000       0x40 C:/Users/oukeh/OneDrive/桌面/code-mod-example/code-mod-framework/lib/libnx_min/nx/lib\libnx_min.a(exception.o)
 .debug_str     0x0000000000000000       0xbf C:/Users/oukeh/OneDrive/桌面/code-mod-example/code-mod-framework/lib/libnx_min/nx/lib\libnx_min.a(exception.o)
 .debug_ranges  0x0000000000000000       0x40 C:/Users/oukeh/OneDrive/桌面/code-mod-example/code-mod-framework/lib/libnx_min/nx/lib\libnx_min.a(exception.o)
 .text          0x0000000000000000        0x0 C:/Users/oukeh/OneDrive/桌面/code-mod-example/code-mod-framework/lib/libnx_min/nx/lib\libnx_min.a(argv.o)
 .data          0x0000000000000000        0x0 C:/Users/oukeh/OneDrive/桌面/code-mod-example/code-mod-framework/lib/libnx_min/nx/lib\libnx_min.a(argv.o)
 .bss           0x0000000000000000        0x0 C:/Users/oukeh/OneDrive/桌面/code-mod-example/code-mod-framework/lib/libnx_min/nx/lib\libnx_min.a(argv.o)
 .debug_info    0x0000000000000000      0xe43 C:/Users/oukeh/OneDrive/桌面/code-mod-example/code-mod-framework/lib/libnx_min/nx/lib\libnx_min.a(argv.o)
 .debug_abbrev  0x0000000000000000      0x2de C:/Users/oukeh/OneDrive/桌面/code-mod-example/code-mod-framework/lib/libnx_min/nx/lib\libnx_min.a(argv.o)
 .debug_loc     0x0000000000000000      0x6a8 C:/Users/oukeh/OneDrive/桌面/code-mod-example/code-mod-framework/lib/libnx_min/nx/lib\libnx_min.a(argv.o)
 .debug_aranges
                0x0000000000000000       0x30 C:/Users/oukeh/OneDrive/桌面/code-mod-example/code-mod-framework/lib/libnx_min/nx/lib\libnx_min.a(argv.o)
 .debug_ranges  0x0000000000000000       0x20 C:/Users/oukeh/OneDrive/桌面/code-mod-example/code-mod-framework/lib/libnx_min/nx/lib\libnx_min.a(argv.o)
 .debug_line    0x0000000000000000      0x64d C:/Users/oukeh/OneDrive/桌面/code-mod-example/code-mod-framework/lib/libnx_min/nx/lib\libnx_min.a(argv.o)
 .debug_str     0x0000000000000000      0x874 C:/Users/oukeh/OneDrive/桌面/code-mod-example/code-mod-framework/lib/libnx_min/nx/lib\libnx_min.a(argv.o)
 .comment       0x0000000000000000       0x23 C:/Users/oukeh/OneDrive/桌面/code-mod-example/code-mod-framework/lib/libnx_min/nx/lib\libnx_min.a(argv.o)
 .text          0x0000000000000000        0x0 C:/Users/oukeh/OneDrive/桌面/code-mod-example/code-mod-framework/lib/libnx_min/nx/lib\libnx_min.a(env.o)
 .data          0x0000000000000000        0x0 C:/Users/oukeh/OneDrive/桌面/code-mod-example/code-mod-framework/lib/libnx_min/nx/lib\libnx_min.a(env.o)
 .bss           0x0000000000000000        0x0 C:/Users/oukeh/OneDrive/桌面/code-mod-example/code-mod-framework/lib/libnx_min/nx/lib\libnx_min.a(env.o)
 .debug_info    0x0000000000000000     0x111a C:/Users/oukeh/OneDrive/桌面/code-mod-example/code-mod-framework/lib/libnx_min/nx/lib\libnx_min.a(env.o)
 .debug_abbrev  0x0000000000000000      0x322 C:/Users/oukeh/OneDrive/桌面/code-mod-example/code-mod-framework/lib/libnx_min/nx/lib\libnx_min.a(env.o)
 .debug_loc     0x0000000000000000      0x362 C:/Users/oukeh/OneDrive/桌面/code-mod-example/code-mod-framework/lib/libnx_min/nx/lib\libnx_min.a(env.o)
 .debug_aranges
                0x0000000000000000      0x130 C:/Users/oukeh/OneDrive/桌面/code-mod-example/code-mod-framework/lib/libnx_min/nx/lib\libnx_min.a(env.o)
 .debug_ranges  0x0000000000000000      0x120 C:/Users/oukeh/OneDrive/桌面/code-mod-example/code-mod-framework/lib/libnx_min/nx/lib\libnx_min.a(env.o)
 .debug_line    0x0000000000000000      0x6fe C:/Users/oukeh/OneDrive/桌面/code-mod-example/code-mod-framework/lib/libnx_min/nx/lib\libnx_min.a(env.o)
 .debug_str     0x0000000000000000     0x107e C:/Users/oukeh/OneDrive/桌面/code-mod-example/code-mod-framework/lib/libnx_min/nx/lib\libnx_min.a(env.o)
 .comment       0x0000000000000000       0x23 C:/Users/oukeh/OneDrive/桌面/code-mod-example/code-mod-framework/lib/libnx_min/nx/lib\libnx_min.a(env.o)
 .text          0x0000000000000000        0x0 C:/Users/oukeh/OneDrive/桌面/code-mod-example/code-mod-framework/lib/libnx_min/nx/lib\libnx_min.a(init.o)
 .data          0x0000000000000000        0x0 C:/Users/oukeh/OneDrive/桌面/code-mod-example/code-mod-framework/lib/libnx_min/nx/lib\libnx_min.a(init.o)
 .bss           0x0000000000000000        0x0 C:/Users/oukeh/OneDrive/桌面/code-mod-example/code-mod-framework/lib/libnx_min/nx/lib\libnx_min.a(init.o)
 .text.__libnx_init
                0x0000000000000000       0x28 C:/Users/oukeh/OneDrive/桌面/code-mod-example/code-mod-framework/lib/libnx_min/nx/lib\libnx_min.a(init.o)
 .text.__libnx_exit
                0x0000000000000000       0x20 C:/Users/oukeh/OneDrive/桌面/code-mod-example/code-mod-framework/lib/libnx_min/nx/lib\libnx_min.a(init.o)
 .debug_info    0x0000000000000000      0xce2 C:/Users/oukeh/OneDrive/桌面/code-mod-example/code-mod-framework/lib/libnx_min/nx/lib\libnx_min.a(init.o)
 .debug_abbrev  0x0000000000000000      0x2a1 C:/Users/oukeh/OneDrive/桌面/code-mod-example/code-mod-framework/lib/libnx_min/nx/lib\libnx_min.a(init.o)
 .debug_loc     0x0000000000000000      0x34a C:/Users/oukeh/OneDrive/桌面/code-mod-example/code-mod-framework/lib/libnx_min/nx/lib\libnx_min.a(init.o)
 .debug_aranges
                0x0000000000000000       0x70 C:/Users/oukeh/OneDrive/桌面/code-mod-example/code-mod-framework/lib/libnx_min/nx/lib\libnx_min.a(init.o)
 .debug_ranges  0x0000000000000000       0xa0 C:/Users/oukeh/OneDrive/桌面/code-mod-example/code-mod-framework/lib/libnx_min/nx/lib\libnx_min.a(init.o)
 .debug_line    0x0000000000000000      0x685 C:/Users/oukeh/OneDrive/桌面/code-mod-example/code-mod-framework/lib/libnx_min/nx/lib\libnx_min.a(init.o)
 .debug_str     0x0000000000000000      0xf19 C:/Users/oukeh/OneDrive/桌面/code-mod-example/code-mod-framework/lib/libnx_min/nx/lib\libnx_min.a(init.o)
 .comment       0x0000000000000000       0x23 C:/Users/oukeh/OneDrive/桌面/code-mod-example/code-mod-framework/lib/libnx_min/nx/lib\libnx_min.a(init.o)
 .text          0x0000000000000000        0x0 C:/Users/oukeh/OneDrive/桌面/code-mod-example/code-mod-framework/lib/libnx_min/nx/lib\libnx_min.a(hosversion.o)
 .data          0x0000000000000000        0x0 C:/Users/oukeh/OneDrive/桌面/code-mod-example/code-mod-framework/lib/libnx_min/nx/lib\libnx_min.a(hosversion.o)
 .bss           0x0000000000000000        0x0 C:/Users/oukeh/OneDrive/桌面/code-mod-example/code-mod-framework/lib/libnx_min/nx/lib\libnx_min.a(hosversion.o)
 .debug_info    0x0000000000000000      0x103 C:/Users/oukeh/OneDrive/桌面/code-mod-example/code-mod-framework/lib/libnx_min/nx/lib\libnx_min.a(hosversion.o)
 .debug_abbrev  0x0000000000000000       0xa2 C:/Users/oukeh/OneDrive/桌面/code-mod-example/code-mod-framework/lib/libnx_min/nx/lib\libnx_min.a(hosversion.o)
 .debug_aranges
                0x0000000000000000       0x40 C:/Users/oukeh/OneDrive/桌面/code-mod-example/code-mod-framework/lib/libnx_min/nx/lib\libnx_min.a(hosversion.o)
 .debug_ranges  0x0000000000000000       0x30 C:/Users/oukeh/OneDrive/桌面/code-mod-example/code-mod-framework/lib/libnx_min/nx/lib\libnx_min.a(hosversion.o)
 .debug_line    0x0000000000000000      0x1b0 C:/Users/oukeh/OneDrive/桌面/code-mod-example/code-mod-framework/lib/libnx_min/nx/lib\libnx_min.a(hosversion.o)
 .debug_str     0x0000000000000000      0x234 C:/Users/oukeh/OneDrive/桌面/code-mod-example/code-mod-framework/lib/libnx_min/nx/lib\libnx_min.a(hosversion.o)
 .comment       0x0000000000000000       0x23 C:/Users/oukeh/OneDrive/桌面/code-mod-example/code-mod-framework/lib/libnx_min/nx/lib\libnx_min.a(hosversion.o)
 .text          0x0000000000000000        0x0 C:/Users/oukeh/OneDrive/桌面/code-mod-example/code-mod-framework/lib/libnx_min/nx/lib\libnx_min.a(dynamic.o)
 .data          0x0000000000000000        0x0 C:/Users/oukeh/OneDrive/桌面/code-mod-example/code-mod-framework/lib/libnx_min/nx/lib\libnx_min.a(dynamic.o)
 .bss           0x0000000000000000        0x0 C:/Users/oukeh/OneDrive/桌面/code-mod-example/code-mod-framework/lib/libnx_min/nx/lib\libnx_min.a(dynamic.o)
 .debug_info    0x0000000000000000      0x3c9 C:/Users/oukeh/OneDrive/桌面/code-mod-example/code-mod-framework/lib/libnx_min/nx/lib\libnx_min.a(dynamic.o)
 .debug_abbrev  0x0000000000000000      0x16b C:/Users/oukeh/OneDrive/桌面/code-mod-example/code-mod-framework/lib/libnx_min/nx/lib\libnx_min.a(dynamic.o)
 .debug_loc     0x0000000000000000      0x1b8 C:/Users/oukeh/OneDrive/桌面/code-mod-example/code-mod-framework/lib/libnx_min/nx/lib\libnx_min.a(dynamic.o)
 .debug_aranges
                0x0000000000000000       0x30 C:/Users/oukeh/OneDrive/桌面/code-mod-example/code-mod-framework/lib/libnx_min/nx/lib\libnx_min.a(dynamic.o)
 .debug_ranges  0x0000000000000000       0x20 C:/Users/oukeh/OneDrive/桌面/code-mod-example/code-mod-framework/lib/libnx_min/nx/lib\libnx_min.a(dynamic.o)
 .debug_line    0x0000000000000000      0x2df C:/Users/oukeh/OneDrive/桌面/code-mod-example/code-mod-framework/lib/libnx_min/nx/lib\libnx_min.a(dynamic.o)
 .debug_str     0x0000000000000000      0x837 C:/Users/oukeh/OneDrive/桌面/code-mod-example/code-mod-framework/lib/libnx_min/nx/lib\libnx_min.a(dynamic.o)
 .comment       0x0000000000000000       0x23 C:/Users/oukeh/OneDrive/桌面/code-mod-example/code-mod-framework/lib/libnx_min/nx/lib\libnx_min.a(dynamic.o)
 .text          0x0000000000000000        0x0 C:/Users/oukeh/OneDrive/桌面/code-mod-example/code-mod-framework/lib/libnx_min/nx/lib\libnx_min.a(fs_dev.o)
 .data          0x0000000000000000        0x0 C:/Users/oukeh/OneDrive/桌面/code-mod-example/code-mod-framework/lib/libnx_min/nx/lib\libnx_min.a(fs_dev.o)
 .bss           0x0000000000000000        0x0 C:/Users/oukeh/OneDrive/桌面/code-mod-example/code-mod-framework/lib/libnx_min/nx/lib\libnx_min.a(fs_dev.o)
 .debug_info    0x0000000000000000     0x411e C:/Users/oukeh/OneDrive/桌面/code-mod-example/code-mod-framework/lib/libnx_min/nx/lib\libnx_min.a(fs_dev.o)
 .debug_abbrev  0x0000000000000000      0x5b7 C:/Users/oukeh/OneDrive/桌面/code-mod-example/code-mod-framework/lib/libnx_min/nx/lib\libnx_min.a(fs_dev.o)
 .debug_loc     0x0000000000000000     0x4332 C:/Users/oukeh/OneDrive/桌面/code-mod-example/code-mod-framework/lib/libnx_min/nx/lib\libnx_min.a(fs_dev.o)
 .debug_aranges
                0x0000000000000000      0x2a0 C:/Users/oukeh/OneDrive/桌面/code-mod-example/code-mod-framework/lib/libnx_min/nx/lib\libnx_min.a(fs_dev.o)
 .debug_ranges  0x0000000000000000      0x670 C:/Users/oukeh/OneDrive/桌面/code-mod-example/code-mod-framework/lib/libnx_min/nx/lib\libnx_min.a(fs_dev.o)
 .debug_line    0x0000000000000000     0x1a73 C:/Users/oukeh/OneDrive/桌面/code-mod-example/code-mod-framework/lib/libnx_min/nx/lib\libnx_min.a(fs_dev.o)
 .debug_str     0x0000000000000000     0x1939 C:/Users/oukeh/OneDrive/桌面/code-mod-example/code-mod-framework/lib/libnx_min/nx/lib\libnx_min.a(fs_dev.o)
 .comment       0x0000000000000000       0x23 C:/Users/oukeh/OneDrive/桌面/code-mod-example/code-mod-framework/lib/libnx_min/nx/lib\libnx_min.a(fs_dev.o)
 .text          0x0000000000000000        0x0 C:/Users/oukeh/OneDrive/桌面/code-mod-example/code-mod-framework/lib/libnx_min/nx/lib\libnx_min.a(decode_utf8.o)
 .data          0x0000000000000000        0x0 C:/Users/oukeh/OneDrive/桌面/code-mod-example/code-mod-framework/lib/libnx_min/nx/lib\libnx_min.a(decode_utf8.o)
 .bss           0x0000000000000000        0x0 C:/Users/oukeh/OneDrive/桌面/code-mod-example/code-mod-framework/lib/libnx_min/nx/lib\libnx_min.a(decode_utf8.o)
 .debug_info    0x0000000000000000      0x170 C:/Users/oukeh/OneDrive/桌面/code-mod-example/code-mod-framework/lib/libnx_min/nx/lib\libnx_min.a(decode_utf8.o)
 .debug_abbrev  0x0000000000000000       0x9e C:/Users/oukeh/OneDrive/桌面/code-mod-example/code-mod-framework/lib/libnx_min/nx/lib\libnx_min.a(decode_utf8.o)
 .debug_loc     0x0000000000000000      0x334 C:/Users/oukeh/OneDrive/桌面/code-mod-example/code-mod-framework/lib/libnx_min/nx/lib\libnx_min.a(decode_utf8.o)
 .debug_aranges
                0x0000000000000000       0x30 C:/Users/oukeh/OneDrive/桌面/code-mod-example/code-mod-framework/lib/libnx_min/nx/lib\libnx_min.a(decode_utf8.o)
 .debug_ranges  0x0000000000000000       0x20 C:/Users/oukeh/OneDrive/桌面/code-mod-example/code-mod-framework/lib/libnx_min/nx/lib\libnx_min.a(decode_utf8.o)
 .debug_line    0x0000000000000000      0x28a C:/Users/oukeh/OneDrive/桌面/code-mod-example/code-mod-framework/lib/libnx_min/nx/lib\libnx_min.a(decode_utf8.o)
 .debug_str     0x0000000000000000      0x259 C:/Users/oukeh/OneDrive/桌面/code-mod-example/code-mod-framework/lib/libnx_min/nx/lib\libnx_min.a(decode_utf8.o)
 .comment       0x0000000000000000       0x23 C:/Users/oukeh/OneDrive/桌面/code-mod-example/code-mod-framework/lib/libnx_min/nx/lib\libnx_min.a(decode_utf8.o)
 .text          0x0000000000000000        0x0 C:/Users/oukeh/OneDrive/桌面/code-mod-example/code-mod-framework/lib/libnx_min/nx/lib\libnx_min.a(svc.o)
 .data          0x0000000000000000        0x0 C:/Users/oukeh/OneDrive/桌面/code-mod-example/code-mod-framework/lib/libnx_min/nx/lib\libnx_min.a(svc.o)
 .bss           0x0000000000000000        0x0 C:/Users/oukeh/OneDrive/桌面/code-mod-example/code-mod-framework/lib/libnx_min/nx/lib\libnx_min.a(svc.o)
 .debug_line    0x0000000000000000      0x92d C:/Users/oukeh/OneDrive/桌面/code-mod-example/code-mod-framework/lib/libnx_min/nx/lib\libnx_min.a(svc.o)
 .debug_info    0x0000000000000000       0x22 C:/Users/oukeh/OneDrive/桌面/code-mod-example/code-mod-framework/lib/libnx_min/nx/lib\libnx_min.a(svc.o)
 .debug_abbrev  0x0000000000000000       0x12 C:/Users/oukeh/OneDrive/桌面/code-mod-example/code-mod-framework/lib/libnx_min/nx/lib\libnx_min.a(svc.o)
 .debug_aranges
                0x0000000000000000      0x660 C:/Users/oukeh/OneDrive/桌面/code-mod-example/code-mod-framework/lib/libnx_min/nx/lib\libnx_min.a(svc.o)
 .debug_str     0x0000000000000000       0xb8 C:/Users/oukeh/OneDrive/桌面/code-mod-example/code-mod-framework/lib/libnx_min/nx/lib\libnx_min.a(svc.o)
 .debug_ranges  0x0000000000000000      0x660 C:/Users/oukeh/OneDrive/桌面/code-mod-example/code-mod-framework/lib/libnx_min/nx/lib\libnx_min.a(svc.o)
 .text          0x0000000000000000        0x0 C:/Users/oukeh/OneDrive/桌面/code-mod-example/code-mod-framework/lib/libnx_min/nx/lib\libnx_min.a(readtp.o)
 .data          0x0000000000000000        0x0 C:/Users/oukeh/OneDrive/桌面/code-mod-example/code-mod-framework/lib/libnx_min/nx/lib\libnx_min.a(readtp.o)
 .bss           0x0000000000000000        0x0 C:/Users/oukeh/OneDrive/桌面/code-mod-example/code-mod-framework/lib/libnx_min/nx/lib\libnx_min.a(readtp.o)
 .debug_line    0x0000000000000000       0x93 C:/Users/oukeh/OneDrive/桌面/code-mod-example/code-mod-framework/lib/libnx_min/nx/lib\libnx_min.a(readtp.o)
 .debug_info    0x0000000000000000       0x2e C:/Users/oukeh/OneDrive/桌面/code-mod-example/code-mod-framework/lib/libnx_min/nx/lib\libnx_min.a(readtp.o)
 .debug_abbrev  0x0000000000000000       0x14 C:/Users/oukeh/OneDrive/桌面/code-mod-example/code-mod-framework/lib/libnx_min/nx/lib\libnx_min.a(readtp.o)
 .debug_aranges
                0x0000000000000000       0x30 C:/Users/oukeh/OneDrive/桌面/code-mod-example/code-mod-framework/lib/libnx_min/nx/lib\libnx_min.a(readtp.o)
 .debug_str     0x0000000000000000       0xbc C:/Users/oukeh/OneDrive/桌面/code-mod-example/code-mod-framework/lib/libnx_min/nx/lib\libnx_min.a(readtp.o)
 .text          0x0000000000000000        0x0 C:/Users/oukeh/OneDrive/桌面/code-mod-example/code-mod-framework/lib/libnx_min/nx/lib\libnx_min.a(virtmem.o)
 .data          0x0000000000000000        0x0 C:/Users/oukeh/OneDrive/桌面/code-mod-example/code-mod-framework/lib/libnx_min/nx/lib\libnx_min.a(virtmem.o)
 .bss           0x0000000000000000        0x0 C:/Users/oukeh/OneDrive/桌面/code-mod-example/code-mod-framework/lib/libnx_min/nx/lib\libnx_min.a(virtmem.o)
 .debug_info    0x0000000000000000      0xb52 C:/Users/oukeh/OneDrive/桌面/code-mod-example/code-mod-framework/lib/libnx_min/nx/lib\libnx_min.a(virtmem.o)
 .debug_abbrev  0x0000000000000000      0x2cf C:/Users/oukeh/OneDrive/桌面/code-mod-example/code-mod-framework/lib/libnx_min/nx/lib\libnx_min.a(virtmem.o)
 .debug_loc     0x0000000000000000      0x668 C:/Users/oukeh/OneDrive/桌面/code-mod-example/code-mod-framework/lib/libnx_min/nx/lib\libnx_min.a(virtmem.o)
 .debug_aranges
                0x0000000000000000       0x70 C:/Users/oukeh/OneDrive/桌面/code-mod-example/code-mod-framework/lib/libnx_min/nx/lib\libnx_min.a(virtmem.o)
 .debug_ranges  0x0000000000000000      0x170 C:/Users/oukeh/OneDrive/桌面/code-mod-example/code-mod-framework/lib/libnx_min/nx/lib\libnx_min.a(virtmem.o)
 .debug_line    0x0000000000000000      0x60f C:/Users/oukeh/OneDrive/桌面/code-mod-example/code-mod-framework/lib/libnx_min/nx/lib\libnx_min.a(virtmem.o)
 .debug_str     0x0000000000000000      0xbfa C:/Users/oukeh/OneDrive/桌面/code-mod-example/code-mod-framework/lib/libnx_min/nx/lib\libnx_min.a(virtmem.o)
 .comment       0x0000000000000000       0x23 C:/Users/oukeh/OneDrive/桌面/code-mod-example/code-mod-framework/lib/libnx_min/nx/lib\libnx_min.a(virtmem.o)
 .text          0x0000000000000000        0x0 C:/Users/oukeh/OneDrive/桌面/code-mod-example/code-mod-framework/lib/libnx_min/nx/lib\libnx_min.a(mutex.o)
 .data          0x0000000000000000        0x0 C:/Users/oukeh/OneDrive/桌面/code-mod-example/code-mod-framework/lib/libnx_min/nx/lib\libnx_min.a(mutex.o)
 .bss           0x0000000000000000        0x0 C:/Users/oukeh/OneDrive/桌面/code-mod-example/code-mod-framework/lib/libnx_min/nx/lib\libnx_min.a(mutex.o)
 .debug_info    0x0000000000000000      0x782 C:/Users/oukeh/OneDrive/桌面/code-mod-example/code-mod-framework/lib/libnx_min/nx/lib\libnx_min.a(mutex.o)
 .debug_abbrev  0x0000000000000000      0x1fe C:/Users/oukeh/OneDrive/桌面/code-mod-example/code-mod-framework/lib/libnx_min/nx/lib\libnx_min.a(mutex.o)
 .debug_loc     0x0000000000000000      0x3d1 C:/Users/oukeh/OneDrive/桌面/code-mod-example/code-mod-framework/lib/libnx_min/nx/lib\libnx_min.a(mutex.o)
 .debug_aranges
                0x0000000000000000       0x80 C:/Users/oukeh/OneDrive/桌面/code-mod-example/code-mod-framework/lib/libnx_min/nx/lib\libnx_min.a(mutex.o)
 .debug_ranges  0x0000000000000000      0x470 C:/Users/oukeh/OneDrive/桌面/code-mod-example/code-mod-framework/lib/libnx_min/nx/lib\libnx_min.a(mutex.o)
 .debug_line    0x0000000000000000      0x5e6 C:/Users/oukeh/OneDrive/桌面/code-mod-example/code-mod-framework/lib/libnx_min/nx/lib\libnx_min.a(mutex.o)
 .debug_str     0x0000000000000000      0x3a4 C:/Users/oukeh/OneDrive/桌面/code-mod-example/code-mod-framework/lib/libnx_min/nx/lib\libnx_min.a(mutex.o)
 .comment       0x0000000000000000       0x23 C:/Users/oukeh/OneDrive/桌面/code-mod-example/code-mod-framework/lib/libnx_min/nx/lib\libnx_min.a(mutex.o)
 .text          0x0000000000000000        0x0 C:/Users/oukeh/OneDrive/桌面/code-mod-example/code-mod-framework/lib/libnx_min/nx/lib\libnx_min.a(fs.o)
 .data          0x0000000000000000        0x0 C:/Users/oukeh/OneDrive/桌面/code-mod-example/code-mod-framework/lib/libnx_min/nx/lib\libnx_min.a(fs.o)
 .bss           0x0000000000000000        0x0 C:/Users/oukeh/OneDrive/桌面/code-mod-example/code-mod-framework/lib/libnx_min/nx/lib\libnx_min.a(fs.o)
 .debug_info    0x0000000000000000    0x148db C:/Users/oukeh/OneDrive/桌面/code-mod-example/code-mod-framework/lib/libnx_min/nx/lib\libnx_min.a(fs.o)
 .debug_abbrev  0x0000000000000000      0x6cd C:/Users/oukeh/OneDrive/桌面/code-mod-example/code-mod-framework/lib/libnx_min/nx/lib\libnx_min.a(fs.o)
 .debug_loc     0x0000000000000000    0x23e9b C:/Users/oukeh/OneDrive/桌面/code-mod-example/code-mod-framework/lib/libnx_min/nx/lib\libnx_min.a(fs.o)
 .debug_aranges
                0x0000000000000000      0x4a0 C:/Users/oukeh/OneDrive/桌面/code-mod-example/code-mod-framework/lib/libnx_min/nx/lib\libnx_min.a(fs.o)
 .debug_ranges  0x0000000000000000     0xb5b0 C:/Users/oukeh/OneDrive/桌面/code-mod-example/code-mod-framework/lib/libnx_min/nx/lib\libnx_min.a(fs.o)
 .debug_line    0x0000000000000000     0xb1b2 C:/Users/oukeh/OneDrive/桌面/code-mod-example/code-mod-framework/lib/libnx_min/nx/lib\libnx_min.a(fs.o)
 .debug_str     0x0000000000000000     0x23e6 C:/Users/oukeh/OneDrive/桌面/code-mod-example/code-mod-framework/lib/libnx_min/nx/lib\libnx_min.a(fs.o)
 .comment       0x0000000000000000       0x23 C:/Users/oukeh/OneDrive/桌面/code-mod-example/code-mod-framework/lib/libnx_min/nx/lib\libnx_min.a(fs.o)
 .text          0x0000000000000000        0x0 C:/Users/oukeh/OneDrive/桌面/code-mod-example/code-mod-framework/lib/libnx_min/nx/lib\libnx_min.a(set.o)
 .data          0x0000000000000000        0x0 C:/Users/oukeh/OneDrive/桌面/code-mod-example/code-mod-framework/lib/libnx_min/nx/lib\libnx_min.a(set.o)
 .bss           0x0000000000000000        0x0 C:/Users/oukeh/OneDrive/桌面/code-mod-example/code-mod-framework/lib/libnx_min/nx/lib\libnx_min.a(set.o)
 .debug_info    0x0000000000000000     0x692b C:/Users/oukeh/OneDrive/桌面/code-mod-example/code-mod-framework/lib/libnx_min/nx/lib\libnx_min.a(set.o)
 .debug_abbrev  0x0000000000000000      0x5eb C:/Users/oukeh/OneDrive/桌面/code-mod-example/code-mod-framework/lib/libnx_min/nx/lib\libnx_min.a(set.o)
 .debug_loc     0x0000000000000000     0xc88f C:/Users/oukeh/OneDrive/桌面/code-mod-example/code-mod-framework/lib/libnx_min/nx/lib\libnx_min.a(set.o)
 .debug_aranges
                0x0000000000000000      0x1d0 C:/Users/oukeh/OneDrive/桌面/code-mod-example/code-mod-framework/lib/libnx_min/nx/lib\libnx_min.a(set.o)
 .debug_ranges  0x0000000000000000     0x25f0 C:/Users/oukeh/OneDrive/桌面/code-mod-example/code-mod-framework/lib/libnx_min/nx/lib\libnx_min.a(set.o)
 .debug_line    0x0000000000000000     0x3101 C:/Users/oukeh/OneDrive/桌面/code-mod-example/code-mod-framework/lib/libnx_min/nx/lib\libnx_min.a(set.o)
 .debug_str     0x0000000000000000     0x1b23 C:/Users/oukeh/OneDrive/桌面/code-mod-example/code-mod-framework/lib/libnx_min/nx/lib\libnx_min.a(set.o)
 .comment       0x0000000000000000       0x23 C:/Users/oukeh/OneDrive/桌面/code-mod-example/code-mod-framework/lib/libnx_min/nx/lib\libnx_min.a(set.o)
 .text          0x0000000000000000        0x0 C:/Users/oukeh/OneDrive/桌面/code-mod-example/code-mod-framework/lib/libnx_min/nx/lib\libnx_min.a(fatal.o)
 .data          0x0000000000000000        0x0 C:/Users/oukeh/OneDrive/桌面/code-mod-example/code-mod-framework/lib/libnx_min/nx/lib\libnx_min.a(fatal.o)
 .bss           0x0000000000000000        0x0 C:/Users/oukeh/OneDrive/桌面/code-mod-example/code-mod-framework/lib/libnx_min/nx/lib\libnx_min.a(fatal.o)
 .debug_info    0x0000000000000000      0xd6e C:/Users/oukeh/OneDrive/桌面/code-mod-example/code-mod-framework/lib/libnx_min/nx/lib\libnx_min.a(fatal.o)
 .debug_abbrev  0x0000000000000000      0x393 C:/Users/oukeh/OneDrive/桌面/code-mod-example/code-mod-framework/lib/libnx_min/nx/lib\libnx_min.a(fatal.o)
 .debug_loc     0x0000000000000000      0x895 C:/Users/oukeh/OneDrive/桌面/code-mod-example/code-mod-framework/lib/libnx_min/nx/lib\libnx_min.a(fatal.o)
 .debug_aranges
                0x0000000000000000       0x60 C:/Users/oukeh/OneDrive/桌面/code-mod-example/code-mod-framework/lib/libnx_min/nx/lib\libnx_min.a(fatal.o)
 .debug_ranges  0x0000000000000000      0x240 C:/Users/oukeh/OneDrive/桌面/code-mod-example/code-mod-framework/lib/libnx_min/nx/lib\libnx_min.a(fatal.o)
 .debug_line    0x0000000000000000      0x5c9 C:/Users/oukeh/OneDrive/桌面/code-mod-example/code-mod-framework/lib/libnx_min/nx/lib\libnx_min.a(fatal.o)
 .debug_str     0x0000000000000000      0x763 C:/Users/oukeh/OneDrive/桌面/code-mod-example/code-mod-framework/lib/libnx_min/nx/lib\libnx_min.a(fatal.o)
 .comment       0x0000000000000000       0x23 C:/Users/oukeh/OneDrive/桌面/code-mod-example/code-mod-framework/lib/libnx_min/nx/lib\libnx_min.a(fatal.o)
 .text          0x0000000000000000        0x0 C:/Users/oukeh/OneDrive/桌面/code-mod-example/code-mod-framework/lib/libnx_min/nx/lib\libnx_min.a(sm.o)
 .data          0x0000000000000000        0x0 C:/Users/oukeh/OneDrive/桌面/code-mod-example/code-mod-framework/lib/libnx_min/nx/lib\libnx_min.a(sm.o)
 .bss           0x0000000000000000        0x0 C:/Users/oukeh/OneDrive/桌面/code-mod-example/code-mod-framework/lib/libnx_min/nx/lib\libnx_min.a(sm.o)
 .debug_info    0x0000000000000000     0x34eb C:/Users/oukeh/OneDrive/桌面/code-mod-example/code-mod-framework/lib/libnx_min/nx/lib\libnx_min.a(sm.o)
 .debug_abbrev  0x0000000000000000      0x4c4 C:/Users/oukeh/OneDrive/桌面/code-mod-example/code-mod-framework/lib/libnx_min/nx/lib\libnx_min.a(sm.o)
 .debug_loc     0x0000000000000000     0x5a55 C:/Users/oukeh/OneDrive/桌面/code-mod-example/code-mod-framework/lib/libnx_min/nx/lib\libnx_min.a(sm.o)
 .debug_aranges
                0x0000000000000000       0xe0 C:/Users/oukeh/OneDrive/桌面/code-mod-example/code-mod-framework/lib/libnx_min/nx/lib\libnx_min.a(sm.o)
 .debug_ranges  0x0000000000000000     0x1160 C:/Users/oukeh/OneDrive/桌面/code-mod-example/code-mod-framework/lib/libnx_min/nx/lib\libnx_min.a(sm.o)
 .debug_line    0x0000000000000000     0x175a C:/Users/oukeh/OneDrive/桌面/code-mod-example/code-mod-framework/lib/libnx_min/nx/lib\libnx_min.a(sm.o)
 .debug_str     0x0000000000000000     0x150b C:/Users/oukeh/OneDrive/桌面/code-mod-example/code-mod-framework/lib/libnx_min/nx/lib\libnx_min.a(sm.o)
 .comment       0x0000000000000000       0x23 C:/Users/oukeh/OneDrive/桌面/code-mod-example/code-mod-framework/lib/libnx_min/nx/lib\libnx_min.a(sm.o)
 .text          0x0000000000000000        0x0 C:/Users/oukeh/OneDrive/桌面/code-mod-example/code-mod-framework/lib/libnx_min/nx/lib\libnx_min.a(hid.o)
 .data          0x0000000000000000        0x0 C:/Users/oukeh/OneDrive/桌面/code-mod-example/code-mod-framework/lib/libnx_min/nx/lib\libnx_min.a(hid.o)
 .bss           0x0000000000000000        0x0 C:/Users/oukeh/OneDrive/桌面/code-mod-example/code-mod-framework/lib/libnx_min/nx/lib\libnx_min.a(hid.o)
 .debug_info    0x0000000000000000     0xb19f C:/Users/oukeh/OneDrive/桌面/code-mod-example/code-mod-framework/lib/libnx_min/nx/lib\libnx_min.a(hid.o)
 .debug_abbrev  0x0000000000000000      0x743 C:/Users/oukeh/OneDrive/桌面/code-mod-example/code-mod-framework/lib/libnx_min/nx/lib\libnx_min.a(hid.o)
 .debug_loc     0x0000000000000000    0x1192e C:/Users/oukeh/OneDrive/桌面/code-mod-example/code-mod-framework/lib/libnx_min/nx/lib\libnx_min.a(hid.o)
 .debug_aranges
                0x0000000000000000      0x450 C:/Users/oukeh/OneDrive/桌面/code-mod-example/code-mod-framework/lib/libnx_min/nx/lib\libnx_min.a(hid.o)
 .debug_ranges  0x0000000000000000     0x3140 C:/Users/oukeh/OneDrive/桌面/code-mod-example/code-mod-framework/lib/libnx_min/nx/lib\libnx_min.a(hid.o)
 .debug_line    0x0000000000000000     0x5037 C:/Users/oukeh/OneDrive/桌面/code-mod-example/code-mod-framework/lib/libnx_min/nx/lib\libnx_min.a(hid.o)
 .debug_str     0x0000000000000000     0x338c C:/Users/oukeh/OneDrive/桌面/code-mod-example/code-mod-framework/lib/libnx_min/nx/lib\libnx_min.a(hid.o)
 .comment       0x0000000000000000       0x23 C:/Users/oukeh/OneDrive/桌面/code-mod-example/code-mod-framework/lib/libnx_min/nx/lib\libnx_min.a(hid.o)
 .text          0x0000000000000000        0x0 C:/Users/oukeh/OneDrive/桌面/code-mod-example/code-mod-framework/lib/libnx_min/nx/lib\libnx_min.a(time.o)
 .data          0x0000000000000000        0x0 C:/Users/oukeh/OneDrive/桌面/code-mod-example/code-mod-framework/lib/libnx_min/nx/lib\libnx_min.a(time.o)
 .bss           0x0000000000000000        0x0 C:/Users/oukeh/OneDrive/桌面/code-mod-example/code-mod-framework/lib/libnx_min/nx/lib\libnx_min.a(time.o)
 .debug_info    0x0000000000000000     0x2f93 C:/Users/oukeh/OneDrive/桌面/code-mod-example/code-mod-framework/lib/libnx_min/nx/lib\libnx_min.a(time.o)
 .debug_abbrev  0x0000000000000000      0x544 C:/Users/oukeh/OneDrive/桌面/code-mod-example/code-mod-framework/lib/libnx_min/nx/lib\libnx_min.a(time.o)
 .debug_loc     0x0000000000000000     0x36b5 C:/Users/oukeh/OneDrive/桌面/code-mod-example/code-mod-framework/lib/libnx_min/nx/lib\libnx_min.a(time.o)
 .debug_aranges
                0x0000000000000000       0xa0 C:/Users/oukeh/OneDrive/桌面/code-mod-example/code-mod-framework/lib/libnx_min/nx/lib\libnx_min.a(time.o)
 .debug_ranges  0x0000000000000000      0xa70 C:/Users/oukeh/OneDrive/桌面/code-mod-example/code-mod-framework/lib/libnx_min/nx/lib\libnx_min.a(time.o)
 .debug_line    0x0000000000000000     0x10ba C:/Users/oukeh/OneDrive/桌面/code-mod-example/code-mod-framework/lib/libnx_min/nx/lib\libnx_min.a(time.o)
 .debug_str     0x0000000000000000     0x151b C:/Users/oukeh/OneDrive/桌面/code-mod-example/code-mod-framework/lib/libnx_min/nx/lib\libnx_min.a(time.o)
 .comment       0x0000000000000000       0x23 C:/Users/oukeh/OneDrive/桌面/code-mod-example/code-mod-framework/lib/libnx_min/nx/lib\libnx_min.a(time.o)
 .text          0x0000000000000000        0x0 C:/Users/oukeh/OneDrive/桌面/code-mod-example/code-mod-framework/lib/libnx_min/nx/lib\libnx_min.a(applet.o)
 .data          0x0000000000000000        0x0 C:/Users/oukeh/OneDrive/桌面/code-mod-example/code-mod-framework/lib/libnx_min/nx/lib\libnx_min.a(applet.o)
 .bss           0x0000000000000000        0x0 C:/Users/oukeh/OneDrive/桌面/code-mod-example/code-mod-framework/lib/libnx_min/nx/lib\libnx_min.a(applet.o)
 .data.__nx_applet_type
                0x0000000000000000        0x4 C:/Users/oukeh/OneDrive/桌面/code-mod-example/code-mod-framework/lib/libnx_min/nx/lib\libnx_min.a(applet.o)
 .debug_info    0x0000000000000000    0x1572b C:/Users/oukeh/OneDrive/桌面/code-mod-example/code-mod-framework/lib/libnx_min/nx/lib\libnx_min.a(applet.o)
 .debug_abbrev  0x0000000000000000      0x76e C:/Users/oukeh/OneDrive/桌面/code-mod-example/code-mod-framework/lib/libnx_min/nx/lib\libnx_min.a(applet.o)
 .debug_loc     0x0000000000000000    0x20f04 C:/Users/oukeh/OneDrive/桌面/code-mod-example/code-mod-framework/lib/libnx_min/nx/lib\libnx_min.a(applet.o)
 .debug_aranges
                0x0000000000000000      0x730 C:/Users/oukeh/OneDrive/桌面/code-mod-example/code-mod-framework/lib/libnx_min/nx/lib\libnx_min.a(applet.o)
 .debug_ranges  0x0000000000000000     0x8b40 C:/Users/oukeh/OneDrive/桌面/code-mod-example/code-mod-framework/lib/libnx_min/nx/lib\libnx_min.a(applet.o)
 .debug_line    0x0000000000000000     0xadb0 C:/Users/oukeh/OneDrive/桌面/code-mod-example/code-mod-framework/lib/libnx_min/nx/lib\libnx_min.a(applet.o)
 .debug_str     0x0000000000000000     0x30c0 C:/Users/oukeh/OneDrive/桌面/code-mod-example/code-mod-framework/lib/libnx_min/nx/lib\libnx_min.a(applet.o)
 .comment       0x0000000000000000       0x23 C:/Users/oukeh/OneDrive/桌面/code-mod-example/code-mod-framework/lib/libnx_min/nx/lib\libnx_min.a(applet.o)
 .text          0x0000000000000000        0x0 C:/Users/oukeh/OneDrive/桌面/code-mod-example/code-mod-framework/lib/libnx_min/nx/lib\libnx_min.a(newlib.o)
 .data          0x0000000000000000        0x0 C:/Users/oukeh/OneDrive/桌面/code-mod-example/code-mod-framework/lib/libnx_min/nx/lib\libnx_min.a(newlib.o)
 .bss           0x0000000000000000        0x0 C:/Users/oukeh/OneDrive/桌面/code-mod-example/code-mod-framework/lib/libnx_min/nx/lib\libnx_min.a(newlib.o)
 .debug_info    0x0000000000000000     0x2bc2 C:/Users/oukeh/OneDrive/桌面/code-mod-example/code-mod-framework/lib/libnx_min/nx/lib\libnx_min.a(newlib.o)
 .debug_abbrev  0x0000000000000000      0x571 C:/Users/oukeh/OneDrive/桌面/code-mod-example/code-mod-framework/lib/libnx_min/nx/lib\libnx_min.a(newlib.o)
 .debug_loc     0x0000000000000000     0x192e C:/Users/oukeh/OneDrive/桌面/code-mod-example/code-mod-framework/lib/libnx_min/nx/lib\libnx_min.a(newlib.o)
 .debug_aranges
                0x0000000000000000      0x1f0 C:/Users/oukeh/OneDrive/桌面/code-mod-example/code-mod-framework/lib/libnx_min/nx/lib\libnx_min.a(newlib.o)
 .debug_ranges  0x0000000000000000      0x4e0 C:/Users/oukeh/OneDrive/桌面/code-mod-example/code-mod-framework/lib/libnx_min/nx/lib\libnx_min.a(newlib.o)
 .debug_line    0x0000000000000000     0x10e9 C:/Users/oukeh/OneDrive/桌面/code-mod-example/code-mod-framework/lib/libnx_min/nx/lib\libnx_min.a(newlib.o)
 .debug_str     0x0000000000000000     0x18ae C:/Users/oukeh/OneDrive/桌面/code-mod-example/code-mod-framework/lib/libnx_min/nx/lib\libnx_min.a(newlib.o)
 .comment       0x0000000000000000       0x23 C:/Users/oukeh/OneDrive/桌面/code-mod-example/code-mod-framework/lib/libnx_min/nx/lib\libnx_min.a(newlib.o)
 .text          0x0000000000000000        0x0 C:/Users/oukeh/OneDrive/桌面/code-mod-example/code-mod-framework/lib/libnx_min/nx/lib\libnx_min.a(thread.o)
 .data          0x0000000000000000        0x0 C:/Users/oukeh/OneDrive/桌面/code-mod-example/code-mod-framework/lib/libnx_min/nx/lib\libnx_min.a(thread.o)
 .bss           0x0000000000000000        0x0 C:/Users/oukeh/OneDrive/桌面/code-mod-example/code-mod-framework/lib/libnx_min/nx/lib\libnx_min.a(thread.o)
 .debug_info    0x0000000000000000     0x1a68 C:/Users/oukeh/OneDrive/桌面/code-mod-example/code-mod-framework/lib/libnx_min/nx/lib\libnx_min.a(thread.o)
 .debug_abbrev  0x0000000000000000      0x492 C:/Users/oukeh/OneDrive/桌面/code-mod-example/code-mod-framework/lib/libnx_min/nx/lib\libnx_min.a(thread.o)
 .debug_loc     0x0000000000000000      0xbd2 C:/Users/oukeh/OneDrive/桌面/code-mod-example/code-mod-framework/lib/libnx_min/nx/lib\libnx_min.a(thread.o)
 .debug_aranges
                0x0000000000000000      0x100 C:/Users/oukeh/OneDrive/桌面/code-mod-example/code-mod-framework/lib/libnx_min/nx/lib\libnx_min.a(thread.o)
 .debug_ranges  0x0000000000000000      0x320 C:/Users/oukeh/OneDrive/桌面/code-mod-example/code-mod-framework/lib/libnx_min/nx/lib\libnx_min.a(thread.o)
 .debug_line    0x0000000000000000      0xa2c C:/Users/oukeh/OneDrive/桌面/code-mod-example/code-mod-framework/lib/libnx_min/nx/lib\libnx_min.a(thread.o)
 .debug_str     0x0000000000000000      0xfee C:/Users/oukeh/OneDrive/桌面/code-mod-example/code-mod-framework/lib/libnx_min/nx/lib\libnx_min.a(thread.o)
 .comment       0x0000000000000000       0x23 C:/Users/oukeh/OneDrive/桌面/code-mod-example/code-mod-framework/lib/libnx_min/nx/lib\libnx_min.a(thread.o)
 .text          0x0000000000000000        0x0 C:/Users/oukeh/OneDrive/桌面/code-mod-example/code-mod-framework/lib/libnx_min/nx/lib\libnx_min.a(condvar.o)
 .data          0x0000000000000000        0x0 C:/Users/oukeh/OneDrive/桌面/code-mod-example/code-mod-framework/lib/libnx_min/nx/lib\libnx_min.a(condvar.o)
 .bss           0x0000000000000000        0x0 C:/Users/oukeh/OneDrive/桌面/code-mod-example/code-mod-framework/lib/libnx_min/nx/lib\libnx_min.a(condvar.o)
 .debug_info    0x0000000000000000      0x396 C:/Users/oukeh/OneDrive/桌面/code-mod-example/code-mod-framework/lib/libnx_min/nx/lib\libnx_min.a(condvar.o)
 .debug_abbrev  0x0000000000000000      0x1aa C:/Users/oukeh/OneDrive/桌面/code-mod-example/code-mod-framework/lib/libnx_min/nx/lib\libnx_min.a(condvar.o)
 .debug_loc     0x0000000000000000      0x1c1 C:/Users/oukeh/OneDrive/桌面/code-mod-example/code-mod-framework/lib/libnx_min/nx/lib\libnx_min.a(condvar.o)
 .debug_aranges
                0x0000000000000000       0x30 C:/Users/oukeh/OneDrive/桌面/code-mod-example/code-mod-framework/lib/libnx_min/nx/lib\libnx_min.a(condvar.o)
 .debug_ranges  0x0000000000000000       0x60 C:/Users/oukeh/OneDrive/桌面/code-mod-example/code-mod-framework/lib/libnx_min/nx/lib\libnx_min.a(condvar.o)
 .debug_line    0x0000000000000000      0x398 C:/Users/oukeh/OneDrive/桌面/code-mod-example/code-mod-framework/lib/libnx_min/nx/lib\libnx_min.a(condvar.o)
 .debug_str     0x0000000000000000      0x350 C:/Users/oukeh/OneDrive/桌面/code-mod-example/code-mod-framework/lib/libnx_min/nx/lib\libnx_min.a(condvar.o)
 .comment       0x0000000000000000       0x23 C:/Users/oukeh/OneDrive/桌面/code-mod-example/code-mod-framework/lib/libnx_min/nx/lib\libnx_min.a(condvar.o)
 .text          0x0000000000000000        0x0 C:/Users/oukeh/OneDrive/桌面/code-mod-example/code-mod-framework/lib/libnx_min/nx/lib\libnx_min.a(event.o)
 .data          0x0000000000000000        0x0 C:/Users/oukeh/OneDrive/桌面/code-mod-example/code-mod-framework/lib/libnx_min/nx/lib\libnx_min.a(event.o)
 .bss           0x0000000000000000        0x0 C:/Users/oukeh/OneDrive/桌面/code-mod-example/code-mod-framework/lib/libnx_min/nx/lib\libnx_min.a(event.o)
 .debug_info    0x0000000000000000      0x702 C:/Users/oukeh/OneDrive/桌面/code-mod-example/code-mod-framework/lib/libnx_min/nx/lib\libnx_min.a(event.o)
 .debug_abbrev  0x0000000000000000      0x28b C:/Users/oukeh/OneDrive/桌面/code-mod-example/code-mod-framework/lib/libnx_min/nx/lib\libnx_min.a(event.o)
 .debug_loc     0x0000000000000000      0x2e3 C:/Users/oukeh/OneDrive/桌面/code-mod-example/code-mod-framework/lib/libnx_min/nx/lib\libnx_min.a(event.o)
 .debug_aranges
                0x0000000000000000       0x80 C:/Users/oukeh/OneDrive/桌面/code-mod-example/code-mod-framework/lib/libnx_min/nx/lib\libnx_min.a(event.o)
 .debug_ranges  0x0000000000000000       0xe0 C:/Users/oukeh/OneDrive/桌面/code-mod-example/code-mod-framework/lib/libnx_min/nx/lib\libnx_min.a(event.o)
 .debug_line    0x0000000000000000      0x3a9 C:/Users/oukeh/OneDrive/桌面/code-mod-example/code-mod-framework/lib/libnx_min/nx/lib\libnx_min.a(event.o)
 .debug_str     0x0000000000000000      0x950 C:/Users/oukeh/OneDrive/桌面/code-mod-example/code-mod-framework/lib/libnx_min/nx/lib\libnx_min.a(event.o)
 .comment       0x0000000000000000       0x23 C:/Users/oukeh/OneDrive/桌面/code-mod-example/code-mod-framework/lib/libnx_min/nx/lib\libnx_min.a(event.o)
 .text          0x0000000000000000        0x0 C:/Users/oukeh/OneDrive/桌面/code-mod-example/code-mod-framework/lib/libnx_min/nx/lib\libnx_min.a(tmem.o)
 .data          0x0000000000000000        0x0 C:/Users/oukeh/OneDrive/桌面/code-mod-example/code-mod-framework/lib/libnx_min/nx/lib\libnx_min.a(tmem.o)
 .bss           0x0000000000000000        0x0 C:/Users/oukeh/OneDrive/桌面/code-mod-example/code-mod-framework/lib/libnx_min/nx/lib\libnx_min.a(tmem.o)
 .debug_info    0x0000000000000000     0x100a C:/Users/oukeh/OneDrive/桌面/code-mod-example/code-mod-framework/lib/libnx_min/nx/lib\libnx_min.a(tmem.o)
 .debug_abbrev  0x0000000000000000      0x3a2 C:/Users/oukeh/OneDrive/桌面/code-mod-example/code-mod-framework/lib/libnx_min/nx/lib\libnx_min.a(tmem.o)
 .debug_loc     0x0000000000000000      0x6e2 C:/Users/oukeh/OneDrive/桌面/code-mod-example/code-mod-framework/lib/libnx_min/nx/lib\libnx_min.a(tmem.o)
 .debug_aranges
                0x0000000000000000       0x80 C:/Users/oukeh/OneDrive/桌面/code-mod-example/code-mod-framework/lib/libnx_min/nx/lib\libnx_min.a(tmem.o)
 .debug_ranges  0x0000000000000000       0xf0 C:/Users/oukeh/OneDrive/桌面/code-mod-example/code-mod-framework/lib/libnx_min/nx/lib\libnx_min.a(tmem.o)
 .debug_line    0x0000000000000000      0x507 C:/Users/oukeh/OneDrive/桌面/code-mod-example/code-mod-framework/lib/libnx_min/nx/lib\libnx_min.a(tmem.o)
 .debug_str     0x0000000000000000      0xd4f C:/Users/oukeh/OneDrive/桌面/code-mod-example/code-mod-framework/lib/libnx_min/nx/lib\libnx_min.a(tmem.o)
 .comment       0x0000000000000000       0x23 C:/Users/oukeh/OneDrive/桌面/code-mod-example/code-mod-framework/lib/libnx_min/nx/lib\libnx_min.a(tmem.o)
 .text          0x0000000000000000        0x0 C:/Users/oukeh/OneDrive/桌面/code-mod-example/code-mod-framework/lib/libnx_min/nx/lib\libnx_min.a(rwlock.o)
 .data          0x0000000000000000        0x0 C:/Users/oukeh/OneDrive/桌面/code-mod-example/code-mod-framework/lib/libnx_min/nx/lib\libnx_min.a(rwlock.o)
 .bss           0x0000000000000000        0x0 C:/Users/oukeh/OneDrive/桌面/code-mod-example/code-mod-framework/lib/libnx_min/nx/lib\libnx_min.a(rwlock.o)
 .debug_info    0x0000000000000000      0x659 C:/Users/oukeh/OneDrive/桌面/code-mod-example/code-mod-framework/lib/libnx_min/nx/lib\libnx_min.a(rwlock.o)
 .debug_abbrev  0x0000000000000000      0x1cc C:/Users/oukeh/OneDrive/桌面/code-mod-example/code-mod-framework/lib/libnx_min/nx/lib\libnx_min.a(rwlock.o)
 .debug_loc     0x0000000000000000      0x4ab C:/Users/oukeh/OneDrive/桌面/code-mod-example/code-mod-framework/lib/libnx_min/nx/lib\libnx_min.a(rwlock.o)
 .debug_aranges
                0x0000000000000000       0x70 C:/Users/oukeh/OneDrive/桌面/code-mod-example/code-mod-framework/lib/libnx_min/nx/lib\libnx_min.a(rwlock.o)
 .debug_ranges  0x0000000000000000      0x130 C:/Users/oukeh/OneDrive/桌面/code-mod-example/code-mod-framework/lib/libnx_min/nx/lib\libnx_min.a(rwlock.o)
 .debug_line    0x0000000000000000      0x3eb C:/Users/oukeh/OneDrive/桌面/code-mod-example/code-mod-framework/lib/libnx_min/nx/lib\libnx_min.a(rwlock.o)
 .debug_str     0x0000000000000000      0x346 C:/Users/oukeh/OneDrive/桌面/code-mod-example/code-mod-framework/lib/libnx_min/nx/lib\libnx_min.a(rwlock.o)
 .comment       0x0000000000000000       0x23 C:/Users/oukeh/OneDrive/桌面/code-mod-example/code-mod-framework/lib/libnx_min/nx/lib\libnx_min.a(rwlock.o)
 .text          0x0000000000000000        0x0 C:/Users/oukeh/OneDrive/桌面/code-mod-example/code-mod-framework/lib/libnx_min/nx/lib\libnx_min.a(wait.o)
 .data          0x0000000000000000        0x0 C:/Users/oukeh/OneDrive/桌面/code-mod-example/code-mod-framework/lib/libnx_min/nx/lib\libnx_min.a(wait.o)
 .bss           0x0000000000000000        0x0 C:/Users/oukeh/OneDrive/桌面/code-mod-example/code-mod-framework/lib/libnx_min/nx/lib\libnx_min.a(wait.o)
 .debug_info    0x0000000000000000      0xe46 C:/Users/oukeh/OneDrive/桌面/code-mod-example/code-mod-framework/lib/libnx_min/nx/lib\libnx_min.a(wait.o)
 .debug_abbrev  0x0000000000000000      0x35d C:/Users/oukeh/OneDrive/桌面/code-mod-example/code-mod-framework/lib/libnx_min/nx/lib\libnx_min.a(wait.o)
 .debug_loc     0x0000000000000000      0xeb6 C:/Users/oukeh/OneDrive/桌面/code-mod-example/code-mod-framework/lib/libnx_min/nx/lib\libnx_min.a(wait.o)
 .debug_aranges
                0x0000000000000000       0x60 C:/Users/oukeh/OneDrive/桌面/code-mod-example/code-mod-framework/lib/libnx_min/nx/lib\libnx_min.a(wait.o)
 .debug_ranges  0x0000000000000000      0x290 C:/Users/oukeh/OneDrive/桌面/code-mod-example/code-mod-framework/lib/libnx_min/nx/lib\libnx_min.a(wait.o)
 .debug_line    0x0000000000000000      0x7bb C:/Users/oukeh/OneDrive/桌面/code-mod-example/code-mod-framework/lib/libnx_min/nx/lib\libnx_min.a(wait.o)
 .debug_str     0x0000000000000000      0xa07 C:/Users/oukeh/OneDrive/桌面/code-mod-example/code-mod-framework/lib/libnx_min/nx/lib\libnx_min.a(wait.o)
 .comment       0x0000000000000000       0x23 C:/Users/oukeh/OneDrive/桌面/code-mod-example/code-mod-framework/lib/libnx_min/nx/lib\libnx_min.a(wait.o)
 .text          0x0000000000000000        0x0 C:/Users/oukeh/OneDrive/桌面/code-mod-example/code-mod-framework/lib/libnx_min/nx/lib\libnx_min.a(shmem.o)
 .data          0x0000000000000000        0x0 C:/Users/oukeh/OneDrive/桌面/code-mod-example/code-mod-framework/lib/libnx_min/nx/lib\libnx_min.a(shmem.o)
 .bss           0x0000000000000000        0x0 C:/Users/oukeh/OneDrive/桌面/code-mod-example/code-mod-framework/lib/libnx_min/nx/lib\libnx_min.a(shmem.o)
 .debug_info    0x0000000000000000      0xe91 C:/Users/oukeh/OneDrive/桌面/code-mod-example/code-mod-framework/lib/libnx_min/nx/lib\libnx_min.a(shmem.o)
 .debug_abbrev  0x0000000000000000      0x377 C:/Users/oukeh/OneDrive/桌面/code-mod-example/code-mod-framework/lib/libnx_min/nx/lib\libnx_min.a(shmem.o)
 .debug_loc     0x0000000000000000      0x442 C:/Users/oukeh/OneDrive/桌面/code-mod-example/code-mod-framework/lib/libnx_min/nx/lib\libnx_min.a(shmem.o)
 .debug_aranges
                0x0000000000000000       0x70 C:/Users/oukeh/OneDrive/桌面/code-mod-example/code-mod-framework/lib/libnx_min/nx/lib\libnx_min.a(shmem.o)
 .debug_ranges  0x0000000000000000       0xe0 C:/Users/oukeh/OneDrive/桌面/code-mod-example/code-mod-framework/lib/libnx_min/nx/lib\libnx_min.a(shmem.o)
 .debug_line    0x0000000000000000      0x401 C:/Users/oukeh/OneDrive/桌面/code-mod-example/code-mod-framework/lib/libnx_min/nx/lib\libnx_min.a(shmem.o)
 .debug_str     0x0000000000000000      0xc9a C:/Users/oukeh/OneDrive/桌面/code-mod-example/code-mod-framework/lib/libnx_min/nx/lib\libnx_min.a(shmem.o)
 .comment       0x0000000000000000       0x23 C:/Users/oukeh/OneDrive/桌面/code-mod-example/code-mod-framework/lib/libnx_min/nx/lib\libnx_min.a(shmem.o)
 .text          0x0000000000000000        0x0 C:/Users/oukeh/OneDrive/桌面/code-mod-example/code-mod-framework/lib/libnx_min/nx/lib\libnx_min.a(detect.o)
 .data          0x0000000000000000        0x0 C:/Users/oukeh/OneDrive/桌面/code-mod-example/code-mod-framework/lib/libnx_min/nx/lib\libnx_min.a(detect.o)
 .bss           0x0000000000000000        0x0 C:/Users/oukeh/OneDrive/桌面/code-mod-example/code-mod-framework/lib/libnx_min/nx/lib\libnx_min.a(detect.o)
 .debug_info    0x0000000000000000     0x103a C:/Users/oukeh/OneDrive/桌面/code-mod-example/code-mod-framework/lib/libnx_min/nx/lib\libnx_min.a(detect.o)
 .debug_abbrev  0x0000000000000000      0x31e C:/Users/oukeh/OneDrive/桌面/code-mod-example/code-mod-framework/lib/libnx_min/nx/lib\libnx_min.a(detect.o)
 .debug_loc     0x0000000000000000       0xb3 C:/Users/oukeh/OneDrive/桌面/code-mod-example/code-mod-framework/lib/libnx_min/nx/lib\libnx_min.a(detect.o)
 .debug_aranges
                0x0000000000000000       0x60 C:/Users/oukeh/OneDrive/桌面/code-mod-example/code-mod-framework/lib/libnx_min/nx/lib\libnx_min.a(detect.o)
 .debug_ranges  0x0000000000000000      0x130 C:/Users/oukeh/OneDrive/桌面/code-mod-example/code-mod-framework/lib/libnx_min/nx/lib\libnx_min.a(detect.o)
 .debug_line    0x0000000000000000      0x48e C:/Users/oukeh/OneDrive/桌面/code-mod-example/code-mod-framework/lib/libnx_min/nx/lib\libnx_min.a(detect.o)
 .debug_str     0x0000000000000000      0xea7 C:/Users/oukeh/OneDrive/桌面/code-mod-example/code-mod-framework/lib/libnx_min/nx/lib\libnx_min.a(detect.o)
 .comment       0x0000000000000000       0x23 C:/Users/oukeh/OneDrive/桌面/code-mod-example/code-mod-framework/lib/libnx_min/nx/lib\libnx_min.a(detect.o)
 .text          0x0000000000000000        0x0 C:/Users/oukeh/OneDrive/桌面/code-mod-example/code-mod-framework/lib/libnx_min/nx/lib\libnx_min.a(apm.o)
 .data          0x0000000000000000        0x0 C:/Users/oukeh/OneDrive/桌面/code-mod-example/code-mod-framework/lib/libnx_min/nx/lib\libnx_min.a(apm.o)
 .bss           0x0000000000000000        0x0 C:/Users/oukeh/OneDrive/桌面/code-mod-example/code-mod-framework/lib/libnx_min/nx/lib\libnx_min.a(apm.o)
 .debug_info    0x0000000000000000     0x1b13 C:/Users/oukeh/OneDrive/桌面/code-mod-example/code-mod-framework/lib/libnx_min/nx/lib\libnx_min.a(apm.o)
 .debug_abbrev  0x0000000000000000      0x442 C:/Users/oukeh/OneDrive/桌面/code-mod-example/code-mod-framework/lib/libnx_min/nx/lib\libnx_min.a(apm.o)
 .debug_loc     0x0000000000000000     0x239a C:/Users/oukeh/OneDrive/桌面/code-mod-example/code-mod-framework/lib/libnx_min/nx/lib\libnx_min.a(apm.o)
 .debug_aranges
                0x0000000000000000       0x80 C:/Users/oukeh/OneDrive/桌面/code-mod-example/code-mod-framework/lib/libnx_min/nx/lib\libnx_min.a(apm.o)
 .debug_ranges  0x0000000000000000      0x630 C:/Users/oukeh/OneDrive/桌面/code-mod-example/code-mod-framework/lib/libnx_min/nx/lib\libnx_min.a(apm.o)
 .debug_line    0x0000000000000000      0xbdc C:/Users/oukeh/OneDrive/桌面/code-mod-example/code-mod-framework/lib/libnx_min/nx/lib\libnx_min.a(apm.o)
 .debug_str     0x0000000000000000      0xa22 C:/Users/oukeh/OneDrive/桌面/code-mod-example/code-mod-framework/lib/libnx_min/nx/lib\libnx_min.a(apm.o)
 .comment       0x0000000000000000       0x23 C:/Users/oukeh/OneDrive/桌面/code-mod-example/code-mod-framework/lib/libnx_min/nx/lib\libnx_min.a(apm.o)
 .text          0x0000000000000000        0x0 c:/devkitpro/devkita64/bin/../lib/gcc/aarch64-none-elf/9.2.0/../../../../aarch64-none-elf/lib/pic\libg.a(lib_a-bsearch.o)
 .data          0x0000000000000000        0x0 c:/devkitpro/devkita64/bin/../lib/gcc/aarch64-none-elf/9.2.0/../../../../aarch64-none-elf/lib/pic\libg.a(lib_a-bsearch.o)
 .bss           0x0000000000000000        0x0 c:/devkitpro/devkita64/bin/../lib/gcc/aarch64-none-elf/9.2.0/../../../../aarch64-none-elf/lib/pic\libg.a(lib_a-bsearch.o)
 .comment       0x0000000000000000       0x23 c:/devkitpro/devkita64/bin/../lib/gcc/aarch64-none-elf/9.2.0/../../../../aarch64-none-elf/lib/pic\libg.a(lib_a-bsearch.o)
 .text          0x0000000000000000        0x0 c:/devkitpro/devkita64/bin/../lib/gcc/aarch64-none-elf/9.2.0/../../../../aarch64-none-elf/lib/pic\libg.a(lib_a-ctype_.o)
 .data          0x0000000000000000        0x0 c:/devkitpro/devkita64/bin/../lib/gcc/aarch64-none-elf/9.2.0/../../../../aarch64-none-elf/lib/pic\libg.a(lib_a-ctype_.o)
 .bss           0x0000000000000000        0x0 c:/devkitpro/devkita64/bin/../lib/gcc/aarch64-none-elf/9.2.0/../../../../aarch64-none-elf/lib/pic\libg.a(lib_a-ctype_.o)
 .comment       0x0000000000000000       0x23 c:/devkitpro/devkita64/bin/../lib/gcc/aarch64-none-elf/9.2.0/../../../../aarch64-none-elf/lib/pic\libg.a(lib_a-ctype_.o)
 .text          0x0000000000000000        0x0 c:/devkitpro/devkita64/bin/../lib/gcc/aarch64-none-elf/9.2.0/../../../../aarch64-none-elf/lib/pic\libg.a(lib_a-errno.o)
 .data          0x0000000000000000        0x0 c:/devkitpro/devkita64/bin/../lib/gcc/aarch64-none-elf/9.2.0/../../../../aarch64-none-elf/lib/pic\libg.a(lib_a-errno.o)
 .bss           0x0000000000000000        0x0 c:/devkitpro/devkita64/bin/../lib/gcc/aarch64-none-elf/9.2.0/../../../../aarch64-none-elf/lib/pic\libg.a(lib_a-errno.o)
 .comment       0x0000000000000000       0x23 c:/devkitpro/devkita64/bin/../lib/gcc/aarch64-none-elf/9.2.0/../../../../aarch64-none-elf/lib/pic\libg.a(lib_a-errno.o)
 .text          0x0000000000000000        0x0 c:/devkitpro/devkita64/bin/../lib/gcc/aarch64-none-elf/9.2.0/../../../../aarch64-none-elf/lib/pic\libg.a(lib_a-exit.o)
 .data          0x0000000000000000        0x0 c:/devkitpro/devkita64/bin/../lib/gcc/aarch64-none-elf/9.2.0/../../../../aarch64-none-elf/lib/pic\libg.a(lib_a-exit.o)
 .bss           0x0000000000000000        0x0 c:/devkitpro/devkita64/bin/../lib/gcc/aarch64-none-elf/9.2.0/../../../../aarch64-none-elf/lib/pic\libg.a(lib_a-exit.o)
 .comment       0x0000000000000000       0x23 c:/devkitpro/devkita64/bin/../lib/gcc/aarch64-none-elf/9.2.0/../../../../aarch64-none-elf/lib/pic\libg.a(lib_a-exit.o)
 .text          0x0000000000000000        0x0 c:/devkitpro/devkita64/bin/../lib/gcc/aarch64-none-elf/9.2.0/../../../../aarch64-none-elf/lib/pic\libg.a(lib_a-fini.o)
 .data          0x0000000000000000        0x0 c:/devkitpro/devkita64/bin/../lib/gcc/aarch64-none-elf/9.2.0/../../../../aarch64-none-elf/lib/pic\libg.a(lib_a-fini.o)
 .bss           0x0000000000000000        0x0 c:/devkitpro/devkita64/bin/../lib/gcc/aarch64-none-elf/9.2.0/../../../../aarch64-none-elf/lib/pic\libg.a(lib_a-fini.o)
 .comment       0x0000000000000000       0x23 c:/devkitpro/devkita64/bin/../lib/gcc/aarch64-none-elf/9.2.0/../../../../aarch64-none-elf/lib/pic\libg.a(lib_a-fini.o)
 .text          0x0000000000000000        0x0 c:/devkitpro/devkita64/bin/../lib/gcc/aarch64-none-elf/9.2.0/../../../../aarch64-none-elf/lib/pic\libg.a(lib_a-impure.o)
 .data          0x0000000000000000        0x0 c:/devkitpro/devkita64/bin/../lib/gcc/aarch64-none-elf/9.2.0/../../../../aarch64-none-elf/lib/pic\libg.a(lib_a-impure.o)
 .bss           0x0000000000000000        0x0 c:/devkitpro/devkita64/bin/../lib/gcc/aarch64-none-elf/9.2.0/../../../../aarch64-none-elf/lib/pic\libg.a(lib_a-impure.o)
 .comment       0x0000000000000000       0x23 c:/devkitpro/devkita64/bin/../lib/gcc/aarch64-none-elf/9.2.0/../../../../aarch64-none-elf/lib/pic\libg.a(lib_a-impure.o)
 .text          0x0000000000000000        0x0 c:/devkitpro/devkita64/bin/../lib/gcc/aarch64-none-elf/9.2.0/../../../../aarch64-none-elf/lib/pic\libg.a(lib_a-init.o)
 .data          0x0000000000000000        0x0 c:/devkitpro/devkita64/bin/../lib/gcc/aarch64-none-elf/9.2.0/../../../../aarch64-none-elf/lib/pic\libg.a(lib_a-init.o)
 .bss           0x0000000000000000        0x0 c:/devkitpro/devkita64/bin/../lib/gcc/aarch64-none-elf/9.2.0/../../../../aarch64-none-elf/lib/pic\libg.a(lib_a-init.o)
 .comment       0x0000000000000000       0x23 c:/devkitpro/devkita64/bin/../lib/gcc/aarch64-none-elf/9.2.0/../../../../aarch64-none-elf/lib/pic\libg.a(lib_a-init.o)
 .text          0x0000000000000000        0x0 c:/devkitpro/devkita64/bin/../lib/gcc/aarch64-none-elf/9.2.0/../../../../aarch64-none-elf/lib/pic\libg.a(lib_a-malign.o)
 .data          0x0000000000000000        0x0 c:/devkitpro/devkita64/bin/../lib/gcc/aarch64-none-elf/9.2.0/../../../../aarch64-none-elf/lib/pic\libg.a(lib_a-malign.o)
 .bss           0x0000000000000000        0x0 c:/devkitpro/devkita64/bin/../lib/gcc/aarch64-none-elf/9.2.0/../../../../aarch64-none-elf/lib/pic\libg.a(lib_a-malign.o)
 .comment       0x0000000000000000       0x23 c:/devkitpro/devkita64/bin/../lib/gcc/aarch64-none-elf/9.2.0/../../../../aarch64-none-elf/lib/pic\libg.a(lib_a-malign.o)
 .text          0x0000000000000000        0x0 c:/devkitpro/devkita64/bin/../lib/gcc/aarch64-none-elf/9.2.0/../../../../aarch64-none-elf/lib/pic\libg.a(lib_a-malignr.o)
 .data          0x0000000000000000        0x0 c:/devkitpro/devkita64/bin/../lib/gcc/aarch64-none-elf/9.2.0/../../../../aarch64-none-elf/lib/pic\libg.a(lib_a-malignr.o)
 .bss           0x0000000000000000        0x0 c:/devkitpro/devkita64/bin/../lib/gcc/aarch64-none-elf/9.2.0/../../../../aarch64-none-elf/lib/pic\libg.a(lib_a-malignr.o)
 .comment       0x0000000000000000       0x23 c:/devkitpro/devkita64/bin/../lib/gcc/aarch64-none-elf/9.2.0/../../../../aarch64-none-elf/lib/pic\libg.a(lib_a-malignr.o)
 .text          0x0000000000000000        0x0 c:/devkitpro/devkita64/bin/../lib/gcc/aarch64-none-elf/9.2.0/../../../../aarch64-none-elf/lib/pic\libg.a(lib_a-malloc.o)
 .data          0x0000000000000000        0x0 c:/devkitpro/devkita64/bin/../lib/gcc/aarch64-none-elf/9.2.0/../../../../aarch64-none-elf/lib/pic\libg.a(lib_a-malloc.o)
 .bss           0x0000000000000000        0x0 c:/devkitpro/devkita64/bin/../lib/gcc/aarch64-none-elf/9.2.0/../../../../aarch64-none-elf/lib/pic\libg.a(lib_a-malloc.o)
 .comment       0x0000000000000000       0x23 c:/devkitpro/devkita64/bin/../lib/gcc/aarch64-none-elf/9.2.0/../../../../aarch64-none-elf/lib/pic\libg.a(lib_a-malloc.o)
 .text          0x0000000000000000        0x0 c:/devkitpro/devkita64/bin/../lib/gcc/aarch64-none-elf/9.2.0/../../../../aarch64-none-elf/lib/pic\libg.a(lib_a-mallocr.o)
 .data          0x0000000000000000        0x0 c:/devkitpro/devkita64/bin/../lib/gcc/aarch64-none-elf/9.2.0/../../../../aarch64-none-elf/lib/pic\libg.a(lib_a-mallocr.o)
 .bss           0x0000000000000000        0x0 c:/devkitpro/devkita64/bin/../lib/gcc/aarch64-none-elf/9.2.0/../../../../aarch64-none-elf/lib/pic\libg.a(lib_a-mallocr.o)
 .comment       0x0000000000000000       0x23 c:/devkitpro/devkita64/bin/../lib/gcc/aarch64-none-elf/9.2.0/../../../../aarch64-none-elf/lib/pic\libg.a(lib_a-mallocr.o)
 .data          0x0000000000000000        0x0 c:/devkitpro/devkita64/bin/../lib/gcc/aarch64-none-elf/9.2.0/../../../../aarch64-none-elf/lib/pic\libg.a(lib_a-memcpy.o)
 .bss           0x0000000000000000        0x0 c:/devkitpro/devkita64/bin/../lib/gcc/aarch64-none-elf/9.2.0/../../../../aarch64-none-elf/lib/pic\libg.a(lib_a-memcpy.o)
 .data          0x0000000000000000        0x0 c:/devkitpro/devkita64/bin/../lib/gcc/aarch64-none-elf/9.2.0/../../../../aarch64-none-elf/lib/pic\libg.a(lib_a-memset.o)
 .bss           0x0000000000000000        0x0 c:/devkitpro/devkita64/bin/../lib/gcc/aarch64-none-elf/9.2.0/../../../../aarch64-none-elf/lib/pic\libg.a(lib_a-memset.o)
 .text          0x0000000000000000        0x0 c:/devkitpro/devkita64/bin/../lib/gcc/aarch64-none-elf/9.2.0/../../../../aarch64-none-elf/lib/pic\libg.a(lib_a-mlock.o)
 .data          0x0000000000000000        0x0 c:/devkitpro/devkita64/bin/../lib/gcc/aarch64-none-elf/9.2.0/../../../../aarch64-none-elf/lib/pic\libg.a(lib_a-mlock.o)
 .bss           0x0000000000000000        0x0 c:/devkitpro/devkita64/bin/../lib/gcc/aarch64-none-elf/9.2.0/../../../../aarch64-none-elf/lib/pic\libg.a(lib_a-mlock.o)
 .comment       0x0000000000000000       0x23 c:/devkitpro/devkita64/bin/../lib/gcc/aarch64-none-elf/9.2.0/../../../../aarch64-none-elf/lib/pic\libg.a(lib_a-mlock.o)
 .text          0x0000000000000000        0x0 c:/devkitpro/devkita64/bin/../lib/gcc/aarch64-none-elf/9.2.0/../../../../aarch64-none-elf/lib/pic\libg.a(lib_a-setenv.o)
 .data          0x0000000000000000        0x0 c:/devkitpro/devkita64/bin/../lib/gcc/aarch64-none-elf/9.2.0/../../../../aarch64-none-elf/lib/pic\libg.a(lib_a-setenv.o)
 .bss           0x0000000000000000        0x0 c:/devkitpro/devkita64/bin/../lib/gcc/aarch64-none-elf/9.2.0/../../../../aarch64-none-elf/lib/pic\libg.a(lib_a-setenv.o)
 .comment       0x0000000000000000       0x23 c:/devkitpro/devkita64/bin/../lib/gcc/aarch64-none-elf/9.2.0/../../../../aarch64-none-elf/lib/pic\libg.a(lib_a-setenv.o)
 .text          0x0000000000000000        0x0 c:/devkitpro/devkita64/bin/../lib/gcc/aarch64-none-elf/9.2.0/../../../../aarch64-none-elf/lib/pic\libg.a(lib_a-setenv_r.o)
 .data          0x0000000000000000        0x0 c:/devkitpro/devkita64/bin/../lib/gcc/aarch64-none-elf/9.2.0/../../../../aarch64-none-elf/lib/pic\libg.a(lib_a-setenv_r.o)
 .bss           0x0000000000000000        0x0 c:/devkitpro/devkita64/bin/../lib/gcc/aarch64-none-elf/9.2.0/../../../../aarch64-none-elf/lib/pic\libg.a(lib_a-setenv_r.o)
 .comment       0x0000000000000000       0x23 c:/devkitpro/devkita64/bin/../lib/gcc/aarch64-none-elf/9.2.0/../../../../aarch64-none-elf/lib/pic\libg.a(lib_a-setenv_r.o)
 .data          0x0000000000000000        0x0 c:/devkitpro/devkita64/bin/../lib/gcc/aarch64-none-elf/9.2.0/../../../../aarch64-none-elf/lib/pic\libg.a(lib_a-strchr.o)
 .bss           0x0000000000000000        0x0 c:/devkitpro/devkita64/bin/../lib/gcc/aarch64-none-elf/9.2.0/../../../../aarch64-none-elf/lib/pic\libg.a(lib_a-strchr.o)
 .data          0x0000000000000000        0x0 c:/devkitpro/devkita64/bin/../lib/gcc/aarch64-none-elf/9.2.0/../../../../aarch64-none-elf/lib/pic\libg.a(lib_a-strcpy.o)
 .bss           0x0000000000000000        0x0 c:/devkitpro/devkita64/bin/../lib/gcc/aarch64-none-elf/9.2.0/../../../../aarch64-none-elf/lib/pic\libg.a(lib_a-strcpy.o)
 .data          0x0000000000000000        0x0 c:/devkitpro/devkita64/bin/../lib/gcc/aarch64-none-elf/9.2.0/../../../../aarch64-none-elf/lib/pic\libg.a(lib_a-strlen.o)
 .bss           0x0000000000000000        0x0 c:/devkitpro/devkita64/bin/../lib/gcc/aarch64-none-elf/9.2.0/../../../../aarch64-none-elf/lib/pic\libg.a(lib_a-strlen.o)
 .text          0x0000000000000000        0x0 c:/devkitpro/devkita64/bin/../lib/gcc/aarch64-none-elf/9.2.0/../../../../aarch64-none-elf/lib/pic\libg.a(lib_a-strncat.o)
 .data          0x0000000000000000        0x0 c:/devkitpro/devkita64/bin/../lib/gcc/aarch64-none-elf/9.2.0/../../../../aarch64-none-elf/lib/pic\libg.a(lib_a-strncat.o)
 .bss           0x0000000000000000        0x0 c:/devkitpro/devkita64/bin/../lib/gcc/aarch64-none-elf/9.2.0/../../../../aarch64-none-elf/lib/pic\libg.a(lib_a-strncat.o)
 .comment       0x0000000000000000       0x23 c:/devkitpro/devkita64/bin/../lib/gcc/aarch64-none-elf/9.2.0/../../../../aarch64-none-elf/lib/pic\libg.a(lib_a-strncat.o)
 .data          0x0000000000000000        0x0 c:/devkitpro/devkita64/bin/../lib/gcc/aarch64-none-elf/9.2.0/../../../../aarch64-none-elf/lib/pic\libg.a(lib_a-strncmp.o)
 .bss           0x0000000000000000        0x0 c:/devkitpro/devkita64/bin/../lib/gcc/aarch64-none-elf/9.2.0/../../../../aarch64-none-elf/lib/pic\libg.a(lib_a-strncmp.o)
 .text          0x0000000000000000        0x0 c:/devkitpro/devkita64/bin/../lib/gcc/aarch64-none-elf/9.2.0/../../../../aarch64-none-elf/lib/pic\libg.a(lib_a-strncpy.o)
 .data          0x0000000000000000        0x0 c:/devkitpro/devkita64/bin/../lib/gcc/aarch64-none-elf/9.2.0/../../../../aarch64-none-elf/lib/pic\libg.a(lib_a-strncpy.o)
 .bss           0x0000000000000000        0x0 c:/devkitpro/devkita64/bin/../lib/gcc/aarch64-none-elf/9.2.0/../../../../aarch64-none-elf/lib/pic\libg.a(lib_a-strncpy.o)
 .comment       0x0000000000000000       0x23 c:/devkitpro/devkita64/bin/../lib/gcc/aarch64-none-elf/9.2.0/../../../../aarch64-none-elf/lib/pic\libg.a(lib_a-strncpy.o)
 .data          0x0000000000000000        0x0 c:/devkitpro/devkita64/bin/../lib/gcc/aarch64-none-elf/9.2.0/../../../../aarch64-none-elf/lib/pic\libg.a(lib_a-strnlen.o)
 .bss           0x0000000000000000        0x0 c:/devkitpro/devkita64/bin/../lib/gcc/aarch64-none-elf/9.2.0/../../../../aarch64-none-elf/lib/pic\libg.a(lib_a-strnlen.o)
 .text          0x0000000000000000        0x0 c:/devkitpro/devkita64/bin/../lib/gcc/aarch64-none-elf/9.2.0/../../../../aarch64-none-elf/lib/pic\libg.a(lib_a-toupper.o)
 .data          0x0000000000000000        0x0 c:/devkitpro/devkita64/bin/../lib/gcc/aarch64-none-elf/9.2.0/../../../../aarch64-none-elf/lib/pic\libg.a(lib_a-toupper.o)
 .bss           0x0000000000000000        0x0 c:/devkitpro/devkita64/bin/../lib/gcc/aarch64-none-elf/9.2.0/../../../../aarch64-none-elf/lib/pic\libg.a(lib_a-toupper.o)
 .comment       0x0000000000000000       0x23 c:/devkitpro/devkita64/bin/../lib/gcc/aarch64-none-elf/9.2.0/../../../../aarch64-none-elf/lib/pic\libg.a(lib_a-toupper.o)
 .text          0x0000000000000000        0x0 c:/devkitpro/devkita64/bin/../lib/gcc/aarch64-none-elf/9.2.0/../../../../aarch64-none-elf/lib/pic\libg.a(lib_a-vsnprintf.o)
 .data          0x0000000000000000        0x0 c:/devkitpro/devkita64/bin/../lib/gcc/aarch64-none-elf/9.2.0/../../../../aarch64-none-elf/lib/pic\libg.a(lib_a-vsnprintf.o)
 .bss           0x0000000000000000        0x0 c:/devkitpro/devkita64/bin/../lib/gcc/aarch64-none-elf/9.2.0/../../../../aarch64-none-elf/lib/pic\libg.a(lib_a-vsnprintf.o)
 .comment       0x0000000000000000       0x23 c:/devkitpro/devkita64/bin/../lib/gcc/aarch64-none-elf/9.2.0/../../../../aarch64-none-elf/lib/pic\libg.a(lib_a-vsnprintf.o)
 .text          0x0000000000000000        0x0 c:/devkitpro/devkita64/bin/../lib/gcc/aarch64-none-elf/9.2.0/../../../../aarch64-none-elf/lib/pic\libg.a(lib_a-__call_atexit.o)
 .data          0x0000000000000000        0x0 c:/devkitpro/devkita64/bin/../lib/gcc/aarch64-none-elf/9.2.0/../../../../aarch64-none-elf/lib/pic\libg.a(lib_a-__call_atexit.o)
 .bss           0x0000000000000000        0x0 c:/devkitpro/devkita64/bin/../lib/gcc/aarch64-none-elf/9.2.0/../../../../aarch64-none-elf/lib/pic\libg.a(lib_a-__call_atexit.o)
 .comment       0x0000000000000000       0x23 c:/devkitpro/devkita64/bin/../lib/gcc/aarch64-none-elf/9.2.0/../../../../aarch64-none-elf/lib/pic\libg.a(lib_a-__call_atexit.o)
 .text          0x0000000000000000        0x0 c:/devkitpro/devkita64/bin/../lib/gcc/aarch64-none-elf/9.2.0/../../../../aarch64-none-elf/lib/pic\libg.a(lib_a-environ.o)
 .data          0x0000000000000000        0x0 c:/devkitpro/devkita64/bin/../lib/gcc/aarch64-none-elf/9.2.0/../../../../aarch64-none-elf/lib/pic\libg.a(lib_a-environ.o)
 .bss           0x0000000000000000        0x0 c:/devkitpro/devkita64/bin/../lib/gcc/aarch64-none-elf/9.2.0/../../../../aarch64-none-elf/lib/pic\libg.a(lib_a-environ.o)
 .comment       0x0000000000000000       0x23 c:/devkitpro/devkita64/bin/../lib/gcc/aarch64-none-elf/9.2.0/../../../../aarch64-none-elf/lib/pic\libg.a(lib_a-environ.o)
 .text          0x0000000000000000        0x0 c:/devkitpro/devkita64/bin/../lib/gcc/aarch64-none-elf/9.2.0/../../../../aarch64-none-elf/lib/pic\libg.a(lib_a-envlock.o)
 .data          0x0000000000000000        0x0 c:/devkitpro/devkita64/bin/../lib/gcc/aarch64-none-elf/9.2.0/../../../../aarch64-none-elf/lib/pic\libg.a(lib_a-envlock.o)
 .bss           0x0000000000000000        0x0 c:/devkitpro/devkita64/bin/../lib/gcc/aarch64-none-elf/9.2.0/../../../../aarch64-none-elf/lib/pic\libg.a(lib_a-envlock.o)
 .comment       0x0000000000000000       0x23 c:/devkitpro/devkita64/bin/../lib/gcc/aarch64-none-elf/9.2.0/../../../../aarch64-none-elf/lib/pic\libg.a(lib_a-envlock.o)
 .text          0x0000000000000000        0x0 c:/devkitpro/devkita64/bin/../lib/gcc/aarch64-none-elf/9.2.0/../../../../aarch64-none-elf/lib/pic\libg.a(lib_a-freer.o)
 .data          0x0000000000000000        0x0 c:/devkitpro/devkita64/bin/../lib/gcc/aarch64-none-elf/9.2.0/../../../../aarch64-none-elf/lib/pic\libg.a(lib_a-freer.o)
 .bss           0x0000000000000000        0x0 c:/devkitpro/devkita64/bin/../lib/gcc/aarch64-none-elf/9.2.0/../../../../aarch64-none-elf/lib/pic\libg.a(lib_a-freer.o)
 .comment       0x0000000000000000       0x23 c:/devkitpro/devkita64/bin/../lib/gcc/aarch64-none-elf/9.2.0/../../../../aarch64-none-elf/lib/pic\libg.a(lib_a-freer.o)
 .text          0x0000000000000000        0x0 c:/devkitpro/devkita64/bin/../lib/gcc/aarch64-none-elf/9.2.0/../../../../aarch64-none-elf/lib/pic\libg.a(lib_a-getenv_r.o)
 .data          0x0000000000000000        0x0 c:/devkitpro/devkita64/bin/../lib/gcc/aarch64-none-elf/9.2.0/../../../../aarch64-none-elf/lib/pic\libg.a(lib_a-getenv_r.o)
 .bss           0x0000000000000000        0x0 c:/devkitpro/devkita64/bin/../lib/gcc/aarch64-none-elf/9.2.0/../../../../aarch64-none-elf/lib/pic\libg.a(lib_a-getenv_r.o)
 .comment       0x0000000000000000       0x23 c:/devkitpro/devkita64/bin/../lib/gcc/aarch64-none-elf/9.2.0/../../../../aarch64-none-elf/lib/pic\libg.a(lib_a-getenv_r.o)
 .text          0x0000000000000000        0x0 c:/devkitpro/devkita64/bin/../lib/gcc/aarch64-none-elf/9.2.0/../../../../aarch64-none-elf/lib/pic\libg.a(lib_a-reallocr.o)
 .data          0x0000000000000000        0x0 c:/devkitpro/devkita64/bin/../lib/gcc/aarch64-none-elf/9.2.0/../../../../aarch64-none-elf/lib/pic\libg.a(lib_a-reallocr.o)
 .bss           0x0000000000000000        0x0 c:/devkitpro/devkita64/bin/../lib/gcc/aarch64-none-elf/9.2.0/../../../../aarch64-none-elf/lib/pic\libg.a(lib_a-reallocr.o)
 .comment       0x0000000000000000       0x23 c:/devkitpro/devkita64/bin/../lib/gcc/aarch64-none-elf/9.2.0/../../../../aarch64-none-elf/lib/pic\libg.a(lib_a-reallocr.o)
 .text          0x0000000000000000        0x0 c:/devkitpro/devkita64/bin/../lib/gcc/aarch64-none-elf/9.2.0/../../../../aarch64-none-elf/lib/pic\libg.a(lib_a-svfprintf.o)
 .data          0x0000000000000000        0x0 c:/devkitpro/devkita64/bin/../lib/gcc/aarch64-none-elf/9.2.0/../../../../aarch64-none-elf/lib/pic\libg.a(lib_a-svfprintf.o)
 .bss           0x0000000000000000        0x0 c:/devkitpro/devkita64/bin/../lib/gcc/aarch64-none-elf/9.2.0/../../../../aarch64-none-elf/lib/pic\libg.a(lib_a-svfprintf.o)
 .comment       0x0000000000000000       0x23 c:/devkitpro/devkita64/bin/../lib/gcc/aarch64-none-elf/9.2.0/../../../../aarch64-none-elf/lib/pic\libg.a(lib_a-svfprintf.o)
 .text          0x0000000000000000        0x0 c:/devkitpro/devkita64/bin/../lib/gcc/aarch64-none-elf/9.2.0/../../../../aarch64-none-elf/lib/pic\libg.a(lib_a-wcrtomb.o)
 .data          0x0000000000000000        0x0 c:/devkitpro/devkita64/bin/../lib/gcc/aarch64-none-elf/9.2.0/../../../../aarch64-none-elf/lib/pic\libg.a(lib_a-wcrtomb.o)
 .bss           0x0000000000000000        0x0 c:/devkitpro/devkita64/bin/../lib/gcc/aarch64-none-elf/9.2.0/../../../../aarch64-none-elf/lib/pic\libg.a(lib_a-wcrtomb.o)
 .comment       0x0000000000000000       0x23 c:/devkitpro/devkita64/bin/../lib/gcc/aarch64-none-elf/9.2.0/../../../../aarch64-none-elf/lib/pic\libg.a(lib_a-wcrtomb.o)
 .text          0x0000000000000000        0x0 c:/devkitpro/devkita64/bin/../lib/gcc/aarch64-none-elf/9.2.0/../../../../aarch64-none-elf/lib/pic\libg.a(lib_a-wcsrtombs.o)
 .data          0x0000000000000000        0x0 c:/devkitpro/devkita64/bin/../lib/gcc/aarch64-none-elf/9.2.0/../../../../aarch64-none-elf/lib/pic\libg.a(lib_a-wcsrtombs.o)
 .bss           0x0000000000000000        0x0 c:/devkitpro/devkita64/bin/../lib/gcc/aarch64-none-elf/9.2.0/../../../../aarch64-none-elf/lib/pic\libg.a(lib_a-wcsrtombs.o)
 .comment       0x0000000000000000       0x23 c:/devkitpro/devkita64/bin/../lib/gcc/aarch64-none-elf/9.2.0/../../../../aarch64-none-elf/lib/pic\libg.a(lib_a-wcsrtombs.o)
 .text          0x0000000000000000        0x0 c:/devkitpro/devkita64/bin/../lib/gcc/aarch64-none-elf/9.2.0/../../../../aarch64-none-elf/lib/pic\libg.a(lib_a-dtoa.o)
 .data          0x0000000000000000        0x0 c:/devkitpro/devkita64/bin/../lib/gcc/aarch64-none-elf/9.2.0/../../../../aarch64-none-elf/lib/pic\libg.a(lib_a-dtoa.o)
 .bss           0x0000000000000000        0x0 c:/devkitpro/devkita64/bin/../lib/gcc/aarch64-none-elf/9.2.0/../../../../aarch64-none-elf/lib/pic\libg.a(lib_a-dtoa.o)
 .comment       0x0000000000000000       0x23 c:/devkitpro/devkita64/bin/../lib/gcc/aarch64-none-elf/9.2.0/../../../../aarch64-none-elf/lib/pic\libg.a(lib_a-dtoa.o)
 .text          0x0000000000000000        0x0 c:/devkitpro/devkita64/bin/../lib/gcc/aarch64-none-elf/9.2.0/../../../../aarch64-none-elf/lib/pic\libg.a(lib_a-localeconv.o)
 .data          0x0000000000000000        0x0 c:/devkitpro/devkita64/bin/../lib/gcc/aarch64-none-elf/9.2.0/../../../../aarch64-none-elf/lib/pic\libg.a(lib_a-localeconv.o)
 .bss           0x0000000000000000        0x0 c:/devkitpro/devkita64/bin/../lib/gcc/aarch64-none-elf/9.2.0/../../../../aarch64-none-elf/lib/pic\libg.a(lib_a-localeconv.o)
 .comment       0x0000000000000000       0x23 c:/devkitpro/devkita64/bin/../lib/gcc/aarch64-none-elf/9.2.0/../../../../aarch64-none-elf/lib/pic\libg.a(lib_a-localeconv.o)
 .text          0x0000000000000000        0x0 c:/devkitpro/devkita64/bin/../lib/gcc/aarch64-none-elf/9.2.0/../../../../aarch64-none-elf/lib/pic\libg.a(lib_a-locale.o)
 .data          0x0000000000000000        0x0 c:/devkitpro/devkita64/bin/../lib/gcc/aarch64-none-elf/9.2.0/../../../../aarch64-none-elf/lib/pic\libg.a(lib_a-locale.o)
 .bss           0x0000000000000000        0x0 c:/devkitpro/devkita64/bin/../lib/gcc/aarch64-none-elf/9.2.0/../../../../aarch64-none-elf/lib/pic\libg.a(lib_a-locale.o)
 .comment       0x0000000000000000       0x23 c:/devkitpro/devkita64/bin/../lib/gcc/aarch64-none-elf/9.2.0/../../../../aarch64-none-elf/lib/pic\libg.a(lib_a-locale.o)
 .text          0x0000000000000000        0x0 c:/devkitpro/devkita64/bin/../lib/gcc/aarch64-none-elf/9.2.0/../../../../aarch64-none-elf/lib/pic\libg.a(lib_a-mbtowc_r.o)
 .data          0x0000000000000000        0x0 c:/devkitpro/devkita64/bin/../lib/gcc/aarch64-none-elf/9.2.0/../../../../aarch64-none-elf/lib/pic\libg.a(lib_a-mbtowc_r.o)
 .bss           0x0000000000000000        0x0 c:/devkitpro/devkita64/bin/../lib/gcc/aarch64-none-elf/9.2.0/../../../../aarch64-none-elf/lib/pic\libg.a(lib_a-mbtowc_r.o)
 .comment       0x0000000000000000       0x23 c:/devkitpro/devkita64/bin/../lib/gcc/aarch64-none-elf/9.2.0/../../../../aarch64-none-elf/lib/pic\libg.a(lib_a-mbtowc_r.o)
 .data          0x0000000000000000        0x0 c:/devkitpro/devkita64/bin/../lib/gcc/aarch64-none-elf/9.2.0/../../../../aarch64-none-elf/lib/pic\libg.a(lib_a-memchr.o)
 .bss           0x0000000000000000        0x0 c:/devkitpro/devkita64/bin/../lib/gcc/aarch64-none-elf/9.2.0/../../../../aarch64-none-elf/lib/pic\libg.a(lib_a-memchr.o)
 .data          0x0000000000000000        0x0 c:/devkitpro/devkita64/bin/../lib/gcc/aarch64-none-elf/9.2.0/../../../../aarch64-none-elf/lib/pic\libg.a(lib_a-memmove.o)
 .bss           0x0000000000000000        0x0 c:/devkitpro/devkita64/bin/../lib/gcc/aarch64-none-elf/9.2.0/../../../../aarch64-none-elf/lib/pic\libg.a(lib_a-memmove.o)
 .text          0x0000000000000000        0x0 c:/devkitpro/devkita64/bin/../lib/gcc/aarch64-none-elf/9.2.0/../../../../aarch64-none-elf/lib/pic\libg.a(lib_a-mprec.o)
 .data          0x0000000000000000        0x0 c:/devkitpro/devkita64/bin/../lib/gcc/aarch64-none-elf/9.2.0/../../../../aarch64-none-elf/lib/pic\libg.a(lib_a-mprec.o)
 .bss           0x0000000000000000        0x0 c:/devkitpro/devkita64/bin/../lib/gcc/aarch64-none-elf/9.2.0/../../../../aarch64-none-elf/lib/pic\libg.a(lib_a-mprec.o)
 .comment       0x0000000000000000       0x23 c:/devkitpro/devkita64/bin/../lib/gcc/aarch64-none-elf/9.2.0/../../../../aarch64-none-elf/lib/pic\libg.a(lib_a-mprec.o)
 .text          0x0000000000000000        0x0 c:/devkitpro/devkita64/bin/../lib/gcc/aarch64-none-elf/9.2.0/../../../../aarch64-none-elf/lib/pic\libg.a(lib_a-s_frexp.o)
 .data          0x0000000000000000        0x0 c:/devkitpro/devkita64/bin/../lib/gcc/aarch64-none-elf/9.2.0/../../../../aarch64-none-elf/lib/pic\libg.a(lib_a-s_frexp.o)
 .bss           0x0000000000000000        0x0 c:/devkitpro/devkita64/bin/../lib/gcc/aarch64-none-elf/9.2.0/../../../../aarch64-none-elf/lib/pic\libg.a(lib_a-s_frexp.o)
 .comment       0x0000000000000000       0x23 c:/devkitpro/devkita64/bin/../lib/gcc/aarch64-none-elf/9.2.0/../../../../aarch64-none-elf/lib/pic\libg.a(lib_a-s_frexp.o)
 .text          0x0000000000000000        0x0 c:/devkitpro/devkita64/bin/../lib/gcc/aarch64-none-elf/9.2.0/../../../../aarch64-none-elf/lib/pic\libg.a(lib_a-strcasecmp.o)
 .data          0x0000000000000000        0x0 c:/devkitpro/devkita64/bin/../lib/gcc/aarch64-none-elf/9.2.0/../../../../aarch64-none-elf/lib/pic\libg.a(lib_a-strcasecmp.o)
 .bss           0x0000000000000000        0x0 c:/devkitpro/devkita64/bin/../lib/gcc/aarch64-none-elf/9.2.0/../../../../aarch64-none-elf/lib/pic\libg.a(lib_a-strcasecmp.o)
 .comment       0x0000000000000000       0x23 c:/devkitpro/devkita64/bin/../lib/gcc/aarch64-none-elf/9.2.0/../../../../aarch64-none-elf/lib/pic\libg.a(lib_a-strcasecmp.o)
 .text          0x0000000000000000        0x0 c:/devkitpro/devkita64/bin/../lib/gcc/aarch64-none-elf/9.2.0/../../../../aarch64-none-elf/lib/pic\libg.a(lib_a-strcat.o)
 .data          0x0000000000000000        0x0 c:/devkitpro/devkita64/bin/../lib/gcc/aarch64-none-elf/9.2.0/../../../../aarch64-none-elf/lib/pic\libg.a(lib_a-strcat.o)
 .bss           0x0000000000000000        0x0 c:/devkitpro/devkita64/bin/../lib/gcc/aarch64-none-elf/9.2.0/../../../../aarch64-none-elf/lib/pic\libg.a(lib_a-strcat.o)
 .comment       0x0000000000000000       0x23 c:/devkitpro/devkita64/bin/../lib/gcc/aarch64-none-elf/9.2.0/../../../../aarch64-none-elf/lib/pic\libg.a(lib_a-strcat.o)
 .data          0x0000000000000000        0x0 c:/devkitpro/devkita64/bin/../lib/gcc/aarch64-none-elf/9.2.0/../../../../aarch64-none-elf/lib/pic\libg.a(lib_a-strcmp.o)
 .bss           0x0000000000000000        0x0 c:/devkitpro/devkita64/bin/../lib/gcc/aarch64-none-elf/9.2.0/../../../../aarch64-none-elf/lib/pic\libg.a(lib_a-strcmp.o)
 .text          0x0000000000000000        0x0 c:/devkitpro/devkita64/bin/../lib/gcc/aarch64-none-elf/9.2.0/../../../../aarch64-none-elf/lib/pic\libg.a(lib_a-strlcpy.o)
 .data          0x0000000000000000        0x0 c:/devkitpro/devkita64/bin/../lib/gcc/aarch64-none-elf/9.2.0/../../../../aarch64-none-elf/lib/pic\libg.a(lib_a-strlcpy.o)
 .bss           0x0000000000000000        0x0 c:/devkitpro/devkita64/bin/../lib/gcc/aarch64-none-elf/9.2.0/../../../../aarch64-none-elf/lib/pic\libg.a(lib_a-strlcpy.o)
 .comment       0x0000000000000000       0x23 c:/devkitpro/devkita64/bin/../lib/gcc/aarch64-none-elf/9.2.0/../../../../aarch64-none-elf/lib/pic\libg.a(lib_a-strlcpy.o)
 .text          0x0000000000000000        0x0 c:/devkitpro/devkita64/bin/../lib/gcc/aarch64-none-elf/9.2.0/../../../../aarch64-none-elf/lib/pic\libg.a(lib_a-strncasecmp.o)
 .data          0x0000000000000000        0x0 c:/devkitpro/devkita64/bin/../lib/gcc/aarch64-none-elf/9.2.0/../../../../aarch64-none-elf/lib/pic\libg.a(lib_a-strncasecmp.o)
 .bss           0x0000000000000000        0x0 c:/devkitpro/devkita64/bin/../lib/gcc/aarch64-none-elf/9.2.0/../../../../aarch64-none-elf/lib/pic\libg.a(lib_a-strncasecmp.o)
 .comment       0x0000000000000000       0x23 c:/devkitpro/devkita64/bin/../lib/gcc/aarch64-none-elf/9.2.0/../../../../aarch64-none-elf/lib/pic\libg.a(lib_a-strncasecmp.o)
 .text          0x0000000000000000        0x0 c:/devkitpro/devkita64/bin/../lib/gcc/aarch64-none-elf/9.2.0/../../../../aarch64-none-elf/lib/pic\libg.a(lib_a-strtol.o)
 .data          0x0000000000000000        0x0 c:/devkitpro/devkita64/bin/../lib/gcc/aarch64-none-elf/9.2.0/../../../../aarch64-none-elf/lib/pic\libg.a(lib_a-strtol.o)
 .bss           0x0000000000000000        0x0 c:/devkitpro/devkita64/bin/../lib/gcc/aarch64-none-elf/9.2.0/../../../../aarch64-none-elf/lib/pic\libg.a(lib_a-strtol.o)
 .comment       0x0000000000000000       0x23 c:/devkitpro/devkita64/bin/../lib/gcc/aarch64-none-elf/9.2.0/../../../../aarch64-none-elf/lib/pic\libg.a(lib_a-strtol.o)
 .text          0x0000000000000000        0x0 c:/devkitpro/devkita64/bin/../lib/gcc/aarch64-none-elf/9.2.0/../../../../aarch64-none-elf/lib/pic\libg.a(lib_a-svfiprintf.o)
 .data          0x0000000000000000        0x0 c:/devkitpro/devkita64/bin/../lib/gcc/aarch64-none-elf/9.2.0/../../../../aarch64-none-elf/lib/pic\libg.a(lib_a-svfiprintf.o)
 .bss           0x0000000000000000        0x0 c:/devkitpro/devkita64/bin/../lib/gcc/aarch64-none-elf/9.2.0/../../../../aarch64-none-elf/lib/pic\libg.a(lib_a-svfiprintf.o)
 .comment       0x0000000000000000       0x23 c:/devkitpro/devkita64/bin/../lib/gcc/aarch64-none-elf/9.2.0/../../../../aarch64-none-elf/lib/pic\libg.a(lib_a-svfiprintf.o)
 .text          0x0000000000000000        0x0 c:/devkitpro/devkita64/bin/../lib/gcc/aarch64-none-elf/9.2.0/../../../../aarch64-none-elf/lib/pic\libg.a(lib_a-wcsnrtombs.o)
 .data          0x0000000000000000        0x0 c:/devkitpro/devkita64/bin/../lib/gcc/aarch64-none-elf/9.2.0/../../../../aarch64-none-elf/lib/pic\libg.a(lib_a-wcsnrtombs.o)
 .bss           0x0000000000000000        0x0 c:/devkitpro/devkita64/bin/../lib/gcc/aarch64-none-elf/9.2.0/../../../../aarch64-none-elf/lib/pic\libg.a(lib_a-wcsnrtombs.o)
 .comment       0x0000000000000000       0x23 c:/devkitpro/devkita64/bin/../lib/gcc/aarch64-none-elf/9.2.0/../../../../aarch64-none-elf/lib/pic\libg.a(lib_a-wcsnrtombs.o)
 .text          0x0000000000000000        0x0 c:/devkitpro/devkita64/bin/../lib/gcc/aarch64-none-elf/9.2.0/../../../../aarch64-none-elf/lib/pic\libg.a(lib_a-wctomb_r.o)
 .data          0x0000000000000000        0x0 c:/devkitpro/devkita64/bin/../lib/gcc/aarch64-none-elf/9.2.0/../../../../aarch64-none-elf/lib/pic\libg.a(lib_a-wctomb_r.o)
 .bss           0x0000000000000000        0x0 c:/devkitpro/devkita64/bin/../lib/gcc/aarch64-none-elf/9.2.0/../../../../aarch64-none-elf/lib/pic\libg.a(lib_a-wctomb_r.o)
 .comment       0x0000000000000000       0x23 c:/devkitpro/devkita64/bin/../lib/gcc/aarch64-none-elf/9.2.0/../../../../aarch64-none-elf/lib/pic\libg.a(lib_a-wctomb_r.o)
 .text          0x0000000000000000        0x0 c:/devkitpro/devkita64/bin/../lib/gcc/aarch64-none-elf/9.2.0/../../../../aarch64-none-elf/lib/pic\libg.a(lib_a-callocr.o)
 .data          0x0000000000000000        0x0 c:/devkitpro/devkita64/bin/../lib/gcc/aarch64-none-elf/9.2.0/../../../../aarch64-none-elf/lib/pic\libg.a(lib_a-callocr.o)
 .bss           0x0000000000000000        0x0 c:/devkitpro/devkita64/bin/../lib/gcc/aarch64-none-elf/9.2.0/../../../../aarch64-none-elf/lib/pic\libg.a(lib_a-callocr.o)
 .comment       0x0000000000000000       0x23 c:/devkitpro/devkita64/bin/../lib/gcc/aarch64-none-elf/9.2.0/../../../../aarch64-none-elf/lib/pic\libg.a(lib_a-callocr.o)
 .text          0x0000000000000000        0x0 c:/devkitpro/devkita64/bin/../lib/gcc/aarch64-none-elf/9.2.0/../../../../aarch64-none-elf/lib/pic\libsysbase.a(iosupport.o)
 .data          0x0000000000000000        0x0 c:/devkitpro/devkita64/bin/../lib/gcc/aarch64-none-elf/9.2.0/../../../../aarch64-none-elf/lib/pic\libsysbase.a(iosupport.o)
 .bss           0x0000000000000000        0x0 c:/devkitpro/devkita64/bin/../lib/gcc/aarch64-none-elf/9.2.0/../../../../aarch64-none-elf/lib/pic\libsysbase.a(iosupport.o)
 .comment       0x0000000000000000       0x23 c:/devkitpro/devkita64/bin/../lib/gcc/aarch64-none-elf/9.2.0/../../../../aarch64-none-elf/lib/pic\libsysbase.a(iosupport.o)
 .text          0x0000000000000000        0x0 c:/devkitpro/devkita64/bin/../lib/gcc/aarch64-none-elf/9.2.0/../../../../aarch64-none-elf/lib/pic\libsysbase.a(sbrk.o)
 .data          0x0000000000000000        0x0 c:/devkitpro/devkita64/bin/../lib/gcc/aarch64-none-elf/9.2.0/../../../../aarch64-none-elf/lib/pic\libsysbase.a(sbrk.o)
 .bss           0x0000000000000000        0x0 c:/devkitpro/devkita64/bin/../lib/gcc/aarch64-none-elf/9.2.0/../../../../aarch64-none-elf/lib/pic\libsysbase.a(sbrk.o)
 .comment       0x0000000000000000       0x23 c:/devkitpro/devkita64/bin/../lib/gcc/aarch64-none-elf/9.2.0/../../../../aarch64-none-elf/lib/pic\libsysbase.a(sbrk.o)
 .text          0x0000000000000000        0x0 c:/devkitpro/devkita64/bin/../lib/gcc/aarch64-none-elf/9.2.0/../../../../aarch64-none-elf/lib/pic\libsysbase.a(_exit.o)
 .data          0x0000000000000000        0x0 c:/devkitpro/devkita64/bin/../lib/gcc/aarch64-none-elf/9.2.0/../../../../aarch64-none-elf/lib/pic\libsysbase.a(_exit.o)
 .bss           0x0000000000000000        0x0 c:/devkitpro/devkita64/bin/../lib/gcc/aarch64-none-elf/9.2.0/../../../../aarch64-none-elf/lib/pic\libsysbase.a(_exit.o)
 .comment       0x0000000000000000       0x23 c:/devkitpro/devkita64/bin/../lib/gcc/aarch64-none-elf/9.2.0/../../../../aarch64-none-elf/lib/pic\libsysbase.a(_exit.o)
 .text          0x0000000000000000        0x0 c:/devkitpro/devkita64/bin/../lib/gcc/aarch64-none-elf/9.2.0/../../../../aarch64-none-elf/lib/pic\libsysbase.a(malloc_vars.o)
 .data          0x0000000000000000        0x0 c:/devkitpro/devkita64/bin/../lib/gcc/aarch64-none-elf/9.2.0/../../../../aarch64-none-elf/lib/pic\libsysbase.a(malloc_vars.o)
 .bss           0x0000000000000000        0x0 c:/devkitpro/devkita64/bin/../lib/gcc/aarch64-none-elf/9.2.0/../../../../aarch64-none-elf/lib/pic\libsysbase.a(malloc_vars.o)
 .comment       0x0000000000000000       0x23 c:/devkitpro/devkita64/bin/../lib/gcc/aarch64-none-elf/9.2.0/../../../../aarch64-none-elf/lib/pic\libsysbase.a(malloc_vars.o)
 .text          0x0000000000000000        0x0 c:/devkitpro/devkita64/bin/../lib/gcc/aarch64-none-elf/9.2.0/../../../../aarch64-none-elf/lib/pic\libsysbase.a(chdir.o)
 .data          0x0000000000000000        0x0 c:/devkitpro/devkita64/bin/../lib/gcc/aarch64-none-elf/9.2.0/../../../../aarch64-none-elf/lib/pic\libsysbase.a(chdir.o)
 .bss           0x0000000000000000        0x0 c:/devkitpro/devkita64/bin/../lib/gcc/aarch64-none-elf/9.2.0/../../../../aarch64-none-elf/lib/pic\libsysbase.a(chdir.o)
 .comment       0x0000000000000000       0x23 c:/devkitpro/devkita64/bin/../lib/gcc/aarch64-none-elf/9.2.0/../../../../aarch64-none-elf/lib/pic\libsysbase.a(chdir.o)
 .text          0x0000000000000000        0x0 c:/devkitpro/devkita64/bin/../lib/gcc/aarch64-none-elf/9.2.0/../../../../aarch64-none-elf/lib/pic\libsysbase.a(locks.o)
 .data          0x0000000000000000        0x0 c:/devkitpro/devkita64/bin/../lib/gcc/aarch64-none-elf/9.2.0/../../../../aarch64-none-elf/lib/pic\libsysbase.a(locks.o)
 .bss           0x0000000000000000        0x0 c:/devkitpro/devkita64/bin/../lib/gcc/aarch64-none-elf/9.2.0/../../../../aarch64-none-elf/lib/pic\libsysbase.a(locks.o)
 .comment       0x0000000000000000       0x23 c:/devkitpro/devkita64/bin/../lib/gcc/aarch64-none-elf/9.2.0/../../../../aarch64-none-elf/lib/pic\libsysbase.a(locks.o)
 .text          0x0000000000000000        0x0 c:/devkitpro/devkita64/bin/../lib/gcc/aarch64-none-elf/9.2.0/../../../../aarch64-none-elf/lib/pic\libsysbase.a(getreent.o)
 .data          0x0000000000000000        0x0 c:/devkitpro/devkita64/bin/../lib/gcc/aarch64-none-elf/9.2.0/../../../../aarch64-none-elf/lib/pic\libsysbase.a(getreent.o)
 .bss           0x0000000000000000        0x0 c:/devkitpro/devkita64/bin/../lib/gcc/aarch64-none-elf/9.2.0/../../../../aarch64-none-elf/lib/pic\libsysbase.a(getreent.o)
 .comment       0x0000000000000000       0x23 c:/devkitpro/devkita64/bin/../lib/gcc/aarch64-none-elf/9.2.0/../../../../aarch64-none-elf/lib/pic\libsysbase.a(getreent.o)
 .text          0x0000000000000000        0x0 c:/devkitpro/devkita64/bin/../lib/gcc/aarch64-none-elf/9.2.0/../../../../aarch64-none-elf/lib/pic\libsysbase.a(clocks.o)
 .data          0x0000000000000000        0x0 c:/devkitpro/devkita64/bin/../lib/gcc/aarch64-none-elf/9.2.0/../../../../aarch64-none-elf/lib/pic\libsysbase.a(clocks.o)
 .bss           0x0000000000000000        0x0 c:/devkitpro/devkita64/bin/../lib/gcc/aarch64-none-elf/9.2.0/../../../../aarch64-none-elf/lib/pic\libsysbase.a(clocks.o)
 .comment       0x0000000000000000       0x23 c:/devkitpro/devkita64/bin/../lib/gcc/aarch64-none-elf/9.2.0/../../../../aarch64-none-elf/lib/pic\libsysbase.a(clocks.o)
 .text          0x0000000000000000        0x0 c:/devkitpro/devkita64/bin/../lib/gcc/aarch64-none-elf/9.2.0/pic\libgcc.a(trunctfdf2.o)
 .data          0x0000000000000000        0x0 c:/devkitpro/devkita64/bin/../lib/gcc/aarch64-none-elf/9.2.0/pic\libgcc.a(trunctfdf2.o)
 .bss           0x0000000000000000        0x0 c:/devkitpro/devkita64/bin/../lib/gcc/aarch64-none-elf/9.2.0/pic\libgcc.a(trunctfdf2.o)
 .comment       0x0000000000000000       0x23 c:/devkitpro/devkita64/bin/../lib/gcc/aarch64-none-elf/9.2.0/pic\libgcc.a(trunctfdf2.o)
 .text          0x0000000000000000        0x0 c:/devkitpro/devkita64/bin/../lib/gcc/aarch64-none-elf/9.2.0/pic\libgcc.a(sfp-exceptions.o)
 .data          0x0000000000000000        0x0 c:/devkitpro/devkita64/bin/../lib/gcc/aarch64-none-elf/9.2.0/pic\libgcc.a(sfp-exceptions.o)
 .bss           0x0000000000000000        0x0 c:/devkitpro/devkita64/bin/../lib/gcc/aarch64-none-elf/9.2.0/pic\libgcc.a(sfp-exceptions.o)
 .comment       0x0000000000000000       0x23 c:/devkitpro/devkita64/bin/../lib/gcc/aarch64-none-elf/9.2.0/pic\libgcc.a(sfp-exceptions.o)
 .data          0x0000000000000000        0x0 c:/devkitpro/devkita64/bin/../lib/gcc/aarch64-none-elf/9.2.0/../../../../aarch64-none-elf/lib/pic\libg.a(lib_a-strrchr.o)
 .bss           0x0000000000000000        0x0 c:/devkitpro/devkita64/bin/../lib/gcc/aarch64-none-elf/9.2.0/../../../../aarch64-none-elf/lib/pic\libg.a(lib_a-strrchr.o)
 .text          0x0000000000000000        0x0 c:/devkitpro/devkita64/bin/../lib/gcc/aarch64-none-elf/9.2.0/pic/crtend.o
 .data          0x0000000000000000        0x0 c:/devkitpro/devkita64/bin/../lib/gcc/aarch64-none-elf/9.2.0/pic/crtend.o
 .bss           0x0000000000000000        0x0 c:/devkitpro/devkita64/bin/../lib/gcc/aarch64-none-elf/9.2.0/pic/crtend.o
 .comment       0x0000000000000000       0x23 c:/devkitpro/devkita64/bin/../lib/gcc/aarch64-none-elf/9.2.0/pic/crtend.o
 .text          0x0000000000000000        0x0 c:/devkitpro/devkita64/bin/../lib/gcc/aarch64-none-elf/9.2.0/pic/crtn.o
 .data          0x0000000000000000        0x0 c:/devkitpro/devkita64/bin/../lib/gcc/aarch64-none-elf/9.2.0/pic/crtn.o
 .bss           0x0000000000000000        0x0 c:/devkitpro/devkita64/bin/../lib/gcc/aarch64-none-elf/9.2.0/pic/crtn.o

Memory Configuration

Name             Origin             Length             Attributes
*default*        0x0000000000000000 0xffffffffffffffff

Linker script and memory map

                0x0000000000000000                PROVIDE (__start__ = 0x0)
                0x0000000000000000                . = __start__

.crt0           0x0000000000000000      0x158
 *(.crt0)
 .crt0          0x0000000000000000      0x158 C:/Users/oukeh/OneDrive/桌面/code-mod-example/code-mod-framework/lib/libnx_min/nx/lib\libnx_min.a(switch_crt0.o)
                0x0000000000000000                _start
                0x0000000000000120                __nx_exit
                0x0000000000000130                __nx_mod0
                0x0000000000000158                . = ALIGN (0x8)

.init           0x0000000000000158       0x38
 *(.init)
 .init          0x0000000000000158       0x18 c:/devkitpro/devkita64/bin/../lib/gcc/aarch64-none-elf/9.2.0/pic/crti.o
                0x0000000000000158                _init
 .init          0x0000000000000170       0x1c c:/devkitpro/devkita64/bin/../lib/gcc/aarch64-none-elf/9.2.0/pic/crtn.o
                0x0000000000000190                . = ALIGN (0x8)
 *fill*         0x000000000000018c        0x4 

.plt            0x0000000000000190       0xa0
 *(.plt)
 .plt           0x0000000000000190       0xa0 c:/devkitpro/devkita64/bin/../lib/gcc/aarch64-none-elf/9.2.0/pic/crti.o
 *(.iplt)
                0x0000000000000230                . = ALIGN (0x8)

.text           0x0000000000000240    0x2d090
 *(.text.unlikely .text.*_unlikely .text.unlikely.*)
 *(.text.exit .text.exit.*)
 .text.exit     0x0000000000000240       0x38 c:/devkitpro/devkita64/bin/../lib/gcc/aarch64-none-elf/9.2.0/../../../../aarch64-none-elf/lib/pic\libg.a(lib_a-exit.o)
                0x0000000000000240                exit
 *(.text.startup .text.startup.*)
 *fill*         0x0000000000000278        0x8 
 .text.startup  0x0000000000000280      0x16c main.o
                0x0000000000000280                main
 *(.text.hot .text.hot.*)
 *(.text .stub .text.* .gnu.linkonce.t.*)
 *fill*         0x00000000000003ec        0x4 
 .text.deregister_tm_clones
                0x00000000000003f0       0x30 c:/devkitpro/devkita64/bin/../lib/gcc/aarch64-none-elf/9.2.0/pic/crtbegin.o
 .text.register_tm_clones
                0x0000000000000420       0x40 c:/devkitpro/devkita64/bin/../lib/gcc/aarch64-none-elf/9.2.0/pic/crtbegin.o
 .text.__do_global_dtors_aux
                0x0000000000000460       0x48 c:/devkitpro/devkita64/bin/../lib/gcc/aarch64-none-elf/9.2.0/pic/crtbegin.o
 .text.frame_dummy
                0x00000000000004a8       0x34 c:/devkitpro/devkita64/bin/../lib/gcc/aarch64-none-elf/9.2.0/pic/crtbegin.o
 *fill*         0x00000000000004dc        0x4 
 .text          0x00000000000004e0     0x3b60 main.o
                0x00000000000004e0                get_command_flag_cat_replace(unsigned long, int)
                0x00000000000006b0                clear_lua_stack_replace(lib::L2CAgent*)
                0x0000000000003e60                replace_scripts(lib::L2CAgent*, unsigned char, int)
                0x0000000000003eb0                sv_get_status_func(unsigned long, int, unsigned long)
                0x0000000000003f00                sv_replace_status_func(unsigned long, int, unsigned long, void*)
                0x0000000000003f40                script_replacement()
                0x0000000000003fa0                __libnx_init
                0x0000000000003ff0                __libnx_exit
 .text          0x0000000000004040      0xbd4 acmd_wrapper.o
                0x0000000000004040                is_before_frame(unsigned long, float)
                0x0000000000004070                null_acmd_func(lib::L2CAgent*, void*)
                0x0000000000004080                load_module(unsigned long, unsigned long)
                0x0000000000004090                load_module_impl(unsigned long, unsigned long)
                0x00000000000040a0                ACMD::ACMD()
                0x00000000000040a0                ACMD::ACMD()
                0x00000000000040b0                ACMD::ACMD(char const*, char const*, char const*, char const*, void (*)(ACMD*))
                0x00000000000040b0                ACMD::ACMD(char const*, char const*, char const*, char const*, void (*)(ACMD*))
                0x00000000000040d0                ACMD::match()
                0x0000000000004150                ACMD::nullify_original(lib::L2CAgent*)
                0x0000000000004220                ACMD::run(lib::L2CAgent*)
                0x0000000000004310                ACMD::frame(float)
                0x0000000000004330                ACMD::wait(float)
                0x0000000000004340                ACMD::is_excute()
                0x00000000000043c0                ACMD::_frame(float)
                0x0000000000004450                ACMD::_frame_reimpl(float)
                0x0000000000004540                ACMD::_wait(float)
                0x00000000000045d0                ACMD::_is_excute()
                0x0000000000004670                ACMD::wrap(void (*)(unsigned long), std::initializer_list<lib::L2CValue>)
                0x0000000000004710                ACMD::ATTACK(unsigned long, unsigned long, unsigned long, float, unsigned long, unsigned long, unsigned long, unsigned long, float, float, float, float, float, float, unsigned long, unsigned long, unsigned long, unsigned long, float, unsigned long, unsigned long, unsigned long, unsigned long, unsigned long, unsigned long, unsigned long, unsigned long, unsigned long, unsigned long, unsigned long, unsigned long, unsigned long, unsigned long)
                0x00000000000049a0                ACMD::ATTACK(unsigned long, unsigned long, unsigned long, float, unsigned long, unsigned long, unsigned long, unsigned long, float, float, float, float, float, float, float, float, float, unsigned long, unsigned long, unsigned long, unsigned long, float, unsigned long, unsigned long, unsigned long, unsigned long, unsigned long, unsigned long, unsigned long, unsigned long, unsigned long, unsigned long, unsigned long, unsigned long, unsigned long, unsigned long)
 *fill*         0x0000000000004c14        0xc 
 .text          0x0000000000004c20      0x120 saltysd_helper.o
                0x0000000000004c20                SaltySD_function_replace(unsigned long, unsigned long)
                0x0000000000004c90                SaltySD_function_replace_sym(char*, unsigned long)
                0x0000000000004cc0                SaltySD_function_replace_sym_check_prev(char*, unsigned long, unsigned long&)
 .text          0x0000000000004d40      0x370 lua_bind_hash.o
                0x0000000000004d40                lua_bind_hash(void const*, unsigned long)
                0x0000000000005080                lua_bind_hash_str(char const*)
 .text          0x00000000000050b0      0x12c l2c_imports.o
                0x00000000000050b0                lib::lua_const(char const*)
                0x00000000000050f0                lib::L2CValue::L2CValue()
                0x00000000000050f0                lib::L2CValue::L2CValue()
                0x0000000000005100                lib::L2CValue::L2CValue(bool)
                0x0000000000005100                lib::L2CValue::L2CValue(bool)
                0x0000000000005120                lib::L2CValue::L2CValue(int)
                0x0000000000005120                lib::L2CValue::L2CValue(int)
                0x0000000000005140                lib::L2CValue::L2CValue(unsigned long)
                0x0000000000005140                lib::L2CValue::L2CValue(unsigned long)
                0x0000000000005150                lib::L2CValue::L2CValue(float)
                0x0000000000005150                lib::L2CValue::L2CValue(float)
                0x0000000000005160                lib::L2CValue::L2CValue(double)
                0x0000000000005160                lib::L2CValue::L2CValue(double)
                0x0000000000005180                lib::L2CValue::L2CValue(char const*)
                0x0000000000005180                lib::L2CValue::L2CValue(char const*)
                0x0000000000005190                lib::L2CAgent::get_lua_stack(int, lib::L2CValue*)
                0x00000000000051a0                lib::L2CAgent::_clear_lua_stack()
 *fill*         0x00000000000051dc        0x4 
 .text          0x00000000000051e0      0x4fc raygun_printer.o
                0x00000000000051e0                show_segment(unsigned long, float, float, float, float, float)
                0x00000000000052b0                alphabet_index(char)
                0x0000000000005320                print_char(unsigned long, char, int, float, float)
                0x0000000000005480                print_string(unsigned long, char const*, ...)
 .text.__libnx_exception_entry
                0x00000000000056dc      0x1c0 C:/Users/oukeh/OneDrive/桌面/code-mod-example/code-mod-framework/lib/libnx_min/nx/lib\libnx_min.a(exception.o)
                0x00000000000056dc                __libnx_exception_entry
 .text.__libnx_exception_returnentry
                0x000000000000589c       0x18 C:/Users/oukeh/OneDrive/桌面/code-mod-example/code-mod-framework/lib/libnx_min/nx/lib\libnx_min.a(exception.o)
                0x000000000000589c                __libnx_exception_returnentry
 *fill*         0x00000000000058b4        0xc 
 .text.argvSetup
                0x00000000000058c0      0x318 C:/Users/oukeh/OneDrive/桌面/code-mod-example/code-mod-framework/lib/libnx_min/nx/lib\libnx_min.a(argv.o)
                0x00000000000058c0                argvSetup
 *fill*         0x0000000000005bd8        0x8 
 .text.envSetup
                0x0000000000005be0      0x208 C:/Users/oukeh/OneDrive/桌面/code-mod-example/code-mod-framework/lib/libnx_min/nx/lib\libnx_min.a(env.o)
                0x0000000000005be0                envSetup
 *fill*         0x0000000000005de8        0x8 
 .text.envGetMainThreadHandle
                0x0000000000005df0       0x20 C:/Users/oukeh/OneDrive/桌面/code-mod-example/code-mod-framework/lib/libnx_min/nx/lib\libnx_min.a(env.o)
                0x0000000000005df0                envGetMainThreadHandle
 .text.envIsNso
                0x0000000000005e10        0xc C:/Users/oukeh/OneDrive/桌面/code-mod-example/code-mod-framework/lib/libnx_min/nx/lib\libnx_min.a(env.o)
                0x0000000000005e10                envIsNso
 *fill*         0x0000000000005e1c        0x4 
 .text.envHasHeapOverride
                0x0000000000005e20       0x14 C:/Users/oukeh/OneDrive/桌面/code-mod-example/code-mod-framework/lib/libnx_min/nx/lib\libnx_min.a(env.o)
                0x0000000000005e20                envHasHeapOverride
 *fill*         0x0000000000005e34        0xc 
 .text.envGetHeapOverrideAddr
                0x0000000000005e40        0xc C:/Users/oukeh/OneDrive/桌面/code-mod-example/code-mod-framework/lib/libnx_min/nx/lib\libnx_min.a(env.o)
                0x0000000000005e40                envGetHeapOverrideAddr
 *fill*         0x0000000000005e4c        0x4 
 .text.envGetHeapOverrideSize
                0x0000000000005e50        0xc C:/Users/oukeh/OneDrive/桌面/code-mod-example/code-mod-framework/lib/libnx_min/nx/lib\libnx_min.a(env.o)
                0x0000000000005e50                envGetHeapOverrideSize
 *fill*         0x0000000000005e5c        0x4 
 .text.envHasArgv
                0x0000000000005e60       0x14 C:/Users/oukeh/OneDrive/桌面/code-mod-example/code-mod-framework/lib/libnx_min/nx/lib\libnx_min.a(env.o)
                0x0000000000005e60                envHasArgv
 *fill*         0x0000000000005e74        0xc 
 .text.envGetArgv
                0x0000000000005e80        0xc C:/Users/oukeh/OneDrive/桌面/code-mod-example/code-mod-framework/lib/libnx_min/nx/lib\libnx_min.a(env.o)
                0x0000000000005e80                envGetArgv
 *fill*         0x0000000000005e8c        0x4 
 .text.envIsSyscallHinted
                0x0000000000005e90       0x20 C:/Users/oukeh/OneDrive/桌面/code-mod-example/code-mod-framework/lib/libnx_min/nx/lib\libnx_min.a(env.o)
                0x0000000000005e90                envIsSyscallHinted
 .text.envGetOwnProcessHandle
                0x0000000000005eb0        0xc C:/Users/oukeh/OneDrive/桌面/code-mod-example/code-mod-framework/lib/libnx_min/nx/lib\libnx_min.a(env.o)
                0x0000000000005eb0                envGetOwnProcessHandle
 *fill*         0x0000000000005ebc        0x4 
 .text.envGetExitFuncPtr
                0x0000000000005ec0        0xc C:/Users/oukeh/OneDrive/桌面/code-mod-example/code-mod-framework/lib/libnx_min/nx/lib\libnx_min.a(env.o)
                0x0000000000005ec0                envGetExitFuncPtr
 *fill*         0x0000000000005ecc        0x4 
 .text.envSetExitFuncPtr
                0x0000000000005ed0        0xc C:/Users/oukeh/OneDrive/桌面/code-mod-example/code-mod-framework/lib/libnx_min/nx/lib\libnx_min.a(env.o)
                0x0000000000005ed0                envSetExitFuncPtr
 *fill*         0x0000000000005edc        0x4 
 .text.envSetNextLoad
                0x0000000000005ee0       0x7c C:/Users/oukeh/OneDrive/桌面/code-mod-example/code-mod-framework/lib/libnx_min/nx/lib\libnx_min.a(env.o)
                0x0000000000005ee0                envSetNextLoad
 *fill*         0x0000000000005f5c        0x4 
 .text.envHasNextLoad
                0x0000000000005f60       0x14 C:/Users/oukeh/OneDrive/桌面/code-mod-example/code-mod-framework/lib/libnx_min/nx/lib\libnx_min.a(env.o)
                0x0000000000005f60                envHasNextLoad
 *fill*         0x0000000000005f74        0xc 
 .text.envGetLastLoadResult
                0x0000000000005f80        0xc C:/Users/oukeh/OneDrive/桌面/code-mod-example/code-mod-framework/lib/libnx_min/nx/lib\libnx_min.a(env.o)
                0x0000000000005f80                envGetLastLoadResult
 *fill*         0x0000000000005f8c        0x4 
 .text.envHasRandomSeed
                0x0000000000005f90        0xc C:/Users/oukeh/OneDrive/桌面/code-mod-example/code-mod-framework/lib/libnx_min/nx/lib\libnx_min.a(env.o)
                0x0000000000005f90                envHasRandomSeed
 *fill*         0x0000000000005f9c        0x4 
 .text.envGetRandomSeed
                0x0000000000005fa0       0x18 C:/Users/oukeh/OneDrive/桌面/code-mod-example/code-mod-framework/lib/libnx_min/nx/lib\libnx_min.a(env.o)
                0x0000000000005fa0                envGetRandomSeed
 *fill*         0x0000000000005fb8        0x8 
 .text.__libnx_initheap
                0x0000000000005fc0       0xd8 C:/Users/oukeh/OneDrive/桌面/code-mod-example/code-mod-framework/lib/libnx_min/nx/lib\libnx_min.a(init.o)
                0x0000000000005fc0                __libnx_initheap
 *fill*         0x0000000000006098        0x8 
 .text.__appInit
                0x00000000000060a0       0xdc C:/Users/oukeh/OneDrive/桌面/code-mod-example/code-mod-framework/lib/libnx_min/nx/lib\libnx_min.a(init.o)
                0x00000000000060a0                __appInit
 *fill*         0x000000000000617c        0x4 
 .text.__appExit
                0x0000000000006180       0x44 C:/Users/oukeh/OneDrive/桌面/code-mod-example/code-mod-framework/lib/libnx_min/nx/lib\libnx_min.a(init.o)
                0x0000000000006180                __appExit
 *fill*         0x00000000000061c4        0xc 
 .text.hosversionGet
                0x00000000000061d0       0x10 C:/Users/oukeh/OneDrive/桌面/code-mod-example/code-mod-framework/lib/libnx_min/nx/lib\libnx_min.a(hosversion.o)
                0x00000000000061d0                hosversionGet
 .text.hosversionSet
                0x00000000000061e0       0x10 C:/Users/oukeh/OneDrive/桌面/code-mod-example/code-mod-framework/lib/libnx_min/nx/lib\libnx_min.a(hosversion.o)
                0x00000000000061e0                hosversionSet
 .text.__nx_dynamic
                0x00000000000061f0       0xa0 C:/Users/oukeh/OneDrive/桌面/code-mod-example/code-mod-framework/lib/libnx_min/nx/lib\libnx_min.a(dynamic.o)
                0x00000000000061f0                __nx_dynamic
 .text.fsdev_link
                0x0000000000006290       0x10 C:/Users/oukeh/OneDrive/桌面/code-mod-example/code-mod-framework/lib/libnx_min/nx/lib\libnx_min.a(fs_dev.o)
 .text.fsdev_dirreset
                0x00000000000062a0       0x10 C:/Users/oukeh/OneDrive/桌面/code-mod-example/code-mod-framework/lib/libnx_min/nx/lib\libnx_min.a(fs_dev.o)
 .text.fsdev_chmod
                0x00000000000062b0       0x10 C:/Users/oukeh/OneDrive/桌面/code-mod-example/code-mod-framework/lib/libnx_min/nx/lib\libnx_min.a(fs_dev.o)
 .text.error_cmp
                0x00000000000062c0       0x1c C:/Users/oukeh/OneDrive/桌面/code-mod-example/code-mod-framework/lib/libnx_min/nx/lib\libnx_min.a(fs_dev.o)
 *fill*         0x00000000000062dc        0x4 
 .text.fsdev_translate_error
                0x00000000000062e0       0x5c C:/Users/oukeh/OneDrive/桌面/code-mod-example/code-mod-framework/lib/libnx_min/nx/lib\libnx_min.a(fs_dev.o)
 *fill*         0x000000000000633c        0x4 
 .text.fsdev_fsync
                0x0000000000006340       0x40 C:/Users/oukeh/OneDrive/桌面/code-mod-example/code-mod-framework/lib/libnx_min/nx/lib\libnx_min.a(fs_dev.o)
 .text.fsdev_ftruncate
                0x0000000000006380       0x60 C:/Users/oukeh/OneDrive/桌面/code-mod-example/code-mod-framework/lib/libnx_min/nx/lib\libnx_min.a(fs_dev.o)
 .text.fsdev_dirclose
                0x00000000000063e0       0x20 C:/Users/oukeh/OneDrive/桌面/code-mod-example/code-mod-framework/lib/libnx_min/nx/lib\libnx_min.a(fs_dev.o)
 .text.fsdev_dirnext
                0x0000000000006400      0x16c C:/Users/oukeh/OneDrive/桌面/code-mod-example/code-mod-framework/lib/libnx_min/nx/lib\libnx_min.a(fs_dev.o)
 *fill*         0x000000000000656c        0x4 
 .text.fsdev_close
                0x0000000000006570       0x1c C:/Users/oukeh/OneDrive/桌面/code-mod-example/code-mod-framework/lib/libnx_min/nx/lib\libnx_min.a(fs_dev.o)
 *fill*         0x000000000000658c        0x4 
 .text.fsdev_fstat
                0x0000000000006590       0xa4 C:/Users/oukeh/OneDrive/桌面/code-mod-example/code-mod-framework/lib/libnx_min/nx/lib\libnx_min.a(fs_dev.o)
 *fill*         0x0000000000006634        0xc 
 .text.fsdev_seek
                0x0000000000006640       0xb0 C:/Users/oukeh/OneDrive/桌面/code-mod-example/code-mod-framework/lib/libnx_min/nx/lib\libnx_min.a(fs_dev.o)
 .text.fsdev_read
                0x00000000000066f0      0x1a0 C:/Users/oukeh/OneDrive/桌面/code-mod-example/code-mod-framework/lib/libnx_min/nx/lib\libnx_min.a(fs_dev.o)
 .text.fsdev_write
                0x0000000000006890      0x1a8 C:/Users/oukeh/OneDrive/桌面/code-mod-example/code-mod-framework/lib/libnx_min/nx/lib\libnx_min.a(fs_dev.o)
 *fill*         0x0000000000006a38        0x8 
 .text.fsdevFindDevice
                0x0000000000006a40      0x120 C:/Users/oukeh/OneDrive/桌面/code-mod-example/code-mod-framework/lib/libnx_min/nx/lib\libnx_min.a(fs_dev.o)
 .text._fsdevMountDevice
                0x0000000000006b60      0x140 C:/Users/oukeh/OneDrive/桌面/code-mod-example/code-mod-framework/lib/libnx_min/nx/lib\libnx_min.a(fs_dev.o)
 .text.fsdev_getfspath
                0x0000000000006ca0      0x1fc C:/Users/oukeh/OneDrive/桌面/code-mod-example/code-mod-framework/lib/libnx_min/nx/lib\libnx_min.a(fs_dev.o)
 *fill*         0x0000000000006e9c        0x4 
 .text.fsdev_rmdir
                0x0000000000006ea0       0x70 C:/Users/oukeh/OneDrive/桌面/code-mod-example/code-mod-framework/lib/libnx_min/nx/lib\libnx_min.a(fs_dev.o)
 .text.fsdev_statvfs
                0x0000000000006f10       0xd4 C:/Users/oukeh/OneDrive/桌面/code-mod-example/code-mod-framework/lib/libnx_min/nx/lib\libnx_min.a(fs_dev.o)
 *fill*         0x0000000000006fe4        0xc 
 .text.fsdev_diropen
                0x0000000000006ff0       0xec C:/Users/oukeh/OneDrive/桌面/code-mod-example/code-mod-framework/lib/libnx_min/nx/lib\libnx_min.a(fs_dev.o)
 *fill*         0x00000000000070dc        0x4 
 .text.fsdev_mkdir
                0x00000000000070e0       0x70 C:/Users/oukeh/OneDrive/桌面/code-mod-example/code-mod-framework/lib/libnx_min/nx/lib\libnx_min.a(fs_dev.o)
 .text.fsdev_rename
                0x0000000000007150      0x114 C:/Users/oukeh/OneDrive/桌面/code-mod-example/code-mod-framework/lib/libnx_min/nx/lib\libnx_min.a(fs_dev.o)
 *fill*         0x0000000000007264        0xc 
 .text.fsdev_chdir
                0x0000000000007270       0xe8 C:/Users/oukeh/OneDrive/桌面/code-mod-example/code-mod-framework/lib/libnx_min/nx/lib\libnx_min.a(fs_dev.o)
 *fill*         0x0000000000007358        0x8 
 .text.fsdev_unlink
                0x0000000000007360       0x70 C:/Users/oukeh/OneDrive/桌面/code-mod-example/code-mod-framework/lib/libnx_min/nx/lib\libnx_min.a(fs_dev.o)
 .text.fsdev_stat
                0x00000000000073d0      0x1bc C:/Users/oukeh/OneDrive/桌面/code-mod-example/code-mod-framework/lib/libnx_min/nx/lib\libnx_min.a(fs_dev.o)
 *fill*         0x000000000000758c        0x4 
 .text.fsdev_open
                0x0000000000007590      0x19c C:/Users/oukeh/OneDrive/桌面/code-mod-example/code-mod-framework/lib/libnx_min/nx/lib\libnx_min.a(fs_dev.o)
 *fill*         0x000000000000772c        0x4 
 .text._fsdevUnmountDeviceStruct.part.4
                0x0000000000007730       0xb8 C:/Users/oukeh/OneDrive/桌面/code-mod-example/code-mod-framework/lib/libnx_min/nx/lib\libnx_min.a(fs_dev.o)
 *fill*         0x00000000000077e8        0x8 
 .text.fsdev_fchmod
                0x00000000000077f0       0x10 C:/Users/oukeh/OneDrive/桌面/code-mod-example/code-mod-framework/lib/libnx_min/nx/lib\libnx_min.a(fs_dev.o)
 .text.fsdevMountDevice
                0x0000000000007800       0x14 C:/Users/oukeh/OneDrive/桌面/code-mod-example/code-mod-framework/lib/libnx_min/nx/lib\libnx_min.a(fs_dev.o)
                0x0000000000007800                fsdevMountDevice
 *fill*         0x0000000000007814        0xc 
 .text.fsdevUnmountDevice
                0x0000000000007820       0x3c C:/Users/oukeh/OneDrive/桌面/code-mod-example/code-mod-framework/lib/libnx_min/nx/lib\libnx_min.a(fs_dev.o)
                0x0000000000007820                fsdevUnmountDevice
 *fill*         0x000000000000785c        0x4 
 .text.fsdevCommitDevice
                0x0000000000007860       0x28 C:/Users/oukeh/OneDrive/桌面/code-mod-example/code-mod-framework/lib/libnx_min/nx/lib\libnx_min.a(fs_dev.o)
                0x0000000000007860                fsdevCommitDevice
 *fill*         0x0000000000007888        0x8 
 .text.fsdevSetArchiveBit
                0x0000000000007890       0x68 C:/Users/oukeh/OneDrive/桌面/code-mod-example/code-mod-framework/lib/libnx_min/nx/lib\libnx_min.a(fs_dev.o)
                0x0000000000007890                fsdevSetArchiveBit
 *fill*         0x00000000000078f8        0x8 
 .text.fsdevCreateFile
                0x0000000000007900       0x88 C:/Users/oukeh/OneDrive/桌面/code-mod-example/code-mod-framework/lib/libnx_min/nx/lib\libnx_min.a(fs_dev.o)
                0x0000000000007900                fsdevCreateFile
 *fill*         0x0000000000007988        0x8 
 .text.fsdevDeleteDirectoryRecursively
                0x0000000000007990       0x68 C:/Users/oukeh/OneDrive/桌面/code-mod-example/code-mod-framework/lib/libnx_min/nx/lib\libnx_min.a(fs_dev.o)
                0x0000000000007990                fsdevDeleteDirectoryRecursively
 *fill*         0x00000000000079f8        0x8 
 .text.fsdevMountSdmc
                0x0000000000007a00      0x170 C:/Users/oukeh/OneDrive/桌面/code-mod-example/code-mod-framework/lib/libnx_min/nx/lib\libnx_min.a(fs_dev.o)
                0x0000000000007a00                fsdevMountSdmc
 .text.fsdevUnmountAll
                0x0000000000007b70       0x64 C:/Users/oukeh/OneDrive/桌面/code-mod-example/code-mod-framework/lib/libnx_min/nx/lib\libnx_min.a(fs_dev.o)
                0x0000000000007b70                fsdevUnmountAll
 *fill*         0x0000000000007bd4        0xc 
 .text.fsdevGetDeviceFileSystem
                0x0000000000007be0       0x20 C:/Users/oukeh/OneDrive/桌面/code-mod-example/code-mod-framework/lib/libnx_min/nx/lib\libnx_min.a(fs_dev.o)
                0x0000000000007be0                fsdevGetDeviceFileSystem
 .text.fsdevGetDefaultFileSystem
                0x0000000000007c00       0x40 C:/Users/oukeh/OneDrive/桌面/code-mod-example/code-mod-framework/lib/libnx_min/nx/lib\libnx_min.a(fs_dev.o)
                0x0000000000007c00                fsdevGetDefaultFileSystem
 .text.fsdevTranslatePath
                0x0000000000007c40       0x58 C:/Users/oukeh/OneDrive/桌面/code-mod-example/code-mod-framework/lib/libnx_min/nx/lib\libnx_min.a(fs_dev.o)
                0x0000000000007c40                fsdevTranslatePath
 *fill*         0x0000000000007c98        0x8 
 .text.fsdev_getmtime
                0x0000000000007ca0       0x20 C:/Users/oukeh/OneDrive/桌面/code-mod-example/code-mod-framework/lib/libnx_min/nx/lib\libnx_min.a(fs_dev.o)
                0x0000000000007ca0                fsdev_getmtime
 .text.fsdevGetLastResult
                0x0000000000007cc0       0x20 C:/Users/oukeh/OneDrive/桌面/code-mod-example/code-mod-framework/lib/libnx_min/nx/lib\libnx_min.a(fs_dev.o)
                0x0000000000007cc0                fsdevGetLastResult
 .text.decode_utf8
                0x0000000000007ce0      0x12c C:/Users/oukeh/OneDrive/桌面/code-mod-example/code-mod-framework/lib/libnx_min/nx/lib\libnx_min.a(decode_utf8.o)
                0x0000000000007ce0                decode_utf8
 .text.svcSetHeapSize
                0x0000000000007e0c       0x14 C:/Users/oukeh/OneDrive/桌面/code-mod-example/code-mod-framework/lib/libnx_min/nx/lib\libnx_min.a(svc.o)
                0x0000000000007e0c                svcSetHeapSize
 .text.svcSetMemoryPermission
                0x0000000000007e20        0x8 C:/Users/oukeh/OneDrive/桌面/code-mod-example/code-mod-framework/lib/libnx_min/nx/lib\libnx_min.a(svc.o)
                0x0000000000007e20                svcSetMemoryPermission
 .text.svcSetMemoryAttribute
                0x0000000000007e28        0x8 C:/Users/oukeh/OneDrive/桌面/code-mod-example/code-mod-framework/lib/libnx_min/nx/lib\libnx_min.a(svc.o)
                0x0000000000007e28                svcSetMemoryAttribute
 .text.svcMapMemory
                0x0000000000007e30        0x8 C:/Users/oukeh/OneDrive/桌面/code-mod-example/code-mod-framework/lib/libnx_min/nx/lib\libnx_min.a(svc.o)
                0x0000000000007e30                svcMapMemory
 .text.svcUnmapMemory
                0x0000000000007e38        0x8 C:/Users/oukeh/OneDrive/桌面/code-mod-example/code-mod-framework/lib/libnx_min/nx/lib\libnx_min.a(svc.o)
                0x0000000000007e38                svcUnmapMemory
 .text.svcQueryMemory
                0x0000000000007e40       0x14 C:/Users/oukeh/OneDrive/桌面/code-mod-example/code-mod-framework/lib/libnx_min/nx/lib\libnx_min.a(svc.o)
                0x0000000000007e40                svcQueryMemory
 .text.svcExitProcess
                0x0000000000007e54        0x8 C:/Users/oukeh/OneDrive/桌面/code-mod-example/code-mod-framework/lib/libnx_min/nx/lib\libnx_min.a(svc.o)
                0x0000000000007e54                svcExitProcess
 .text.svcCreateThread
                0x0000000000007e5c       0x14 C:/Users/oukeh/OneDrive/桌面/code-mod-example/code-mod-framework/lib/libnx_min/nx/lib\libnx_min.a(svc.o)
                0x0000000000007e5c                svcCreateThread
 .text.svcStartThread
                0x0000000000007e70        0x8 C:/Users/oukeh/OneDrive/桌面/code-mod-example/code-mod-framework/lib/libnx_min/nx/lib\libnx_min.a(svc.o)
                0x0000000000007e70                svcStartThread
 .text.svcExitThread
                0x0000000000007e78        0x8 C:/Users/oukeh/OneDrive/桌面/code-mod-example/code-mod-framework/lib/libnx_min/nx/lib\libnx_min.a(svc.o)
                0x0000000000007e78                svcExitThread
 .text.svcSleepThread
                0x0000000000007e80        0x8 C:/Users/oukeh/OneDrive/桌面/code-mod-example/code-mod-framework/lib/libnx_min/nx/lib\libnx_min.a(svc.o)
                0x0000000000007e80                svcSleepThread
 .text.svcGetThreadPriority
                0x0000000000007e88       0x14 C:/Users/oukeh/OneDrive/桌面/code-mod-example/code-mod-framework/lib/libnx_min/nx/lib\libnx_min.a(svc.o)
                0x0000000000007e88                svcGetThreadPriority
 .text.svcSetThreadPriority
                0x0000000000007e9c        0x8 C:/Users/oukeh/OneDrive/桌面/code-mod-example/code-mod-framework/lib/libnx_min/nx/lib\libnx_min.a(svc.o)
                0x0000000000007e9c                svcSetThreadPriority
 .text.svcGetThreadCoreMask
                0x0000000000007ea4       0x18 C:/Users/oukeh/OneDrive/桌面/code-mod-example/code-mod-framework/lib/libnx_min/nx/lib\libnx_min.a(svc.o)
                0x0000000000007ea4                svcGetThreadCoreMask
 .text.svcSetThreadCoreMask
                0x0000000000007ebc        0x8 C:/Users/oukeh/OneDrive/桌面/code-mod-example/code-mod-framework/lib/libnx_min/nx/lib\libnx_min.a(svc.o)
                0x0000000000007ebc                svcSetThreadCoreMask
 .text.svcGetCurrentProcessorNumber
                0x0000000000007ec4        0x8 C:/Users/oukeh/OneDrive/桌面/code-mod-example/code-mod-framework/lib/libnx_min/nx/lib\libnx_min.a(svc.o)
                0x0000000000007ec4                svcGetCurrentProcessorNumber
 .text.svcSignalEvent
                0x0000000000007ecc        0x8 C:/Users/oukeh/OneDrive/桌面/code-mod-example/code-mod-framework/lib/libnx_min/nx/lib\libnx_min.a(svc.o)
                0x0000000000007ecc                svcSignalEvent
 .text.svcClearEvent
                0x0000000000007ed4        0x8 C:/Users/oukeh/OneDrive/桌面/code-mod-example/code-mod-framework/lib/libnx_min/nx/lib\libnx_min.a(svc.o)
                0x0000000000007ed4                svcClearEvent
 .text.svcMapSharedMemory
                0x0000000000007edc        0x8 C:/Users/oukeh/OneDrive/桌面/code-mod-example/code-mod-framework/lib/libnx_min/nx/lib\libnx_min.a(svc.o)
                0x0000000000007edc                svcMapSharedMemory
 .text.svcUnmapSharedMemory
                0x0000000000007ee4        0x8 C:/Users/oukeh/OneDrive/桌面/code-mod-example/code-mod-framework/lib/libnx_min/nx/lib\libnx_min.a(svc.o)
                0x0000000000007ee4                svcUnmapSharedMemory
 .text.svcCreateTransferMemory
                0x0000000000007eec       0x14 C:/Users/oukeh/OneDrive/桌面/code-mod-example/code-mod-framework/lib/libnx_min/nx/lib\libnx_min.a(svc.o)
                0x0000000000007eec                svcCreateTransferMemory
 .text.svcCloseHandle
                0x0000000000007f00        0x8 C:/Users/oukeh/OneDrive/桌面/code-mod-example/code-mod-framework/lib/libnx_min/nx/lib\libnx_min.a(svc.o)
                0x0000000000007f00                svcCloseHandle
 .text.svcResetSignal
                0x0000000000007f08        0x8 C:/Users/oukeh/OneDrive/桌面/code-mod-example/code-mod-framework/lib/libnx_min/nx/lib\libnx_min.a(svc.o)
                0x0000000000007f08                svcResetSignal
 .text.svcWaitSynchronization
                0x0000000000007f10       0x14 C:/Users/oukeh/OneDrive/桌面/code-mod-example/code-mod-framework/lib/libnx_min/nx/lib\libnx_min.a(svc.o)
                0x0000000000007f10                svcWaitSynchronization
 .text.svcCancelSynchronization
                0x0000000000007f24        0x8 C:/Users/oukeh/OneDrive/桌面/code-mod-example/code-mod-framework/lib/libnx_min/nx/lib\libnx_min.a(svc.o)
                0x0000000000007f24                svcCancelSynchronization
 .text.svcArbitrateLock
                0x0000000000007f2c        0x8 C:/Users/oukeh/OneDrive/桌面/code-mod-example/code-mod-framework/lib/libnx_min/nx/lib\libnx_min.a(svc.o)
                0x0000000000007f2c                svcArbitrateLock
 .text.svcArbitrateUnlock
                0x0000000000007f34        0x8 C:/Users/oukeh/OneDrive/桌面/code-mod-example/code-mod-framework/lib/libnx_min/nx/lib\libnx_min.a(svc.o)
                0x0000000000007f34                svcArbitrateUnlock
 .text.svcWaitProcessWideKeyAtomic
                0x0000000000007f3c        0x8 C:/Users/oukeh/OneDrive/桌面/code-mod-example/code-mod-framework/lib/libnx_min/nx/lib\libnx_min.a(svc.o)
                0x0000000000007f3c                svcWaitProcessWideKeyAtomic
 .text.svcSignalProcessWideKey
                0x0000000000007f44        0x8 C:/Users/oukeh/OneDrive/桌面/code-mod-example/code-mod-framework/lib/libnx_min/nx/lib\libnx_min.a(svc.o)
                0x0000000000007f44                svcSignalProcessWideKey
 .text.svcGetSystemTick
                0x0000000000007f4c        0x8 C:/Users/oukeh/OneDrive/桌面/code-mod-example/code-mod-framework/lib/libnx_min/nx/lib\libnx_min.a(svc.o)
                0x0000000000007f4c                svcGetSystemTick
 .text.svcConnectToNamedPort
                0x0000000000007f54       0x14 C:/Users/oukeh/OneDrive/桌面/code-mod-example/code-mod-framework/lib/libnx_min/nx/lib\libnx_min.a(svc.o)
                0x0000000000007f54                svcConnectToNamedPort
 .text.svcSendSyncRequest
                0x0000000000007f68        0x8 C:/Users/oukeh/OneDrive/桌面/code-mod-example/code-mod-framework/lib/libnx_min/nx/lib\libnx_min.a(svc.o)
                0x0000000000007f68                svcSendSyncRequest
 .text.svcSendSyncRequestWithUserBuffer
                0x0000000000007f70        0x8 C:/Users/oukeh/OneDrive/桌面/code-mod-example/code-mod-framework/lib/libnx_min/nx/lib\libnx_min.a(svc.o)
                0x0000000000007f70                svcSendSyncRequestWithUserBuffer
 .text.svcSendAsyncRequestWithUserBuffer
                0x0000000000007f78       0x14 C:/Users/oukeh/OneDrive/桌面/code-mod-example/code-mod-framework/lib/libnx_min/nx/lib\libnx_min.a(svc.o)
                0x0000000000007f78                svcSendAsyncRequestWithUserBuffer
 .text.svcGetProcessId
                0x0000000000007f8c       0x14 C:/Users/oukeh/OneDrive/桌面/code-mod-example/code-mod-framework/lib/libnx_min/nx/lib\libnx_min.a(svc.o)
                0x0000000000007f8c                svcGetProcessId
 .text.svcGetThreadId
                0x0000000000007fa0       0x14 C:/Users/oukeh/OneDrive/桌面/code-mod-example/code-mod-framework/lib/libnx_min/nx/lib\libnx_min.a(svc.o)
                0x0000000000007fa0                svcGetThreadId
 .text.svcBreak
                0x0000000000007fb4        0x8 C:/Users/oukeh/OneDrive/桌面/code-mod-example/code-mod-framework/lib/libnx_min/nx/lib\libnx_min.a(svc.o)
                0x0000000000007fb4                svcBreak
 .text.svcOutputDebugString
                0x0000000000007fbc        0x8 C:/Users/oukeh/OneDrive/桌面/code-mod-example/code-mod-framework/lib/libnx_min/nx/lib\libnx_min.a(svc.o)
                0x0000000000007fbc                svcOutputDebugString
 .text.svcReturnFromException
                0x0000000000007fc4        0x8 C:/Users/oukeh/OneDrive/桌面/code-mod-example/code-mod-framework/lib/libnx_min/nx/lib\libnx_min.a(svc.o)
                0x0000000000007fc4                svcReturnFromException
 .text.svcGetInfo
                0x0000000000007fcc       0x14 C:/Users/oukeh/OneDrive/桌面/code-mod-example/code-mod-framework/lib/libnx_min/nx/lib\libnx_min.a(svc.o)
                0x0000000000007fcc                svcGetInfo
 .text.svcMapPhysicalMemory
                0x0000000000007fe0        0x8 C:/Users/oukeh/OneDrive/桌面/code-mod-example/code-mod-framework/lib/libnx_min/nx/lib\libnx_min.a(svc.o)
                0x0000000000007fe0                svcMapPhysicalMemory
 .text.svcUnmapPhysicalMemory
                0x0000000000007fe8        0x8 C:/Users/oukeh/OneDrive/桌面/code-mod-example/code-mod-framework/lib/libnx_min/nx/lib\libnx_min.a(svc.o)
                0x0000000000007fe8                svcUnmapPhysicalMemory
 .text.svcGetResourceLimitLimitValue
                0x0000000000007ff0       0x14 C:/Users/oukeh/OneDrive/桌面/code-mod-example/code-mod-framework/lib/libnx_min/nx/lib\libnx_min.a(svc.o)
                0x0000000000007ff0                svcGetResourceLimitLimitValue
 .text.svcGetResourceLimitCurrentValue
                0x0000000000008004       0x14 C:/Users/oukeh/OneDrive/桌面/code-mod-example/code-mod-framework/lib/libnx_min/nx/lib\libnx_min.a(svc.o)
                0x0000000000008004                svcGetResourceLimitCurrentValue
 .text.svcSetThreadActivity
                0x0000000000008018        0x8 C:/Users/oukeh/OneDrive/桌面/code-mod-example/code-mod-framework/lib/libnx_min/nx/lib\libnx_min.a(svc.o)
                0x0000000000008018                svcSetThreadActivity
 .text.svcGetThreadContext3
                0x0000000000008020        0x8 C:/Users/oukeh/OneDrive/桌面/code-mod-example/code-mod-framework/lib/libnx_min/nx/lib\libnx_min.a(svc.o)
                0x0000000000008020                svcGetThreadContext3
 .text.svcCreateSession
                0x0000000000008028       0x18 C:/Users/oukeh/OneDrive/桌面/code-mod-example/code-mod-framework/lib/libnx_min/nx/lib\libnx_min.a(svc.o)
                0x0000000000008028                svcCreateSession
 .text.svcAcceptSession
                0x0000000000008040       0x14 C:/Users/oukeh/OneDrive/桌面/code-mod-example/code-mod-framework/lib/libnx_min/nx/lib\libnx_min.a(svc.o)
                0x0000000000008040                svcAcceptSession
 .text.svcReplyAndReceive
                0x0000000000008054       0x14 C:/Users/oukeh/OneDrive/桌面/code-mod-example/code-mod-framework/lib/libnx_min/nx/lib\libnx_min.a(svc.o)
                0x0000000000008054                svcReplyAndReceive
 .text.svcReplyAndReceiveWithUserBuffer
                0x0000000000008068       0x14 C:/Users/oukeh/OneDrive/桌面/code-mod-example/code-mod-framework/lib/libnx_min/nx/lib\libnx_min.a(svc.o)
                0x0000000000008068                svcReplyAndReceiveWithUserBuffer
 .text.svcCreateEvent
                0x000000000000807c       0x18 C:/Users/oukeh/OneDrive/桌面/code-mod-example/code-mod-framework/lib/libnx_min/nx/lib\libnx_min.a(svc.o)
                0x000000000000807c                svcCreateEvent
 .text.svcMapPhysicalMemoryUnsafe
                0x0000000000008094        0x8 C:/Users/oukeh/OneDrive/桌面/code-mod-example/code-mod-framework/lib/libnx_min/nx/lib\libnx_min.a(svc.o)
                0x0000000000008094                svcMapPhysicalMemoryUnsafe
 .text.svcUnmapPhysicalMemoryUnsafe
                0x000000000000809c        0x8 C:/Users/oukeh/OneDrive/桌面/code-mod-example/code-mod-framework/lib/libnx_min/nx/lib\libnx_min.a(svc.o)
                0x000000000000809c                svcUnmapPhysicalMemoryUnsafe
 .text.svcSetUnsafeLimit
                0x00000000000080a4        0x8 C:/Users/oukeh/OneDrive/桌面/code-mod-example/code-mod-framework/lib/libnx_min/nx/lib\libnx_min.a(svc.o)
                0x00000000000080a4                svcSetUnsafeLimit
 .text.svcCreateCodeMemory
                0x00000000000080ac       0x14 C:/Users/oukeh/OneDrive/桌面/code-mod-example/code-mod-framework/lib/libnx_min/nx/lib\libnx_min.a(svc.o)
                0x00000000000080ac                svcCreateCodeMemory
 .text.svcControlCodeMemory
                0x00000000000080c0        0x8 C:/Users/oukeh/OneDrive/桌面/code-mod-example/code-mod-framework/lib/libnx_min/nx/lib\libnx_min.a(svc.o)
                0x00000000000080c0                svcControlCodeMemory
 .text.svcReadWriteRegister
                0x00000000000080c8       0x14 C:/Users/oukeh/OneDrive/桌面/code-mod-example/code-mod-framework/lib/libnx_min/nx/lib\libnx_min.a(svc.o)
                0x00000000000080c8                svcReadWriteRegister
 .text.svcCreateSharedMemory
                0x00000000000080dc       0x14 C:/Users/oukeh/OneDrive/桌面/code-mod-example/code-mod-framework/lib/libnx_min/nx/lib\libnx_min.a(svc.o)
                0x00000000000080dc                svcCreateSharedMemory
 .text.svcMapTransferMemory
                0x00000000000080f0        0x8 C:/Users/oukeh/OneDrive/桌面/code-mod-example/code-mod-framework/lib/libnx_min/nx/lib\libnx_min.a(svc.o)
                0x00000000000080f0                svcMapTransferMemory
 .text.svcUnmapTransferMemory
                0x00000000000080f8        0x8 C:/Users/oukeh/OneDrive/桌面/code-mod-example/code-mod-framework/lib/libnx_min/nx/lib\libnx_min.a(svc.o)
                0x00000000000080f8                svcUnmapTransferMemory
 .text.svcCreateInterruptEvent
                0x0000000000008100       0x14 C:/Users/oukeh/OneDrive/桌面/code-mod-example/code-mod-framework/lib/libnx_min/nx/lib\libnx_min.a(svc.o)
                0x0000000000008100                svcCreateInterruptEvent
 .text.svcQueryPhysicalAddress
                0x0000000000008114       0x18 C:/Users/oukeh/OneDrive/桌面/code-mod-example/code-mod-framework/lib/libnx_min/nx/lib\libnx_min.a(svc.o)
                0x0000000000008114                svcQueryPhysicalAddress
 .text.svcQueryIoMapping
                0x000000000000812c       0x14 C:/Users/oukeh/OneDrive/桌面/code-mod-example/code-mod-framework/lib/libnx_min/nx/lib\libnx_min.a(svc.o)
                0x000000000000812c                svcQueryIoMapping
 .text.svcCreateDeviceAddressSpace
                0x0000000000008140       0x14 C:/Users/oukeh/OneDrive/桌面/code-mod-example/code-mod-framework/lib/libnx_min/nx/lib\libnx_min.a(svc.o)
                0x0000000000008140                svcCreateDeviceAddressSpace
 .text.svcAttachDeviceAddressSpace
                0x0000000000008154        0x8 C:/Users/oukeh/OneDrive/桌面/code-mod-example/code-mod-framework/lib/libnx_min/nx/lib\libnx_min.a(svc.o)
                0x0000000000008154                svcAttachDeviceAddressSpace
 .text.svcDetachDeviceAddressSpace
                0x000000000000815c        0x8 C:/Users/oukeh/OneDrive/桌面/code-mod-example/code-mod-framework/lib/libnx_min/nx/lib\libnx_min.a(svc.o)
                0x000000000000815c                svcDetachDeviceAddressSpace
 .text.svcMapDeviceAddressSpaceByForce
                0x0000000000008164        0x8 C:/Users/oukeh/OneDrive/桌面/code-mod-example/code-mod-framework/lib/libnx_min/nx/lib\libnx_min.a(svc.o)
                0x0000000000008164                svcMapDeviceAddressSpaceByForce
 .text.svcMapDeviceAddressSpaceAligned
                0x000000000000816c        0x8 C:/Users/oukeh/OneDrive/桌面/code-mod-example/code-mod-framework/lib/libnx_min/nx/lib\libnx_min.a(svc.o)
                0x000000000000816c                svcMapDeviceAddressSpaceAligned
 .text.svcUnmapDeviceAddressSpace
                0x0000000000008174        0x8 C:/Users/oukeh/OneDrive/桌面/code-mod-example/code-mod-framework/lib/libnx_min/nx/lib\libnx_min.a(svc.o)
                0x0000000000008174                svcUnmapDeviceAddressSpace
 .text.svcDebugActiveProcess
                0x000000000000817c       0x14 C:/Users/oukeh/OneDrive/桌面/code-mod-example/code-mod-framework/lib/libnx_min/nx/lib\libnx_min.a(svc.o)
                0x000000000000817c                svcDebugActiveProcess
 .text.svcBreakDebugProcess
                0x0000000000008190        0x8 C:/Users/oukeh/OneDrive/桌面/code-mod-example/code-mod-framework/lib/libnx_min/nx/lib\libnx_min.a(svc.o)
                0x0000000000008190                svcBreakDebugProcess
 .text.svcTerminateDebugProcess
                0x0000000000008198        0x8 C:/Users/oukeh/OneDrive/桌面/code-mod-example/code-mod-framework/lib/libnx_min/nx/lib\libnx_min.a(svc.o)
                0x0000000000008198                svcTerminateDebugProcess
 .text.svcGetDebugEvent
                0x00000000000081a0        0x8 C:/Users/oukeh/OneDrive/桌面/code-mod-example/code-mod-framework/lib/libnx_min/nx/lib\libnx_min.a(svc.o)
                0x00000000000081a0                svcGetDebugEvent
 .text.svcLegacyContinueDebugEvent
                0x00000000000081a8        0x8 C:/Users/oukeh/OneDrive/桌面/code-mod-example/code-mod-framework/lib/libnx_min/nx/lib\libnx_min.a(svc.o)
                0x00000000000081a8                svcLegacyContinueDebugEvent
 .text.svcContinueDebugEvent
                0x00000000000081b0        0x8 C:/Users/oukeh/OneDrive/桌面/code-mod-example/code-mod-framework/lib/libnx_min/nx/lib\libnx_min.a(svc.o)
                0x00000000000081b0                svcContinueDebugEvent
 .text.svcGetProcessList
                0x00000000000081b8       0x14 C:/Users/oukeh/OneDrive/桌面/code-mod-example/code-mod-framework/lib/libnx_min/nx/lib\libnx_min.a(svc.o)
                0x00000000000081b8                svcGetProcessList
 .text.svcGetThreadList
                0x00000000000081cc       0x14 C:/Users/oukeh/OneDrive/桌面/code-mod-example/code-mod-framework/lib/libnx_min/nx/lib\libnx_min.a(svc.o)
                0x00000000000081cc                svcGetThreadList
 .text.svcGetDebugThreadContext
                0x00000000000081e0        0x8 C:/Users/oukeh/OneDrive/桌面/code-mod-example/code-mod-framework/lib/libnx_min/nx/lib\libnx_min.a(svc.o)
                0x00000000000081e0                svcGetDebugThreadContext
 .text.svcSetDebugThreadContext
                0x00000000000081e8        0x8 C:/Users/oukeh/OneDrive/桌面/code-mod-example/code-mod-framework/lib/libnx_min/nx/lib\libnx_min.a(svc.o)
                0x00000000000081e8                svcSetDebugThreadContext
 .text.svcQueryDebugProcessMemory
                0x00000000000081f0       0x14 C:/Users/oukeh/OneDrive/桌面/code-mod-example/code-mod-framework/lib/libnx_min/nx/lib\libnx_min.a(svc.o)
                0x00000000000081f0                svcQueryDebugProcessMemory
 .text.svcReadDebugProcessMemory
                0x0000000000008204        0x8 C:/Users/oukeh/OneDrive/桌面/code-mod-example/code-mod-framework/lib/libnx_min/nx/lib\libnx_min.a(svc.o)
                0x0000000000008204                svcReadDebugProcessMemory
 .text.svcWriteDebugProcessMemory
                0x000000000000820c        0x8 C:/Users/oukeh/OneDrive/桌面/code-mod-example/code-mod-framework/lib/libnx_min/nx/lib\libnx_min.a(svc.o)
                0x000000000000820c                svcWriteDebugProcessMemory
 .text.svcGetDebugThreadParam
                0x0000000000008214       0x18 C:/Users/oukeh/OneDrive/桌面/code-mod-example/code-mod-framework/lib/libnx_min/nx/lib\libnx_min.a(svc.o)
                0x0000000000008214                svcGetDebugThreadParam
 .text.svcGetSystemInfo
                0x000000000000822c       0x14 C:/Users/oukeh/OneDrive/桌面/code-mod-example/code-mod-framework/lib/libnx_min/nx/lib\libnx_min.a(svc.o)
                0x000000000000822c                svcGetSystemInfo
 .text.svcCreatePort
                0x0000000000008240       0x18 C:/Users/oukeh/OneDrive/桌面/code-mod-example/code-mod-framework/lib/libnx_min/nx/lib\libnx_min.a(svc.o)
                0x0000000000008240                svcCreatePort
 .text.svcManageNamedPort
                0x0000000000008258       0x14 C:/Users/oukeh/OneDrive/桌面/code-mod-example/code-mod-framework/lib/libnx_min/nx/lib\libnx_min.a(svc.o)
                0x0000000000008258                svcManageNamedPort
 .text.svcConnectToPort
                0x000000000000826c       0x14 C:/Users/oukeh/OneDrive/桌面/code-mod-example/code-mod-framework/lib/libnx_min/nx/lib\libnx_min.a(svc.o)
                0x000000000000826c                svcConnectToPort
 .text.svcSetProcessMemoryPermission
                0x0000000000008280        0x8 C:/Users/oukeh/OneDrive/桌面/code-mod-example/code-mod-framework/lib/libnx_min/nx/lib\libnx_min.a(svc.o)
                0x0000000000008280                svcSetProcessMemoryPermission
 .text.svcMapProcessMemory
                0x0000000000008288        0x8 C:/Users/oukeh/OneDrive/桌面/code-mod-example/code-mod-framework/lib/libnx_min/nx/lib\libnx_min.a(svc.o)
                0x0000000000008288                svcMapProcessMemory
 .text.svcUnmapProcessMemory
                0x0000000000008290        0x8 C:/Users/oukeh/OneDrive/桌面/code-mod-example/code-mod-framework/lib/libnx_min/nx/lib\libnx_min.a(svc.o)
                0x0000000000008290                svcUnmapProcessMemory
 .text.svcQueryProcessMemory
                0x0000000000008298       0x14 C:/Users/oukeh/OneDrive/桌面/code-mod-example/code-mod-framework/lib/libnx_min/nx/lib\libnx_min.a(svc.o)
                0x0000000000008298                svcQueryProcessMemory
 .text.svcMapProcessCodeMemory
                0x00000000000082ac        0x8 C:/Users/oukeh/OneDrive/桌面/code-mod-example/code-mod-framework/lib/libnx_min/nx/lib\libnx_min.a(svc.o)
                0x00000000000082ac                svcMapProcessCodeMemory
 .text.svcUnmapProcessCodeMemory
                0x00000000000082b4        0x8 C:/Users/oukeh/OneDrive/桌面/code-mod-example/code-mod-framework/lib/libnx_min/nx/lib\libnx_min.a(svc.o)
                0x00000000000082b4                svcUnmapProcessCodeMemory
 .text.svcCreateProcess
                0x00000000000082bc       0x14 C:/Users/oukeh/OneDrive/桌面/code-mod-example/code-mod-framework/lib/libnx_min/nx/lib\libnx_min.a(svc.o)
                0x00000000000082bc                svcCreateProcess
 .text.svcStartProcess
                0x00000000000082d0        0x8 C:/Users/oukeh/OneDrive/桌面/code-mod-example/code-mod-framework/lib/libnx_min/nx/lib\libnx_min.a(svc.o)
                0x00000000000082d0                svcStartProcess
 .text.svcTerminateProcess
                0x00000000000082d8        0x8 C:/Users/oukeh/OneDrive/桌面/code-mod-example/code-mod-framework/lib/libnx_min/nx/lib\libnx_min.a(svc.o)
                0x00000000000082d8                svcTerminateProcess
 .text.svcGetProcessInfo
                0x00000000000082e0       0x14 C:/Users/oukeh/OneDrive/桌面/code-mod-example/code-mod-framework/lib/libnx_min/nx/lib\libnx_min.a(svc.o)
                0x00000000000082e0                svcGetProcessInfo
 .text.svcCreateResourceLimit
                0x00000000000082f4       0x14 C:/Users/oukeh/OneDrive/桌面/code-mod-example/code-mod-framework/lib/libnx_min/nx/lib\libnx_min.a(svc.o)
                0x00000000000082f4                svcCreateResourceLimit
 .text.svcSetResourceLimitLimitValue
                0x0000000000008308        0x8 C:/Users/oukeh/OneDrive/桌面/code-mod-example/code-mod-framework/lib/libnx_min/nx/lib\libnx_min.a(svc.o)
                0x0000000000008308                svcSetResourceLimitLimitValue
 .text.svcCallSecureMonitor
                0x0000000000008310       0x34 C:/Users/oukeh/OneDrive/桌面/code-mod-example/code-mod-framework/lib/libnx_min/nx/lib\libnx_min.a(svc.o)
                0x0000000000008310                svcCallSecureMonitor
 .text.__aarch64_read_tp
                0x0000000000008344        0xc C:/Users/oukeh/OneDrive/桌面/code-mod-example/code-mod-framework/lib/libnx_min/nx/lib\libnx_min.a(readtp.o)
                0x0000000000008344                __aarch64_read_tp
 .text._GetRegionFromInfo.isra.1
                0x0000000000008350       0x7c C:/Users/oukeh/OneDrive/桌面/code-mod-example/code-mod-framework/lib/libnx_min/nx/lib\libnx_min.a(virtmem.o)
 *fill*         0x00000000000083cc        0x4 
 .text.virtmemSetup
                0x00000000000083d0      0x114 C:/Users/oukeh/OneDrive/桌面/code-mod-example/code-mod-framework/lib/libnx_min/nx/lib\libnx_min.a(virtmem.o)
                0x00000000000083d0                virtmemSetup
 *fill*         0x00000000000084e4        0xc 
 .text.virtmemReserve
                0x00000000000084f0      0x13c C:/Users/oukeh/OneDrive/桌面/code-mod-example/code-mod-framework/lib/libnx_min/nx/lib\libnx_min.a(virtmem.o)
                0x00000000000084f0                virtmemReserve
 *fill*         0x000000000000862c        0x4 
 .text.virtmemFree
                0x0000000000008630        0x4 C:/Users/oukeh/OneDrive/桌面/code-mod-example/code-mod-framework/lib/libnx_min/nx/lib\libnx_min.a(virtmem.o)
                0x0000000000008630                virtmemFree
 *fill*         0x0000000000008634        0xc 
 .text.virtmemReserveStack
                0x0000000000008640       0xc8 C:/Users/oukeh/OneDrive/桌面/code-mod-example/code-mod-framework/lib/libnx_min/nx/lib\libnx_min.a(virtmem.o)
                0x0000000000008640                virtmemReserveStack
 *fill*         0x0000000000008708        0x8 
 .text.virtmemFreeStack
                0x0000000000008710        0x4 C:/Users/oukeh/OneDrive/桌面/code-mod-example/code-mod-framework/lib/libnx_min/nx/lib\libnx_min.a(virtmem.o)
                0x0000000000008710                virtmemFreeStack
 *fill*         0x0000000000008714        0xc 
 .text.mutexLock
                0x0000000000008720       0x8c C:/Users/oukeh/OneDrive/桌面/code-mod-example/code-mod-framework/lib/libnx_min/nx/lib\libnx_min.a(mutex.o)
                0x0000000000008720                mutexLock
 *fill*         0x00000000000087ac        0x4 
 .text.mutexTryLock
                0x00000000000087b0       0x34 C:/Users/oukeh/OneDrive/桌面/code-mod-example/code-mod-framework/lib/libnx_min/nx/lib\libnx_min.a(mutex.o)
                0x00000000000087b0                mutexTryLock
 *fill*         0x00000000000087e4        0xc 
 .text.mutexUnlock
                0x00000000000087f0       0x30 C:/Users/oukeh/OneDrive/桌面/code-mod-example/code-mod-framework/lib/libnx_min/nx/lib\libnx_min.a(mutex.o)
                0x00000000000087f0                mutexUnlock
 .text.rmutexLock
                0x0000000000008820       0x4c C:/Users/oukeh/OneDrive/桌面/code-mod-example/code-mod-framework/lib/libnx_min/nx/lib\libnx_min.a(mutex.o)
                0x0000000000008820                rmutexLock
 *fill*         0x000000000000886c        0x4 
 .text.rmutexTryLock
                0x0000000000008870       0x5c C:/Users/oukeh/OneDrive/桌面/code-mod-example/code-mod-framework/lib/libnx_min/nx/lib\libnx_min.a(mutex.o)
                0x0000000000008870                rmutexTryLock
 *fill*         0x00000000000088cc        0x4 
 .text.rmutexUnlock
                0x00000000000088d0       0x1c C:/Users/oukeh/OneDrive/桌面/code-mod-example/code-mod-framework/lib/libnx_min/nx/lib\libnx_min.a(mutex.o)
                0x00000000000088d0                rmutexUnlock
 *fill*         0x00000000000088ec        0x4 
 .text.ipcPrepareHeader
                0x00000000000088f0      0x220 C:/Users/oukeh/OneDrive/桌面/code-mod-example/code-mod-framework/lib/libnx_min/nx/lib\libnx_min.a(fs.o)
 .text.ipcParse
                0x0000000000008b10      0x22c C:/Users/oukeh/OneDrive/桌面/code-mod-example/code-mod-framework/lib/libnx_min/nx/lib\libnx_min.a(fs.o)
 *fill*         0x0000000000008d3c        0x4 
 .text.serviceIpcParse
                0x0000000000008d40       0xb0 C:/Users/oukeh/OneDrive/桌面/code-mod-example/code-mod-framework/lib/libnx_min/nx/lib\libnx_min.a(fs.o)
 .text.ipcCloseObjectById
                0x0000000000008df0       0x34 C:/Users/oukeh/OneDrive/桌面/code-mod-example/code-mod-framework/lib/libnx_min/nx/lib\libnx_min.a(fs.o)
 *fill*         0x0000000000008e24        0xc 
 .text._fsDeviceOperatorCheckInserted
                0x0000000000008e30      0x19c C:/Users/oukeh/OneDrive/桌面/code-mod-example/code-mod-framework/lib/libnx_min/nx/lib\libnx_min.a(fs.o)
 *fill*         0x0000000000008fcc        0x4 
 .text.fsFsQueryEntry.part.12
                0x0000000000008fd0      0x274 C:/Users/oukeh/OneDrive/桌面/code-mod-example/code-mod-framework/lib/libnx_min/nx/lib\libnx_min.a(fs.o)
 *fill*         0x0000000000009244        0xc 
 .text.fsInitialize
                0x0000000000009250      0x200 C:/Users/oukeh/OneDrive/桌面/code-mod-example/code-mod-framework/lib/libnx_min/nx/lib\libnx_min.a(fs.o)
                0x0000000000009250                fsInitialize
 .text.fsExit   0x0000000000009450       0x9c C:/Users/oukeh/OneDrive/桌面/code-mod-example/code-mod-framework/lib/libnx_min/nx/lib\libnx_min.a(fs.o)
                0x0000000000009450                fsExit
 *fill*         0x00000000000094ec        0x4 
 .text.fsGetServiceSession
                0x00000000000094f0        0xc C:/Users/oukeh/OneDrive/桌面/code-mod-example/code-mod-framework/lib/libnx_min/nx/lib\libnx_min.a(fs.o)
                0x00000000000094f0                fsGetServiceSession
 *fill*         0x00000000000094fc        0x4 
 .text.fsOpenBisStorage
                0x0000000000009500      0x1ec C:/Users/oukeh/OneDrive/桌面/code-mod-example/code-mod-framework/lib/libnx_min/nx/lib\libnx_min.a(fs.o)
                0x0000000000009500                fsOpenBisStorage
 *fill*         0x00000000000096ec        0x4 
 .text.fsOpenBisFileSystem
                0x00000000000096f0      0x170 C:/Users/oukeh/OneDrive/桌面/code-mod-example/code-mod-framework/lib/libnx_min/nx/lib\libnx_min.a(fs.o)
                0x00000000000096f0                fsOpenBisFileSystem
 .text.fsMountSdcard
                0x0000000000009860      0x1cc C:/Users/oukeh/OneDrive/桌面/code-mod-example/code-mod-framework/lib/libnx_min/nx/lib\libnx_min.a(fs.o)
                0x0000000000009860                fsMountSdcard
 *fill*         0x0000000000009a2c        0x4 
 .text.fsMountSaveData
                0x0000000000009a30      0x208 C:/Users/oukeh/OneDrive/桌面/code-mod-example/code-mod-framework/lib/libnx_min/nx/lib\libnx_min.a(fs.o)
                0x0000000000009a30                fsMountSaveData
 *fill*         0x0000000000009c38        0x8 
 .text.fsMountSystemSaveData
                0x0000000000009c40      0x208 C:/Users/oukeh/OneDrive/桌面/code-mod-example/code-mod-framework/lib/libnx_min/nx/lib\libnx_min.a(fs.o)
                0x0000000000009c40                fsMountSystemSaveData
 *fill*         0x0000000000009e48        0x8 
 .text.fsOpenSaveDataIterator
                0x0000000000009e50      0x1e0 C:/Users/oukeh/OneDrive/桌面/code-mod-example/code-mod-framework/lib/libnx_min/nx/lib\libnx_min.a(fs.o)
                0x0000000000009e50                fsOpenSaveDataIterator
 .text.fsOpenContentStorageFileSystem
                0x000000000000a030      0x1d4 C:/Users/oukeh/OneDrive/桌面/code-mod-example/code-mod-framework/lib/libnx_min/nx/lib\libnx_min.a(fs.o)
                0x000000000000a030                fsOpenContentStorageFileSystem
 *fill*         0x000000000000a204        0xc 
 .text.fsOpenDataStorageByCurrentProcess
                0x000000000000a210      0x1cc C:/Users/oukeh/OneDrive/桌面/code-mod-example/code-mod-framework/lib/libnx_min/nx/lib\libnx_min.a(fs.o)
                0x000000000000a210                fsOpenDataStorageByCurrentProcess
 *fill*         0x000000000000a3dc        0x4 
 .text.fsOpenDataStorageByDataId
                0x000000000000a3e0      0x200 C:/Users/oukeh/OneDrive/桌面/code-mod-example/code-mod-framework/lib/libnx_min/nx/lib\libnx_min.a(fs.o)
                0x000000000000a3e0                fsOpenDataStorageByDataId
 .text.fsOpenDeviceOperator
                0x000000000000a5e0      0x1cc C:/Users/oukeh/OneDrive/桌面/code-mod-example/code-mod-framework/lib/libnx_min/nx/lib\libnx_min.a(fs.o)
                0x000000000000a5e0                fsOpenDeviceOperator
 *fill*         0x000000000000a7ac        0x4 
 .text.fsOpenSdCardDetectionEventNotifier
                0x000000000000a7b0      0x1cc C:/Users/oukeh/OneDrive/桌面/code-mod-example/code-mod-framework/lib/libnx_min/nx/lib\libnx_min.a(fs.o)
                0x000000000000a7b0                fsOpenSdCardDetectionEventNotifier
 *fill*         0x000000000000a97c        0x4 
 .text.fsGetRightsIdByPath
                0x000000000000a980      0x174 C:/Users/oukeh/OneDrive/桌面/code-mod-example/code-mod-framework/lib/libnx_min/nx/lib\libnx_min.a(fs.o)
                0x000000000000a980                fsGetRightsIdByPath
 *fill*         0x000000000000aaf4        0xc 
 .text.fsGetRightsIdAndKeyGenerationByPath
                0x000000000000ab00      0x184 C:/Users/oukeh/OneDrive/桌面/code-mod-example/code-mod-framework/lib/libnx_min/nx/lib\libnx_min.a(fs.o)
                0x000000000000ab00                fsGetRightsIdAndKeyGenerationByPath
 *fill*         0x000000000000ac84        0xc 
 .text.fsIsExFatSupported
                0x000000000000ac90      0x138 C:/Users/oukeh/OneDrive/桌面/code-mod-example/code-mod-framework/lib/libnx_min/nx/lib\libnx_min.a(fs.o)
                0x000000000000ac90                fsIsExFatSupported
 *fill*         0x000000000000adc8        0x8 
 .text.fsMount_SaveData
                0x000000000000add0       0x3c C:/Users/oukeh/OneDrive/桌面/code-mod-example/code-mod-framework/lib/libnx_min/nx/lib\libnx_min.a(fs.o)
                0x000000000000add0                fsMount_SaveData
 *fill*         0x000000000000ae0c        0x4 
 .text.fsMount_SystemSaveData
                0x000000000000ae10       0x30 C:/Users/oukeh/OneDrive/桌面/code-mod-example/code-mod-framework/lib/libnx_min/nx/lib\libnx_min.a(fs.o)
                0x000000000000ae10                fsMount_SystemSaveData
 .text.fsOpenFileSystemWithId
                0x000000000000ae40      0x248 C:/Users/oukeh/OneDrive/桌面/code-mod-example/code-mod-framework/lib/libnx_min/nx/lib\libnx_min.a(fs.o)
                0x000000000000ae40                fsOpenFileSystemWithId
 *fill*         0x000000000000b088        0x8 
 .text.fsOpenFileSystem
                0x000000000000b090       0x10 C:/Users/oukeh/OneDrive/桌面/code-mod-example/code-mod-framework/lib/libnx_min/nx/lib\libnx_min.a(fs.o)
                0x000000000000b090                fsOpenFileSystem
 .text.fsOpenFileSystemWithPatch
                0x000000000000b0a0      0x184 C:/Users/oukeh/OneDrive/桌面/code-mod-example/code-mod-framework/lib/libnx_min/nx/lib\libnx_min.a(fs.o)
                0x000000000000b0a0                fsOpenFileSystemWithPatch
 *fill*         0x000000000000b224        0xc 
 .text.fsFsCreateFile
                0x000000000000b230      0x1a4 C:/Users/oukeh/OneDrive/桌面/code-mod-example/code-mod-framework/lib/libnx_min/nx/lib\libnx_min.a(fs.o)
                0x000000000000b230                fsFsCreateFile
 *fill*         0x000000000000b3d4        0xc 
 .text.fsFsDeleteFile
                0x000000000000b3e0      0x19c C:/Users/oukeh/OneDrive/桌面/code-mod-example/code-mod-framework/lib/libnx_min/nx/lib\libnx_min.a(fs.o)
                0x000000000000b3e0                fsFsDeleteFile
 *fill*         0x000000000000b57c        0x4 
 .text.fsFsCreateDirectory
                0x000000000000b580      0x19c C:/Users/oukeh/OneDrive/桌面/code-mod-example/code-mod-framework/lib/libnx_min/nx/lib\libnx_min.a(fs.o)
                0x000000000000b580                fsFsCreateDirectory
 *fill*         0x000000000000b71c        0x4 
 .text.fsFsDeleteDirectory
                0x000000000000b720      0x19c C:/Users/oukeh/OneDrive/桌面/code-mod-example/code-mod-framework/lib/libnx_min/nx/lib\libnx_min.a(fs.o)
                0x000000000000b720                fsFsDeleteDirectory
 *fill*         0x000000000000b8bc        0x4 
 .text.fsFsDeleteDirectoryRecursively
                0x000000000000b8c0      0x19c C:/Users/oukeh/OneDrive/桌面/code-mod-example/code-mod-framework/lib/libnx_min/nx/lib\libnx_min.a(fs.o)
                0x000000000000b8c0                fsFsDeleteDirectoryRecursively
 *fill*         0x000000000000ba5c        0x4 
 .text.fsFsRenameFile
                0x000000000000ba60      0x214 C:/Users/oukeh/OneDrive/桌面/code-mod-example/code-mod-framework/lib/libnx_min/nx/lib\libnx_min.a(fs.o)
                0x000000000000ba60                fsFsRenameFile
 *fill*         0x000000000000bc74        0xc 
 .text.fsFsRenameDirectory
                0x000000000000bc80      0x214 C:/Users/oukeh/OneDrive/桌面/code-mod-example/code-mod-framework/lib/libnx_min/nx/lib\libnx_min.a(fs.o)
                0x000000000000bc80                fsFsRenameDirectory
 *fill*         0x000000000000be94        0xc 
 .text.fsFsGetEntryType
                0x000000000000bea0      0x1b0 C:/Users/oukeh/OneDrive/桌面/code-mod-example/code-mod-framework/lib/libnx_min/nx/lib\libnx_min.a(fs.o)
                0x000000000000bea0                fsFsGetEntryType
 .text.fsFsOpenFile
                0x000000000000c050      0x1e4 C:/Users/oukeh/OneDrive/桌面/code-mod-example/code-mod-framework/lib/libnx_min/nx/lib\libnx_min.a(fs.o)
                0x000000000000c050                fsFsOpenFile
 *fill*         0x000000000000c234        0xc 
 .text.fsFsOpenDirectory
                0x000000000000c240      0x1f8 C:/Users/oukeh/OneDrive/桌面/code-mod-example/code-mod-framework/lib/libnx_min/nx/lib\libnx_min.a(fs.o)
                0x000000000000c240                fsFsOpenDirectory
 *fill*         0x000000000000c438        0x8 
 .text.fsFsCommit
                0x000000000000c440      0x17c C:/Users/oukeh/OneDrive/桌面/code-mod-example/code-mod-framework/lib/libnx_min/nx/lib\libnx_min.a(fs.o)
                0x000000000000c440                fsFsCommit
 *fill*         0x000000000000c5bc        0x4 
 .text.fsFsGetFreeSpace
                0x000000000000c5c0      0x1b0 C:/Users/oukeh/OneDrive/桌面/code-mod-example/code-mod-framework/lib/libnx_min/nx/lib\libnx_min.a(fs.o)
                0x000000000000c5c0                fsFsGetFreeSpace
 .text.fsFsGetTotalSpace
                0x000000000000c770      0x1b0 C:/Users/oukeh/OneDrive/桌面/code-mod-example/code-mod-framework/lib/libnx_min/nx/lib\libnx_min.a(fs.o)
                0x000000000000c770                fsFsGetTotalSpace
 .text.fsFsCleanDirectoryRecursively
                0x000000000000c920      0x140 C:/Users/oukeh/OneDrive/桌面/code-mod-example/code-mod-framework/lib/libnx_min/nx/lib\libnx_min.a(fs.o)
                0x000000000000c920                fsFsCleanDirectoryRecursively
 .text.fsFsGetFileTimeStampRaw
                0x000000000000ca60      0x194 C:/Users/oukeh/OneDrive/桌面/code-mod-example/code-mod-framework/lib/libnx_min/nx/lib\libnx_min.a(fs.o)
                0x000000000000ca60                fsFsGetFileTimeStampRaw
 *fill*         0x000000000000cbf4        0xc 
 .text.fsFsQueryEntry
                0x000000000000cc00       0x60 C:/Users/oukeh/OneDrive/桌面/code-mod-example/code-mod-framework/lib/libnx_min/nx/lib\libnx_min.a(fs.o)
                0x000000000000cc00                fsFsQueryEntry
 .text.fsFsSetArchiveBit
                0x000000000000cc60       0x1c C:/Users/oukeh/OneDrive/桌面/code-mod-example/code-mod-framework/lib/libnx_min/nx/lib\libnx_min.a(fs.o)
                0x000000000000cc60                fsFsSetArchiveBit
 *fill*         0x000000000000cc7c        0x4 
 .text.fsFsClose
                0x000000000000cc80       0x6c C:/Users/oukeh/OneDrive/桌面/code-mod-example/code-mod-framework/lib/libnx_min/nx/lib\libnx_min.a(fs.o)
                0x000000000000cc80                fsFsClose
 *fill*         0x000000000000ccec        0x4 
 .text.fsFileRead
                0x000000000000ccf0      0x1f8 C:/Users/oukeh/OneDrive/桌面/code-mod-example/code-mod-framework/lib/libnx_min/nx/lib\libnx_min.a(fs.o)
                0x000000000000ccf0                fsFileRead
 *fill*         0x000000000000cee8        0x8 
 .text.fsFileWrite
                0x000000000000cef0      0x1cc C:/Users/oukeh/OneDrive/桌面/code-mod-example/code-mod-framework/lib/libnx_min/nx/lib\libnx_min.a(fs.o)
                0x000000000000cef0                fsFileWrite
 *fill*         0x000000000000d0bc        0x4 
 .text.fsFileFlush
                0x000000000000d0c0      0x17c C:/Users/oukeh/OneDrive/桌面/code-mod-example/code-mod-framework/lib/libnx_min/nx/lib\libnx_min.a(fs.o)
                0x000000000000d0c0                fsFileFlush
 *fill*         0x000000000000d23c        0x4 
 .text.fsFileSetSize
                0x000000000000d240      0x18c C:/Users/oukeh/OneDrive/桌面/code-mod-example/code-mod-framework/lib/libnx_min/nx/lib\libnx_min.a(fs.o)
                0x000000000000d240                fsFileSetSize
 *fill*         0x000000000000d3cc        0x4 
 .text.fsFileGetSize
                0x000000000000d3d0      0x194 C:/Users/oukeh/OneDrive/桌面/code-mod-example/code-mod-framework/lib/libnx_min/nx/lib\libnx_min.a(fs.o)
                0x000000000000d3d0                fsFileGetSize
 *fill*         0x000000000000d564        0xc 
 .text.fsFileOperateRange
                0x000000000000d570      0x180 C:/Users/oukeh/OneDrive/桌面/code-mod-example/code-mod-framework/lib/libnx_min/nx/lib\libnx_min.a(fs.o)
                0x000000000000d570                fsFileOperateRange
 .text.fsFileClose
                0x000000000000d6f0       0x6c C:/Users/oukeh/OneDrive/桌面/code-mod-example/code-mod-framework/lib/libnx_min/nx/lib\libnx_min.a(fs.o)
                0x000000000000d6f0                fsFileClose
 *fill*         0x000000000000d75c        0x4 
 .text.fsDirClose
                0x000000000000d760       0x6c C:/Users/oukeh/OneDrive/桌面/code-mod-example/code-mod-framework/lib/libnx_min/nx/lib\libnx_min.a(fs.o)
                0x000000000000d760                fsDirClose
 *fill*         0x000000000000d7cc        0x4 
 .text.fsDirRead
                0x000000000000d7d0      0x1ec C:/Users/oukeh/OneDrive/桌面/code-mod-example/code-mod-framework/lib/libnx_min/nx/lib\libnx_min.a(fs.o)
                0x000000000000d7d0                fsDirRead
 *fill*         0x000000000000d9bc        0x4 
 .text.fsDirGetEntryCount
                0x000000000000d9c0      0x198 C:/Users/oukeh/OneDrive/桌面/code-mod-example/code-mod-framework/lib/libnx_min/nx/lib\libnx_min.a(fs.o)
                0x000000000000d9c0                fsDirGetEntryCount
 *fill*         0x000000000000db58        0x8 
 .text.fsStorageRead
                0x000000000000db60      0x1d0 C:/Users/oukeh/OneDrive/桌面/code-mod-example/code-mod-framework/lib/libnx_min/nx/lib\libnx_min.a(fs.o)
                0x000000000000db60                fsStorageRead
 .text.fsStorageWrite
                0x000000000000dd30      0x1d0 C:/Users/oukeh/OneDrive/桌面/code-mod-example/code-mod-framework/lib/libnx_min/nx/lib\libnx_min.a(fs.o)
                0x000000000000dd30                fsStorageWrite
 .text.fsStorageFlush
                0x000000000000df00      0x17c C:/Users/oukeh/OneDrive/桌面/code-mod-example/code-mod-framework/lib/libnx_min/nx/lib\libnx_min.a(fs.o)
                0x000000000000df00                fsStorageFlush
 *fill*         0x000000000000e07c        0x4 
 .text.fsStorageSetSize
                0x000000000000e080      0x18c C:/Users/oukeh/OneDrive/桌面/code-mod-example/code-mod-framework/lib/libnx_min/nx/lib\libnx_min.a(fs.o)
                0x000000000000e080                fsStorageSetSize
 *fill*         0x000000000000e20c        0x4 
 .text.fsStorageGetSize
                0x000000000000e210      0x194 C:/Users/oukeh/OneDrive/桌面/code-mod-example/code-mod-framework/lib/libnx_min/nx/lib\libnx_min.a(fs.o)
                0x000000000000e210                fsStorageGetSize
 *fill*         0x000000000000e3a4        0xc 
 .text.fsStorageOperateRange
                0x000000000000e3b0      0x180 C:/Users/oukeh/OneDrive/桌面/code-mod-example/code-mod-framework/lib/libnx_min/nx/lib\libnx_min.a(fs.o)
                0x000000000000e3b0                fsStorageOperateRange
 .text.fsStorageClose
                0x000000000000e530       0x6c C:/Users/oukeh/OneDrive/桌面/code-mod-example/code-mod-framework/lib/libnx_min/nx/lib\libnx_min.a(fs.o)
                0x000000000000e530                fsStorageClose
 *fill*         0x000000000000e59c        0x4 
 .text.fsSaveDataIteratorRead
                0x000000000000e5a0      0x1d0 C:/Users/oukeh/OneDrive/桌面/code-mod-example/code-mod-framework/lib/libnx_min/nx/lib\libnx_min.a(fs.o)
                0x000000000000e5a0                fsSaveDataIteratorRead
 .text.fsSaveDataIteratorClose
                0x000000000000e770       0x6c C:/Users/oukeh/OneDrive/桌面/code-mod-example/code-mod-framework/lib/libnx_min/nx/lib\libnx_min.a(fs.o)
                0x000000000000e770                fsSaveDataIteratorClose
 *fill*         0x000000000000e7dc        0x4 
 .text.fsEventNotifierGetEventHandle
                0x000000000000e7e0      0x188 C:/Users/oukeh/OneDrive/桌面/code-mod-example/code-mod-framework/lib/libnx_min/nx/lib\libnx_min.a(fs.o)
                0x000000000000e7e0                fsEventNotifierGetEventHandle
 *fill*         0x000000000000e968        0x8 
 .text.fsEventNotifierClose
                0x000000000000e970       0x6c C:/Users/oukeh/OneDrive/桌面/code-mod-example/code-mod-framework/lib/libnx_min/nx/lib\libnx_min.a(fs.o)
                0x000000000000e970                fsEventNotifierClose
 *fill*         0x000000000000e9dc        0x4 
 .text.fsDeviceOperatorIsSdCardInserted
                0x000000000000e9e0        0xc C:/Users/oukeh/OneDrive/桌面/code-mod-example/code-mod-framework/lib/libnx_min/nx/lib\libnx_min.a(fs.o)
                0x000000000000e9e0                fsDeviceOperatorIsSdCardInserted
 *fill*         0x000000000000e9ec        0x4 
 .text.fsDeviceOperatorIsGameCardInserted
                0x000000000000e9f0        0xc C:/Users/oukeh/OneDrive/桌面/code-mod-example/code-mod-framework/lib/libnx_min/nx/lib\libnx_min.a(fs.o)
                0x000000000000e9f0                fsDeviceOperatorIsGameCardInserted
 *fill*         0x000000000000e9fc        0x4 
 .text.fsDeviceOperatorGetGameCardHandle
                0x000000000000ea00      0x190 C:/Users/oukeh/OneDrive/桌面/code-mod-example/code-mod-framework/lib/libnx_min/nx/lib\libnx_min.a(fs.o)
                0x000000000000ea00                fsDeviceOperatorGetGameCardHandle
 .text.fsDeviceOperatorGetGameCardAttribute
                0x000000000000eb90      0x18c C:/Users/oukeh/OneDrive/桌面/code-mod-example/code-mod-framework/lib/libnx_min/nx/lib\libnx_min.a(fs.o)
                0x000000000000eb90                fsDeviceOperatorGetGameCardAttribute
 *fill*         0x000000000000ed1c        0x4 
 .text.fsDeviceOperatorClose
                0x000000000000ed20       0x6c C:/Users/oukeh/OneDrive/桌面/code-mod-example/code-mod-framework/lib/libnx_min/nx/lib\libnx_min.a(fs.o)
                0x000000000000ed20                fsDeviceOperatorClose
 *fill*         0x000000000000ed8c        0x4 
 .text.ipcCloseObjectById
                0x000000000000ed90       0x34 C:/Users/oukeh/OneDrive/桌面/code-mod-example/code-mod-framework/lib/libnx_min/nx/lib\libnx_min.a(set.o)
 *fill*         0x000000000000edc4        0xc 
 .text._setMakeLanguageCode
                0x000000000000edd0       0xf4 C:/Users/oukeh/OneDrive/桌面/code-mod-example/code-mod-framework/lib/libnx_min/nx/lib\libnx_min.a(set.o)
 *fill*         0x000000000000eec4        0xc 
 .text._setsysGetFirmwareVersionImpl
                0x000000000000eed0      0x1d4 C:/Users/oukeh/OneDrive/桌面/code-mod-example/code-mod-framework/lib/libnx_min/nx/lib\libnx_min.a(set.o)
 *fill*         0x000000000000f0a4        0xc 
 .text.setInitialize
                0x000000000000f0b0       0x44 C:/Users/oukeh/OneDrive/桌面/code-mod-example/code-mod-framework/lib/libnx_min/nx/lib\libnx_min.a(set.o)
                0x000000000000f0b0                setInitialize
 *fill*         0x000000000000f0f4        0xc 
 .text.setExit  0x000000000000f100       0x9c C:/Users/oukeh/OneDrive/桌面/code-mod-example/code-mod-framework/lib/libnx_min/nx/lib\libnx_min.a(set.o)
                0x000000000000f100                setExit
 *fill*         0x000000000000f19c        0x4 
 .text.setsysInitialize
                0x000000000000f1a0       0x3c C:/Users/oukeh/OneDrive/桌面/code-mod-example/code-mod-framework/lib/libnx_min/nx/lib\libnx_min.a(set.o)
                0x000000000000f1a0                setsysInitialize
 *fill*         0x000000000000f1dc        0x4 
 .text.setsysExit
                0x000000000000f1e0       0x9c C:/Users/oukeh/OneDrive/桌面/code-mod-example/code-mod-framework/lib/libnx_min/nx/lib\libnx_min.a(set.o)
                0x000000000000f1e0                setsysExit
 *fill*         0x000000000000f27c        0x4 
 .text.setGetLanguageCode
                0x000000000000f280       0xec C:/Users/oukeh/OneDrive/桌面/code-mod-example/code-mod-framework/lib/libnx_min/nx/lib\libnx_min.a(set.o)
                0x000000000000f280                setGetLanguageCode
 *fill*         0x000000000000f36c        0x4 
 .text.setGetSystemLanguage
                0x000000000000f370        0x4 C:/Users/oukeh/OneDrive/桌面/code-mod-example/code-mod-framework/lib/libnx_min/nx/lib\libnx_min.a(set.o)
                0x000000000000f370                setGetSystemLanguage
 *fill*         0x000000000000f374        0xc 
 .text.setGetAvailableLanguageCodeCount
                0x000000000000f380      0x10c C:/Users/oukeh/OneDrive/桌面/code-mod-example/code-mod-framework/lib/libnx_min/nx/lib\libnx_min.a(set.o)
                0x000000000000f380                setGetAvailableLanguageCodeCount
 *fill*         0x000000000000f48c        0x4 
 .text.setGetAvailableLanguageCodes
                0x000000000000f490      0x1b4 C:/Users/oukeh/OneDrive/桌面/code-mod-example/code-mod-framework/lib/libnx_min/nx/lib\libnx_min.a(set.o)
                0x000000000000f490                setGetAvailableLanguageCodes
 *fill*         0x000000000000f644        0xc 
 .text.setInitializeLanguageCodesCache
                0x000000000000f650       0x70 C:/Users/oukeh/OneDrive/桌面/code-mod-example/code-mod-framework/lib/libnx_min/nx/lib\libnx_min.a(set.o)
 .text.setMakeLanguage
                0x000000000000f6c0       0x8c C:/Users/oukeh/OneDrive/桌面/code-mod-example/code-mod-framework/lib/libnx_min/nx/lib\libnx_min.a(set.o)
                0x000000000000f6c0                setMakeLanguage
 *fill*         0x000000000000f74c        0x4 
 .text.setMakeLanguageCode
                0x000000000000f750       0x80 C:/Users/oukeh/OneDrive/桌面/code-mod-example/code-mod-framework/lib/libnx_min/nx/lib\libnx_min.a(set.o)
                0x000000000000f750                setMakeLanguageCode
 .text.setGetRegionCode
                0x000000000000f7d0       0xf0 C:/Users/oukeh/OneDrive/桌面/code-mod-example/code-mod-framework/lib/libnx_min/nx/lib\libnx_min.a(set.o)
                0x000000000000f7d0                setGetRegionCode
 .text.setsysGetColorSetId
                0x000000000000f8c0       0xe4 C:/Users/oukeh/OneDrive/桌面/code-mod-example/code-mod-framework/lib/libnx_min/nx/lib\libnx_min.a(set.o)
                0x000000000000f8c0                setsysGetColorSetId
 *fill*         0x000000000000f9a4        0xc 
 .text.setsysSetColorSetId
                0x000000000000f9b0       0xd0 C:/Users/oukeh/OneDrive/桌面/code-mod-example/code-mod-framework/lib/libnx_min/nx/lib\libnx_min.a(set.o)
                0x000000000000f9b0                setsysSetColorSetId
 .text.setsysGetSettingsItemValue
                0x000000000000fa80      0x19c C:/Users/oukeh/OneDrive/桌面/code-mod-example/code-mod-framework/lib/libnx_min/nx/lib\libnx_min.a(set.o)
                0x000000000000fa80                setsysGetSettingsItemValue
 *fill*         0x000000000000fc1c        0x4 
 .text.setsysGetSettingsItemValueSize
                0x000000000000fc20      0x198 C:/Users/oukeh/OneDrive/桌面/code-mod-example/code-mod-framework/lib/libnx_min/nx/lib\libnx_min.a(set.o)
                0x000000000000fc20                setsysGetSettingsItemValueSize
 *fill*         0x000000000000fdb8        0x8 
 .text.setsysGetSerialNumber
                0x000000000000fdc0      0x108 C:/Users/oukeh/OneDrive/桌面/code-mod-example/code-mod-framework/lib/libnx_min/nx/lib\libnx_min.a(set.o)
                0x000000000000fdc0                setsysGetSerialNumber
 *fill*         0x000000000000fec8        0x8 
 .text.setsysGetFlag
                0x000000000000fed0       0xec C:/Users/oukeh/OneDrive/桌面/code-mod-example/code-mod-framework/lib/libnx_min/nx/lib\libnx_min.a(set.o)
                0x000000000000fed0                setsysGetFlag
 *fill*         0x000000000000ffbc        0x4 
 .text.setsysSetFlag
                0x000000000000ffc0       0xd0 C:/Users/oukeh/OneDrive/桌面/code-mod-example/code-mod-framework/lib/libnx_min/nx/lib\libnx_min.a(set.o)
                0x000000000000ffc0                setsysSetFlag
 .text.setsysGetFirmwareVersion
                0x0000000000010090       0x44 C:/Users/oukeh/OneDrive/桌面/code-mod-example/code-mod-framework/lib/libnx_min/nx/lib\libnx_min.a(set.o)
                0x0000000000010090                setsysGetFirmwareVersion
 *fill*         0x00000000000100d4        0xc 
 .text.setsysBindFatalDirtyFlagEvent
                0x00000000000100e0      0x13c C:/Users/oukeh/OneDrive/桌面/code-mod-example/code-mod-framework/lib/libnx_min/nx/lib\libnx_min.a(set.o)
                0x00000000000100e0                setsysBindFatalDirtyFlagEvent
 *fill*         0x000000000001021c        0x4 
 .text.setsysGetFatalDirtyFlags
                0x0000000000010220       0xf8 C:/Users/oukeh/OneDrive/桌面/code-mod-example/code-mod-framework/lib/libnx_min/nx/lib\libnx_min.a(set.o)
                0x0000000000010220                setsysGetFatalDirtyFlags
 *fill*         0x0000000000010318        0x8 
 .text.setsysGetDeviceNickname
                0x0000000000010320       0xf8 C:/Users/oukeh/OneDrive/桌面/code-mod-example/code-mod-framework/lib/libnx_min/nx/lib\libnx_min.a(set.o)
                0x0000000000010320                setsysGetDeviceNickname
 *fill*         0x0000000000010418        0x8 
 .text.setsysSetDeviceNickname
                0x0000000000010420      0x134 C:/Users/oukeh/OneDrive/桌面/code-mod-example/code-mod-framework/lib/libnx_min/nx/lib\libnx_min.a(set.o)
                0x0000000000010420                setsysSetDeviceNickname
 *fill*         0x0000000000010554        0xc 
 .text._fatalImpl
                0x0000000000010560      0x140 C:/Users/oukeh/OneDrive/桌面/code-mod-example/code-mod-framework/lib/libnx_min/nx/lib\libnx_min.a(fatal.o)
 .text.fatalWithType
                0x00000000000106a0       0x14 C:/Users/oukeh/OneDrive/桌面/code-mod-example/code-mod-framework/lib/libnx_min/nx/lib\libnx_min.a(fatal.o)
                0x00000000000106a0                fatalWithType
 *fill*         0x00000000000106b4        0xc 
 .text.fatalSimple
                0x00000000000106c0       0x14 C:/Users/oukeh/OneDrive/桌面/code-mod-example/code-mod-framework/lib/libnx_min/nx/lib\libnx_min.a(fatal.o)
                0x00000000000106c0                fatalSimple
 *fill*         0x00000000000106d4        0xc 
 .text.fatalWithContext
                0x00000000000106e0       0x14 C:/Users/oukeh/OneDrive/桌面/code-mod-example/code-mod-framework/lib/libnx_min/nx/lib\libnx_min.a(fatal.o)
                0x00000000000106e0                fatalWithContext
 *fill*         0x00000000000106f4        0xc 
 .text.ipcCloseObjectById
                0x0000000000010700       0x34 C:/Users/oukeh/OneDrive/桌面/code-mod-example/code-mod-framework/lib/libnx_min/nx/lib\libnx_min.a(sm.o)
 *fill*         0x0000000000010734        0xc 
 .text.smAddOverrideHandle
                0x0000000000010740       0x44 C:/Users/oukeh/OneDrive/桌面/code-mod-example/code-mod-framework/lib/libnx_min/nx/lib\libnx_min.a(sm.o)
                0x0000000000010740                smAddOverrideHandle
 *fill*         0x0000000000010784        0xc 
 .text.smGetServiceOverride
                0x0000000000010790       0x60 C:/Users/oukeh/OneDrive/桌面/code-mod-example/code-mod-framework/lib/libnx_min/nx/lib\libnx_min.a(sm.o)
                0x0000000000010790                smGetServiceOverride
 .text.smHasInitialized
                0x00000000000107f0       0x14 C:/Users/oukeh/OneDrive/桌面/code-mod-example/code-mod-framework/lib/libnx_min/nx/lib\libnx_min.a(sm.o)
                0x00000000000107f0                smHasInitialized
 *fill*         0x0000000000010804        0xc 
 .text.smExit   0x0000000000010810       0x9c C:/Users/oukeh/OneDrive/桌面/code-mod-example/code-mod-framework/lib/libnx_min/nx/lib\libnx_min.a(sm.o)
                0x0000000000010810                smExit
 *fill*         0x00000000000108ac        0x4 
 .text.smGetServiceSession
                0x00000000000108b0        0xc C:/Users/oukeh/OneDrive/桌面/code-mod-example/code-mod-framework/lib/libnx_min/nx/lib\libnx_min.a(sm.o)
                0x00000000000108b0                smGetServiceSession
 *fill*         0x00000000000108bc        0x4 
 .text.smEncodeName
                0x00000000000108c0       0x38 C:/Users/oukeh/OneDrive/桌面/code-mod-example/code-mod-framework/lib/libnx_min/nx/lib\libnx_min.a(sm.o)
                0x00000000000108c0                smEncodeName
 *fill*         0x00000000000108f8        0x8 
 .text.smGetServiceOriginal
                0x0000000000010900      0x22c C:/Users/oukeh/OneDrive/桌面/code-mod-example/code-mod-framework/lib/libnx_min/nx/lib\libnx_min.a(sm.o)
                0x0000000000010900                smGetServiceOriginal
 *fill*         0x0000000000010b2c        0x4 
 .text.smInitialize
                0x0000000000010b30      0x27c C:/Users/oukeh/OneDrive/桌面/code-mod-example/code-mod-framework/lib/libnx_min/nx/lib\libnx_min.a(sm.o)
                0x0000000000010b30                smInitialize
 *fill*         0x0000000000010dac        0x4 
 .text.smGetService
                0x0000000000010db0       0x74 C:/Users/oukeh/OneDrive/桌面/code-mod-example/code-mod-framework/lib/libnx_min/nx/lib\libnx_min.a(sm.o)
                0x0000000000010db0                smGetService
 *fill*         0x0000000000010e24        0xc 
 .text.smRegisterService
                0x0000000000010e30      0x25c C:/Users/oukeh/OneDrive/桌面/code-mod-example/code-mod-framework/lib/libnx_min/nx/lib\libnx_min.a(sm.o)
                0x0000000000010e30                smRegisterService
 *fill*         0x000000000001108c        0x4 
 .text.smUnregisterService
                0x0000000000011090      0x1ac C:/Users/oukeh/OneDrive/桌面/code-mod-example/code-mod-framework/lib/libnx_min/nx/lib\libnx_min.a(sm.o)
                0x0000000000011090                smUnregisterService
 *fill*         0x000000000001123c        0x4 
 .text._hidGetDeviceHandles.part.7
                0x0000000000011240       0xec C:/Users/oukeh/OneDrive/桌面/code-mod-example/code-mod-framework/lib/libnx_min/nx/lib\libnx_min.a(hid.o)
 *fill*         0x000000000001132c        0x4 
 .text.ipcCloseObjectById
                0x0000000000011330       0x34 C:/Users/oukeh/OneDrive/桌面/code-mod-example/code-mod-framework/lib/libnx_min/nx/lib\libnx_min.a(hid.o)
 *fill*         0x0000000000011364        0xc 
 .text._hidActivateVibrationDevice
                0x0000000000011370       0xc8 C:/Users/oukeh/OneDrive/桌面/code-mod-example/code-mod-framework/lib/libnx_min/nx/lib\libnx_min.a(hid.o)
 *fill*         0x0000000000011438        0x8 
 .text._hidGetSharedMemoryHandle.constprop.17
                0x0000000000011440      0x124 C:/Users/oukeh/OneDrive/桌面/code-mod-example/code-mod-framework/lib/libnx_min/nx/lib\libnx_min.a(hid.o)
 *fill*         0x0000000000011564        0xc 
 .text._hidCreateActiveVibrationDeviceList
                0x0000000000011570      0x134 C:/Users/oukeh/OneDrive/桌面/code-mod-example/code-mod-framework/lib/libnx_min/nx/lib\libnx_min.a(hid.o)
 *fill*         0x00000000000116a4        0xc 
 .text._hidCmdWithNoInput
                0x00000000000116b0      0x100 C:/Users/oukeh/OneDrive/桌面/code-mod-example/code-mod-framework/lib/libnx_min/nx/lib\libnx_min.a(hid.o)
 .text._hidCreateAppletResource.constprop.16
                0x00000000000117b0      0x134 C:/Users/oukeh/OneDrive/桌面/code-mod-example/code-mod-framework/lib/libnx_min/nx/lib\libnx_min.a(hid.o)
 *fill*         0x00000000000118e4        0xc 
 .text._hidCmdWithInputU32
                0x00000000000118f0      0x10c C:/Users/oukeh/OneDrive/桌面/code-mod-example/code-mod-framework/lib/libnx_min/nx/lib\libnx_min.a(hid.o)
 *fill*         0x00000000000119fc        0x4 
 .text._hidCmdWithInputU64.constprop.18
                0x0000000000011a00      0x108 C:/Users/oukeh/OneDrive/桌面/code-mod-example/code-mod-framework/lib/libnx_min/nx/lib\libnx_min.a(hid.o)
 *fill*         0x0000000000011b08        0x8 
 .text._hidInitializeSevenSixAxisSensor.isra.11.constprop.19
                0x0000000000011b10      0x1f8 C:/Users/oukeh/OneDrive/桌面/code-mod-example/code-mod-framework/lib/libnx_min/nx/lib\libnx_min.a(hid.o)
 *fill*         0x0000000000011d08        0x8 
 .text.hidReset
                0x0000000000011d10      0x1f8 C:/Users/oukeh/OneDrive/桌面/code-mod-example/code-mod-framework/lib/libnx_min/nx/lib\libnx_min.a(hid.o)
                0x0000000000011d10                hidReset
 *fill*         0x0000000000011f08        0x8 
 .text.hidGetSessionService
                0x0000000000011f10        0xc C:/Users/oukeh/OneDrive/桌面/code-mod-example/code-mod-framework/lib/libnx_min/nx/lib\libnx_min.a(hid.o)
                0x0000000000011f10                hidGetSessionService
 *fill*         0x0000000000011f1c        0x4 
 .text.hidGetSharedmemAddr
                0x0000000000011f20        0xc C:/Users/oukeh/OneDrive/桌面/code-mod-example/code-mod-framework/lib/libnx_min/nx/lib\libnx_min.a(hid.o)
                0x0000000000011f20                hidGetSharedmemAddr
 *fill*         0x0000000000011f2c        0x4 
 .text.hidSetControllerLayout
                0x0000000000011f30       0x54 C:/Users/oukeh/OneDrive/桌面/code-mod-example/code-mod-framework/lib/libnx_min/nx/lib\libnx_min.a(hid.o)
                0x0000000000011f30                hidSetControllerLayout
 *fill*         0x0000000000011f84        0xc 
 .text.hidGetControllerLayout
                0x0000000000011f90       0x50 C:/Users/oukeh/OneDrive/桌面/code-mod-example/code-mod-framework/lib/libnx_min/nx/lib\libnx_min.a(hid.o)
                0x0000000000011f90                hidGetControllerLayout
 .text.hidGetControllerType
                0x0000000000011fe0       0x78 C:/Users/oukeh/OneDrive/桌面/code-mod-example/code-mod-framework/lib/libnx_min/nx/lib\libnx_min.a(hid.o)
                0x0000000000011fe0                hidGetControllerType
 *fill*         0x0000000000012058        0x8 
 .text.hidGetControllerColors
                0x0000000000012060       0xd4 C:/Users/oukeh/OneDrive/桌面/code-mod-example/code-mod-framework/lib/libnx_min/nx/lib\libnx_min.a(hid.o)
                0x0000000000012060                hidGetControllerColors
 *fill*         0x0000000000012134        0xc 
 .text.hidIsControllerConnected
                0x0000000000012140       0x7c C:/Users/oukeh/OneDrive/桌面/code-mod-example/code-mod-framework/lib/libnx_min/nx/lib\libnx_min.a(hid.o)
                0x0000000000012140                hidIsControllerConnected
 *fill*         0x00000000000121bc        0x4 
 .text.hidGetControllerDeviceType
                0x00000000000121c0       0x70 C:/Users/oukeh/OneDrive/桌面/code-mod-example/code-mod-framework/lib/libnx_min/nx/lib\libnx_min.a(hid.o)
                0x00000000000121c0                hidGetControllerDeviceType
 .text.hidGetControllerFlags
                0x0000000000012230       0x90 C:/Users/oukeh/OneDrive/桌面/code-mod-example/code-mod-framework/lib/libnx_min/nx/lib\libnx_min.a(hid.o)
                0x0000000000012230                hidGetControllerFlags
 .text.hidGetControllerPowerInfo
                0x00000000000122c0      0x114 C:/Users/oukeh/OneDrive/桌面/code-mod-example/code-mod-framework/lib/libnx_min/nx/lib\libnx_min.a(hid.o)
                0x00000000000122c0                hidGetControllerPowerInfo
 *fill*         0x00000000000123d4        0xc 
 .text.hidKeysHeld
                0x00000000000123e0       0x6c C:/Users/oukeh/OneDrive/桌面/code-mod-example/code-mod-framework/lib/libnx_min/nx/lib\libnx_min.a(hid.o)
                0x00000000000123e0                hidKeysHeld
 *fill*         0x000000000001244c        0x4 
 .text.hidKeysDown
                0x0000000000012450       0x6c C:/Users/oukeh/OneDrive/桌面/code-mod-example/code-mod-framework/lib/libnx_min/nx/lib\libnx_min.a(hid.o)
                0x0000000000012450                hidKeysDown
 *fill*         0x00000000000124bc        0x4 
 .text.hidKeysUp
                0x00000000000124c0       0x6c C:/Users/oukeh/OneDrive/桌面/code-mod-example/code-mod-framework/lib/libnx_min/nx/lib\libnx_min.a(hid.o)
                0x00000000000124c0                hidKeysUp
 *fill*         0x000000000001252c        0x4 
 .text.hidMouseButtonsHeld
                0x0000000000012530       0x3c C:/Users/oukeh/OneDrive/桌面/code-mod-example/code-mod-framework/lib/libnx_min/nx/lib\libnx_min.a(hid.o)
                0x0000000000012530                hidMouseButtonsHeld
 *fill*         0x000000000001256c        0x4 
 .text.hidMouseButtonsDown
                0x0000000000012570       0x3c C:/Users/oukeh/OneDrive/桌面/code-mod-example/code-mod-framework/lib/libnx_min/nx/lib\libnx_min.a(hid.o)
                0x0000000000012570                hidMouseButtonsDown
 *fill*         0x00000000000125ac        0x4 
 .text.hidMouseButtonsUp
                0x00000000000125b0       0x3c C:/Users/oukeh/OneDrive/桌面/code-mod-example/code-mod-framework/lib/libnx_min/nx/lib\libnx_min.a(hid.o)
                0x00000000000125b0                hidMouseButtonsUp
 *fill*         0x00000000000125ec        0x4 
 .text.hidMouseRead
                0x00000000000125f0       0x48 C:/Users/oukeh/OneDrive/桌面/code-mod-example/code-mod-framework/lib/libnx_min/nx/lib\libnx_min.a(hid.o)
                0x00000000000125f0                hidMouseRead
 *fill*         0x0000000000012638        0x8 
 .text.hidMouseMultiRead
                0x0000000000012640      0x150 C:/Users/oukeh/OneDrive/桌面/code-mod-example/code-mod-framework/lib/libnx_min/nx/lib\libnx_min.a(hid.o)
                0x0000000000012640                hidMouseMultiRead
 .text.hidKeyboardModifierHeld
                0x0000000000012790       0x48 C:/Users/oukeh/OneDrive/桌面/code-mod-example/code-mod-framework/lib/libnx_min/nx/lib\libnx_min.a(hid.o)
                0x0000000000012790                hidKeyboardModifierHeld
 *fill*         0x00000000000127d8        0x8 
 .text.hidKeyboardModifierDown
                0x00000000000127e0       0x48 C:/Users/oukeh/OneDrive/桌面/code-mod-example/code-mod-framework/lib/libnx_min/nx/lib\libnx_min.a(hid.o)
                0x00000000000127e0                hidKeyboardModifierDown
 *fill*         0x0000000000012828        0x8 
 .text.hidKeyboardModifierUp
                0x0000000000012830       0x48 C:/Users/oukeh/OneDrive/桌面/code-mod-example/code-mod-framework/lib/libnx_min/nx/lib\libnx_min.a(hid.o)
                0x0000000000012830                hidKeyboardModifierUp
 *fill*         0x0000000000012878        0x8 
 .text.hidKeyboardHeld
                0x0000000000012880       0x60 C:/Users/oukeh/OneDrive/桌面/code-mod-example/code-mod-framework/lib/libnx_min/nx/lib\libnx_min.a(hid.o)
                0x0000000000012880                hidKeyboardHeld
 .text.hidKeyboardDown
                0x00000000000128e0       0x60 C:/Users/oukeh/OneDrive/桌面/code-mod-example/code-mod-framework/lib/libnx_min/nx/lib\libnx_min.a(hid.o)
                0x00000000000128e0                hidKeyboardDown
 .text.hidKeyboardUp
                0x0000000000012940       0x60 C:/Users/oukeh/OneDrive/桌面/code-mod-example/code-mod-framework/lib/libnx_min/nx/lib\libnx_min.a(hid.o)
                0x0000000000012940                hidKeyboardUp
 .text.hidTouchCount
                0x00000000000129a0        0xc C:/Users/oukeh/OneDrive/桌面/code-mod-example/code-mod-framework/lib/libnx_min/nx/lib\libnx_min.a(hid.o)
                0x00000000000129a0                hidTouchCount
 *fill*         0x00000000000129ac        0x4 
 .text.hidScanInput
                0x00000000000129b0      0x598 C:/Users/oukeh/OneDrive/桌面/code-mod-example/code-mod-framework/lib/libnx_min/nx/lib\libnx_min.a(hid.o)
                0x00000000000129b0                hidScanInput
 *fill*         0x0000000000012f48        0x8 
 .text.hidTouchRead
                0x0000000000012f50       0x54 C:/Users/oukeh/OneDrive/桌面/code-mod-example/code-mod-framework/lib/libnx_min/nx/lib\libnx_min.a(hid.o)
                0x0000000000012f50                hidTouchRead
 *fill*         0x0000000000012fa4        0xc 
 .text.hidJoystickRead
                0x0000000000012fb0       0xac C:/Users/oukeh/OneDrive/桌面/code-mod-example/code-mod-framework/lib/libnx_min/nx/lib\libnx_min.a(hid.o)
                0x0000000000012fb0                hidJoystickRead
 *fill*         0x000000000001305c        0x4 
 .text.hidSixAxisSensorValuesRead
                0x0000000000013060      0x214 C:/Users/oukeh/OneDrive/桌面/code-mod-example/code-mod-framework/lib/libnx_min/nx/lib\libnx_min.a(hid.o)
                0x0000000000013060                hidSixAxisSensorValuesRead
 *fill*         0x0000000000013274        0xc 
 .text.hidGetHandheldMode
                0x0000000000013280       0x14 C:/Users/oukeh/OneDrive/桌面/code-mod-example/code-mod-framework/lib/libnx_min/nx/lib\libnx_min.a(hid.o)
                0x0000000000013280                hidGetHandheldMode
 *fill*         0x0000000000013294        0xc 
 .text.hidSetSupportedNpadIdType
                0x00000000000132a0      0x198 C:/Users/oukeh/OneDrive/桌面/code-mod-example/code-mod-framework/lib/libnx_min/nx/lib\libnx_min.a(hid.o)
                0x00000000000132a0                hidSetSupportedNpadIdType
 *fill*         0x0000000000013438        0x8 
 .text.hidSetSupportedNpadStyleSet
                0x0000000000013440        0xc C:/Users/oukeh/OneDrive/桌面/code-mod-example/code-mod-framework/lib/libnx_min/nx/lib\libnx_min.a(hid.o)
                0x0000000000013440                hidSetSupportedNpadStyleSet
 *fill*         0x000000000001344c        0x4 
 .text.hidAcquireNpadStyleSetUpdateEventHandle
                0x0000000000013450      0x194 C:/Users/oukeh/OneDrive/桌面/code-mod-example/code-mod-framework/lib/libnx_min/nx/lib\libnx_min.a(hid.o)
                0x0000000000013450                hidAcquireNpadStyleSetUpdateEventHandle
 *fill*         0x00000000000135e4        0xc 
 .text.hidSetNpadJoyHoldType
                0x00000000000135f0        0x8 C:/Users/oukeh/OneDrive/桌面/code-mod-example/code-mod-framework/lib/libnx_min/nx/lib\libnx_min.a(hid.o)
                0x00000000000135f0                hidSetNpadJoyHoldType
 *fill*         0x00000000000135f8        0x8 
 .text.hidSetNpadJoyAssignmentModeSingleByDefault
                0x0000000000013600        0xc C:/Users/oukeh/OneDrive/桌面/code-mod-example/code-mod-framework/lib/libnx_min/nx/lib\libnx_min.a(hid.o)
                0x0000000000013600                hidSetNpadJoyAssignmentModeSingleByDefault
 *fill*         0x000000000001360c        0x4 
 .text.hidSetNpadJoyAssignmentModeDual
                0x0000000000013610        0xc C:/Users/oukeh/OneDrive/桌面/code-mod-example/code-mod-framework/lib/libnx_min/nx/lib\libnx_min.a(hid.o)
                0x0000000000013610                hidSetNpadJoyAssignmentModeDual
 *fill*         0x000000000001361c        0x4 
 .text.hidMergeSingleJoyAsDualJoy
                0x0000000000013620      0x110 C:/Users/oukeh/OneDrive/桌面/code-mod-example/code-mod-framework/lib/libnx_min/nx/lib\libnx_min.a(hid.o)
                0x0000000000013620                hidMergeSingleJoyAsDualJoy
 .text.hidGetVibrationDeviceInfo
                0x0000000000013730       0xf8 C:/Users/oukeh/OneDrive/桌面/code-mod-example/code-mod-framework/lib/libnx_min/nx/lib\libnx_min.a(hid.o)
                0x0000000000013730                hidGetVibrationDeviceInfo
 *fill*         0x0000000000013828        0x8 
 .text.hidSendVibrationValue
                0x0000000000013830      0x120 C:/Users/oukeh/OneDrive/桌面/code-mod-example/code-mod-framework/lib/libnx_min/nx/lib\libnx_min.a(hid.o)
                0x0000000000013830                hidSendVibrationValue
 .text.hidGetActualVibrationValue
                0x0000000000013950      0x128 C:/Users/oukeh/OneDrive/桌面/code-mod-example/code-mod-framework/lib/libnx_min/nx/lib\libnx_min.a(hid.o)
                0x0000000000013950                hidGetActualVibrationValue
 *fill*         0x0000000000013a78        0x8 
 .text.hidPermitVibration
                0x0000000000013a80       0xd0 C:/Users/oukeh/OneDrive/桌面/code-mod-example/code-mod-framework/lib/libnx_min/nx/lib\libnx_min.a(hid.o)
                0x0000000000013a80                hidPermitVibration
 .text.hidIsVibrationPermitted
                0x0000000000013b50       0xf4 C:/Users/oukeh/OneDrive/桌面/code-mod-example/code-mod-framework/lib/libnx_min/nx/lib\libnx_min.a(hid.o)
                0x0000000000013b50                hidIsVibrationPermitted
 *fill*         0x0000000000013c44        0xc 
 .text.hidSendVibrationValues
                0x0000000000013c50      0x144 C:/Users/oukeh/OneDrive/桌面/code-mod-example/code-mod-framework/lib/libnx_min/nx/lib\libnx_min.a(hid.o)
                0x0000000000013c50                hidSendVibrationValues
 *fill*         0x0000000000013d94        0xc 
 .text.hidInitializeVibrationDevices
                0x0000000000013da0      0x114 C:/Users/oukeh/OneDrive/桌面/code-mod-example/code-mod-framework/lib/libnx_min/nx/lib\libnx_min.a(hid.o)
                0x0000000000013da0                hidInitializeVibrationDevices
 *fill*         0x0000000000013eb4        0xc 
 .text.hidGetSixAxisSensorHandles
                0x0000000000013ec0       0x2c C:/Users/oukeh/OneDrive/桌面/code-mod-example/code-mod-framework/lib/libnx_min/nx/lib\libnx_min.a(hid.o)
                0x0000000000013ec0                hidGetSixAxisSensorHandles
 *fill*         0x0000000000013eec        0x4 
 .text.hidStartSixAxisSensor
                0x0000000000013ef0       0x84 C:/Users/oukeh/OneDrive/桌面/code-mod-example/code-mod-framework/lib/libnx_min/nx/lib\libnx_min.a(hid.o)
                0x0000000000013ef0                hidStartSixAxisSensor
 *fill*         0x0000000000013f74        0xc 
 .text.hidStopSixAxisSensor
                0x0000000000013f80       0x80 C:/Users/oukeh/OneDrive/桌面/code-mod-example/code-mod-framework/lib/libnx_min/nx/lib\libnx_min.a(hid.o)
                0x0000000000013f80                hidStopSixAxisSensor
 .text.hidStartSevenSixAxisSensor
                0x0000000000014000       0x30 C:/Users/oukeh/OneDrive/桌面/code-mod-example/code-mod-framework/lib/libnx_min/nx/lib\libnx_min.a(hid.o)
                0x0000000000014000                hidStartSevenSixAxisSensor
 .text.hidStopSevenSixAxisSensor
                0x0000000000014030       0x30 C:/Users/oukeh/OneDrive/桌面/code-mod-example/code-mod-framework/lib/libnx_min/nx/lib\libnx_min.a(hid.o)
                0x0000000000014030                hidStopSevenSixAxisSensor
 .text.hidFinalizeSevenSixAxisSensor
                0x0000000000014060       0x80 C:/Users/oukeh/OneDrive/桌面/code-mod-example/code-mod-framework/lib/libnx_min/nx/lib\libnx_min.a(hid.o)
                0x0000000000014060                hidFinalizeSevenSixAxisSensor
 .text.hidExit  0x00000000000140e0      0x134 C:/Users/oukeh/OneDrive/桌面/code-mod-example/code-mod-framework/lib/libnx_min/nx/lib\libnx_min.a(hid.o)
                0x00000000000140e0                hidExit
 *fill*         0x0000000000014214        0xc 
 .text.hidInitialize
                0x0000000000014220      0x168 C:/Users/oukeh/OneDrive/桌面/code-mod-example/code-mod-framework/lib/libnx_min/nx/lib\libnx_min.a(hid.o)
                0x0000000000014220                hidInitialize
 *fill*         0x0000000000014388        0x8 
 .text.hidInitializeSevenSixAxisSensor
                0x0000000000014390      0x130 C:/Users/oukeh/OneDrive/桌面/code-mod-example/code-mod-framework/lib/libnx_min/nx/lib\libnx_min.a(hid.o)
                0x0000000000014390                hidInitializeSevenSixAxisSensor
 .text.hidSetSevenSixAxisSensorFusionStrength
                0x00000000000144c0      0x1f8 C:/Users/oukeh/OneDrive/桌面/code-mod-example/code-mod-framework/lib/libnx_min/nx/lib\libnx_min.a(hid.o)
                0x00000000000144c0                hidSetSevenSixAxisSensorFusionStrength
 *fill*         0x00000000000146b8        0x8 
 .text.hidGetSevenSixAxisSensorFusionStrength
                0x00000000000146c0      0x1fc C:/Users/oukeh/OneDrive/桌面/code-mod-example/code-mod-framework/lib/libnx_min/nx/lib\libnx_min.a(hid.o)
                0x00000000000146c0                hidGetSevenSixAxisSensorFusionStrength
 *fill*         0x00000000000148bc        0x4 
 .text.hidResetSevenSixAxisSensorTimestamp
                0x00000000000148c0       0x30 C:/Users/oukeh/OneDrive/桌面/code-mod-example/code-mod-framework/lib/libnx_min/nx/lib\libnx_min.a(hid.o)
                0x00000000000148c0                hidResetSevenSixAxisSensorTimestamp
 .text.ipcCloseObjectById
                0x00000000000148f0       0x34 C:/Users/oukeh/OneDrive/桌面/code-mod-example/code-mod-framework/lib/libnx_min/nx/lib\libnx_min.a(time.o)
 *fill*         0x0000000000014924        0xc 
 .text._timeGetSession
                0x0000000000014930      0x12c C:/Users/oukeh/OneDrive/桌面/code-mod-example/code-mod-framework/lib/libnx_min/nx/lib\libnx_min.a(time.o)
 *fill*         0x0000000000014a5c        0x4 
 .text.timeExit
                0x0000000000014a60      0x1ec C:/Users/oukeh/OneDrive/桌面/code-mod-example/code-mod-framework/lib/libnx_min/nx/lib\libnx_min.a(time.o)
                0x0000000000014a60                timeExit
 *fill*         0x0000000000014c4c        0x4 
 .text.timeInitialize
                0x0000000000014c50       0xd8 C:/Users/oukeh/OneDrive/桌面/code-mod-example/code-mod-framework/lib/libnx_min/nx/lib\libnx_min.a(time.o)
                0x0000000000014c50                timeInitialize
 *fill*         0x0000000000014d28        0x8 
 .text.timeGetSessionService
                0x0000000000014d30        0xc C:/Users/oukeh/OneDrive/桌面/code-mod-example/code-mod-framework/lib/libnx_min/nx/lib\libnx_min.a(time.o)
                0x0000000000014d30                timeGetSessionService
 *fill*         0x0000000000014d3c        0x4 
 .text.timeGetCurrentTime
                0x0000000000014d40      0x124 C:/Users/oukeh/OneDrive/桌面/code-mod-example/code-mod-framework/lib/libnx_min/nx/lib\libnx_min.a(time.o)
                0x0000000000014d40                timeGetCurrentTime
 *fill*         0x0000000000014e64        0xc 
 .text.timeSetCurrentTime
                0x0000000000014e70      0x104 C:/Users/oukeh/OneDrive/桌面/code-mod-example/code-mod-framework/lib/libnx_min/nx/lib\libnx_min.a(time.o)
                0x0000000000014e70                timeSetCurrentTime
 *fill*         0x0000000000014f74        0xc 
 .text.timeToCalendarTimeWithMyRule
                0x0000000000014f80      0x118 C:/Users/oukeh/OneDrive/桌面/code-mod-example/code-mod-framework/lib/libnx_min/nx/lib\libnx_min.a(time.o)
                0x0000000000014f80                timeToCalendarTimeWithMyRule
 *fill*         0x0000000000015098        0x8 
 .text.ipcPrepareHeader
                0x00000000000150a0      0x220 C:/Users/oukeh/OneDrive/桌面/code-mod-example/code-mod-framework/lib/libnx_min/nx/lib\libnx_min.a(applet.o)
 .text.ipcParse
                0x00000000000152c0      0x22c C:/Users/oukeh/OneDrive/桌面/code-mod-example/code-mod-framework/lib/libnx_min/nx/lib\libnx_min.a(applet.o)
 *fill*         0x00000000000154ec        0x4 
 .text.serviceIpcParse
                0x00000000000154f0       0xb0 C:/Users/oukeh/OneDrive/桌面/code-mod-example/code-mod-framework/lib/libnx_min/nx/lib\libnx_min.a(applet.o)
 .text.ipcConvertSessionToDomain
                0x00000000000155a0       0x78 C:/Users/oukeh/OneDrive/桌面/code-mod-example/code-mod-framework/lib/libnx_min/nx/lib\libnx_min.a(applet.o)
 *fill*         0x0000000000015618        0x8 
 .text.ipcQueryPointerBufferSize
                0x0000000000015620       0x7c C:/Users/oukeh/OneDrive/桌面/code-mod-example/code-mod-framework/lib/libnx_min/nx/lib\libnx_min.a(applet.o)
 *fill*         0x000000000001569c        0x4 
 .text.ipcCloneSession.constprop.52
                0x00000000000156a0       0x84 C:/Users/oukeh/OneDrive/桌面/code-mod-example/code-mod-framework/lib/libnx_min/nx/lib\libnx_min.a(applet.o)
 *fill*         0x0000000000015724        0xc 
 .text.ipcCloseObjectById
                0x0000000000015730       0x34 C:/Users/oukeh/OneDrive/桌面/code-mod-example/code-mod-framework/lib/libnx_min/nx/lib\libnx_min.a(applet.o)
 *fill*         0x0000000000015764        0xc 
 .text.serviceClose
                0x0000000000015770       0x6c C:/Users/oukeh/OneDrive/桌面/code-mod-example/code-mod-framework/lib/libnx_min/nx/lib\libnx_min.a(applet.o)
 *fill*         0x00000000000157dc        0x4 
 .text._appletCmdInHandle64
                0x00000000000157e0      0x204 C:/Users/oukeh/OneDrive/桌面/code-mod-example/code-mod-framework/lib/libnx_min/nx/lib\libnx_min.a(applet.o)
 *fill*         0x00000000000159e4        0xc 
 .text._appletReceiveMessage
                0x00000000000159f0      0x19c C:/Users/oukeh/OneDrive/桌面/code-mod-example/code-mod-framework/lib/libnx_min/nx/lib\libnx_min.a(applet.o)
 *fill*         0x0000000000015b8c        0x4 
 .text._appletCmdNoIO
                0x0000000000015b90      0x164 C:/Users/oukeh/OneDrive/桌面/code-mod-example/code-mod-framework/lib/libnx_min/nx/lib\libnx_min.a(applet.o)
 *fill*         0x0000000000015cf4        0xc 
 .text._appletGetOperationMode.constprop.43
                0x0000000000015d00      0x18c C:/Users/oukeh/OneDrive/桌面/code-mod-example/code-mod-framework/lib/libnx_min/nx/lib\libnx_min.a(applet.o)
 *fill*         0x0000000000015e8c        0x4 
 .text._appletGetCurrentFocusState.constprop.45
                0x0000000000015e90      0x18c C:/Users/oukeh/OneDrive/桌面/code-mod-example/code-mod-framework/lib/libnx_min/nx/lib\libnx_min.a(applet.o)
 *fill*         0x000000000001601c        0x4 
 .text._appletGetPerformanceMode.constprop.44
                0x0000000000016020      0x18c C:/Users/oukeh/OneDrive/桌面/code-mod-example/code-mod-framework/lib/libnx_min/nx/lib\libnx_min.a(applet.o)
 *fill*         0x00000000000161ac        0x4 
 .text._appletCmdNoInOutBool
                0x00000000000161b0      0x184 C:/Users/oukeh/OneDrive/桌面/code-mod-example/code-mod-framework/lib/libnx_min/nx/lib\libnx_min.a(applet.o)
 *fill*         0x0000000000016334        0xc 
 .text._appletGetSession
                0x0000000000016340      0x1d8 C:/Users/oukeh/OneDrive/桌面/code-mod-example/code-mod-framework/lib/libnx_min/nx/lib\libnx_min.a(applet.o)
 *fill*         0x0000000000016518        0x8 
 .text._appletCmdNoInOut64
                0x0000000000016520      0x17c C:/Users/oukeh/OneDrive/桌面/code-mod-example/code-mod-framework/lib/libnx_min/nx/lib\libnx_min.a(applet.o)
 *fill*         0x000000000001669c        0x4 
 .text._appletSetOperationModeChangedNotification.constprop.46
                0x00000000000166a0      0x164 C:/Users/oukeh/OneDrive/桌面/code-mod-example/code-mod-framework/lib/libnx_min/nx/lib\libnx_min.a(applet.o)
 *fill*         0x0000000000016804        0xc 
 .text._appletCmdInU8
                0x0000000000016810      0x17c C:/Users/oukeh/OneDrive/桌面/code-mod-example/code-mod-framework/lib/libnx_min/nx/lib\libnx_min.a(applet.o)
 *fill*         0x000000000001698c        0x4 
 .text._appletSetOutOfFocusSuspendingEnabled
                0x0000000000016990      0x16c C:/Users/oukeh/OneDrive/桌面/code-mod-example/code-mod-framework/lib/libnx_min/nx/lib\libnx_min.a(applet.o)
 *fill*         0x0000000000016afc        0x4 
 .text._appletSetPerformanceModeChangedNotification.constprop.47
                0x0000000000016b00      0x164 C:/Users/oukeh/OneDrive/桌面/code-mod-example/code-mod-framework/lib/libnx_min/nx/lib\libnx_min.a(applet.o)
 *fill*         0x0000000000016c64        0xc 
 .text._appletCmdInU64.constprop.37
                0x0000000000016c70      0x16c C:/Users/oukeh/OneDrive/桌面/code-mod-example/code-mod-framework/lib/libnx_min/nx/lib\libnx_min.a(applet.o)
 *fill*         0x0000000000016ddc        0x4 
 .text._appletCmdInU32.constprop.48
                0x0000000000016de0      0x16c C:/Users/oukeh/OneDrive/桌面/code-mod-example/code-mod-framework/lib/libnx_min/nx/lib\libnx_min.a(applet.o)
 *fill*         0x0000000000016f4c        0x4 
 .text._appletSetFocusHandlingMode
                0x0000000000016f50      0x17c C:/Users/oukeh/OneDrive/桌面/code-mod-example/code-mod-framework/lib/libnx_min/nx/lib\libnx_min.a(applet.o)
 *fill*         0x00000000000170cc        0x4 
 .text._appletGetHandle.constprop.42
                0x00000000000170d0      0x178 C:/Users/oukeh/OneDrive/桌面/code-mod-example/code-mod-framework/lib/libnx_min/nx/lib\libnx_min.a(applet.o)
 *fill*         0x0000000000017248        0x8 
 .text._appletGetEvent.constprop.41
                0x0000000000017250       0x54 C:/Users/oukeh/OneDrive/桌面/code-mod-example/code-mod-framework/lib/libnx_min/nx/lib\libnx_min.a(applet.o)
 *fill*         0x00000000000172a4        0xc 
 .text._appletWaitLibraryAppletLaunchableEvent
                0x00000000000172b0       0x50 C:/Users/oukeh/OneDrive/桌面/code-mod-example/code-mod-framework/lib/libnx_min/nx/lib\libnx_min.a(applet.o)
 .text._appletCreateApplicationAndRequestToStartForQuest.isra.20
                0x0000000000017300      0x17c C:/Users/oukeh/OneDrive/桌面/code-mod-example/code-mod-framework/lib/libnx_min/nx/lib\libnx_min.a(applet.o)
 *fill*         0x000000000001747c        0x4 
 .text._appletCreateApplicationAndPushAndRequestToStart
                0x0000000000017480      0x1e0 C:/Users/oukeh/OneDrive/桌面/code-mod-example/code-mod-framework/lib/libnx_min/nx/lib\libnx_min.a(applet.o)
 .text._appletCmdNoInOut32.constprop.38
                0x0000000000017660      0x194 C:/Users/oukeh/OneDrive/桌面/code-mod-example/code-mod-framework/lib/libnx_min/nx/lib\libnx_min.a(applet.o)
 *fill*         0x00000000000177f4        0xc 
 .text._appletCmdInSession
                0x0000000000017800      0x1d8 C:/Users/oukeh/OneDrive/桌面/code-mod-example/code-mod-framework/lib/libnx_min/nx/lib\libnx_min.a(applet.o)
 *fill*         0x00000000000179d8        0x8 
 .text._appletStorageGetHandle
                0x00000000000179e0      0x19c C:/Users/oukeh/OneDrive/桌面/code-mod-example/code-mod-framework/lib/libnx_min/nx/lib\libnx_min.a(applet.o)
 *fill*         0x0000000000017b7c        0x4 
 .text._appletCreateApplicationAndPushAndRequestToStartForQuest.isra.21
                0x0000000000017b80      0x1e8 C:/Users/oukeh/OneDrive/桌面/code-mod-example/code-mod-framework/lib/libnx_min/nx/lib\libnx_min.a(applet.o)
 *fill*         0x0000000000017d68        0x8 
 .text._appletCreateTransferMemoryStorage.isra.25
                0x0000000000017d70      0x1e4 C:/Users/oukeh/OneDrive/桌面/code-mod-example/code-mod-framework/lib/libnx_min/nx/lib\libnx_min.a(applet.o)
 *fill*         0x0000000000017f54        0xc 
 .text._appletGetSessionIn64.constprop.39
                0x0000000000017f60      0x1c4 C:/Users/oukeh/OneDrive/桌面/code-mod-example/code-mod-framework/lib/libnx_min/nx/lib\libnx_min.a(applet.o)
 *fill*         0x0000000000018124        0xc 
 .text._appletStorageAccessorRW
                0x0000000000018130      0x314 C:/Users/oukeh/OneDrive/桌面/code-mod-example/code-mod-framework/lib/libnx_min/nx/lib\libnx_min.a(applet.o)
 *fill*         0x0000000000018444        0xc 
 .text._appletStorageRW
                0x0000000000018450      0x108 C:/Users/oukeh/OneDrive/桌面/code-mod-example/code-mod-framework/lib/libnx_min/nx/lib\libnx_min.a(applet.o)
 *fill*         0x0000000000018558        0x8 
 .text._appletCreateLibraryApplet
                0x0000000000018560      0x1c4 C:/Users/oukeh/OneDrive/桌面/code-mod-example/code-mod-framework/lib/libnx_min/nx/lib\libnx_min.a(applet.o)
 *fill*         0x0000000000018724        0xc 
 .text._appletGetSessionProxy.constprop.40
                0x0000000000018730      0x1f0 C:/Users/oukeh/OneDrive/桌面/code-mod-example/code-mod-framework/lib/libnx_min/nx/lib\libnx_min.a(applet.o)
 .text.appletGetAppletType
                0x0000000000018920       0x10 C:/Users/oukeh/OneDrive/桌面/code-mod-example/code-mod-framework/lib/libnx_min/nx/lib\libnx_min.a(applet.o)
                0x0000000000018920                appletGetAppletType
 .text.appletHook
                0x0000000000018930       0x28 C:/Users/oukeh/OneDrive/桌面/code-mod-example/code-mod-framework/lib/libnx_min/nx/lib\libnx_min.a(applet.o)
                0x0000000000018930                appletHook
 *fill*         0x0000000000018958        0x8 
 .text.appletUnhook
                0x0000000000018960       0x34 C:/Users/oukeh/OneDrive/桌面/code-mod-example/code-mod-framework/lib/libnx_min/nx/lib\libnx_min.a(applet.o)
                0x0000000000018960                appletUnhook
 *fill*         0x0000000000018994        0xc 
 .text.appletSetThemeColorType
                0x00000000000189a0        0xc C:/Users/oukeh/OneDrive/桌面/code-mod-example/code-mod-framework/lib/libnx_min/nx/lib\libnx_min.a(applet.o)
                0x00000000000189a0                appletSetThemeColorType
 *fill*         0x00000000000189ac        0x4 
 .text.appletGetThemeColorType
                0x00000000000189b0        0xc C:/Users/oukeh/OneDrive/桌面/code-mod-example/code-mod-framework/lib/libnx_min/nx/lib\libnx_min.a(applet.o)
                0x00000000000189b0                appletGetThemeColorType
 *fill*         0x00000000000189bc        0x4 
 .text.appletSetFocusHandlingMode
                0x00000000000189c0       0xf0 C:/Users/oukeh/OneDrive/桌面/code-mod-example/code-mod-framework/lib/libnx_min/nx/lib\libnx_min.a(applet.o)
                0x00000000000189c0                appletSetFocusHandlingMode
 .text.appletGetAppletResourceUserId
                0x0000000000018ab0       0x28 C:/Users/oukeh/OneDrive/桌面/code-mod-example/code-mod-framework/lib/libnx_min/nx/lib\libnx_min.a(applet.o)
                0x0000000000018ab0                appletGetAppletResourceUserId
 *fill*         0x0000000000018ad8        0x8 
 .text._appletGetIndirectLayerConsumerHandle
                0x0000000000018ae0      0x12c C:/Users/oukeh/OneDrive/桌面/code-mod-example/code-mod-framework/lib/libnx_min/nx/lib\libnx_min.a(applet.o)
 *fill*         0x0000000000018c0c        0x4 
 .text._appletHolderCreate
                0x0000000000018c10       0xc0 C:/Users/oukeh/OneDrive/桌面/code-mod-example/code-mod-framework/lib/libnx_min/nx/lib\libnx_min.a(applet.o)
 .text.appletPopLaunchParameter
                0x0000000000018cd0      0x194 C:/Users/oukeh/OneDrive/桌面/code-mod-example/code-mod-framework/lib/libnx_min/nx/lib\libnx_min.a(applet.o)
                0x0000000000018cd0                appletPopLaunchParameter
 *fill*         0x0000000000018e64        0xc 
 .text.appletGetDesiredLanguage
                0x0000000000018e70       0x3c C:/Users/oukeh/OneDrive/桌面/code-mod-example/code-mod-framework/lib/libnx_min/nx/lib\libnx_min.a(applet.o)
                0x0000000000018e70                appletGetDesiredLanguage
 *fill*         0x0000000000018eac        0x4 
 .text.appletSetTerminateResult
                0x0000000000018eb0      0x14c C:/Users/oukeh/OneDrive/桌面/code-mod-example/code-mod-framework/lib/libnx_min/nx/lib\libnx_min.a(applet.o)
                0x0000000000018eb0                appletSetTerminateResult
 *fill*         0x0000000000018ffc        0x4 
 .text.appletSetMediaPlaybackState
                0x0000000000019000       0x4c C:/Users/oukeh/OneDrive/桌面/code-mod-example/code-mod-framework/lib/libnx_min/nx/lib\libnx_min.a(applet.o)
                0x0000000000019000                appletSetMediaPlaybackState
 *fill*         0x000000000001904c        0x4 
 .text.appletBeginBlockingHomeButton
                0x0000000000019050      0x14c C:/Users/oukeh/OneDrive/桌面/code-mod-example/code-mod-framework/lib/libnx_min/nx/lib\libnx_min.a(applet.o)
                0x0000000000019050                appletBeginBlockingHomeButton
 *fill*         0x000000000001919c        0x4 
 .text.appletEndBlockingHomeButton
                0x00000000000191a0       0x38 C:/Users/oukeh/OneDrive/桌面/code-mod-example/code-mod-framework/lib/libnx_min/nx/lib\libnx_min.a(applet.o)
                0x00000000000191a0                appletEndBlockingHomeButton
 *fill*         0x00000000000191d8        0x8 
 .text.appletNotifyRunning
                0x00000000000191e0      0x174 C:/Users/oukeh/OneDrive/桌面/code-mod-example/code-mod-framework/lib/libnx_min/nx/lib\libnx_min.a(applet.o)
                0x00000000000191e0                appletNotifyRunning
 *fill*         0x0000000000019354        0xc 
 .text.appletIsGamePlayRecordingSupported
                0x0000000000019360      0x168 C:/Users/oukeh/OneDrive/桌面/code-mod-example/code-mod-framework/lib/libnx_min/nx/lib\libnx_min.a(applet.o)
                0x0000000000019360                appletIsGamePlayRecordingSupported
 *fill*         0x00000000000194c8        0x8 
 .text.appletSetGamePlayRecordingState
                0x00000000000194d0      0x158 C:/Users/oukeh/OneDrive/桌面/code-mod-example/code-mod-framework/lib/libnx_min/nx/lib\libnx_min.a(applet.o)
                0x00000000000194d0                appletSetGamePlayRecordingState
 *fill*         0x0000000000019628        0x8 
 .text.appletInitializeGamePlayRecording
                0x0000000000019630      0x138 C:/Users/oukeh/OneDrive/桌面/code-mod-example/code-mod-framework/lib/libnx_min/nx/lib\libnx_min.a(applet.o)
                0x0000000000019630                appletInitializeGamePlayRecording
 *fill*         0x0000000000019768        0x8 
 .text.appletQueryApplicationPlayStatistics
                0x0000000000019770      0x1c0 C:/Users/oukeh/OneDrive/桌面/code-mod-example/code-mod-framework/lib/libnx_min/nx/lib\libnx_min.a(applet.o)
                0x0000000000019770                appletQueryApplicationPlayStatistics
 .text.appletBeginToWatchShortHomeButtonMessage
                0x0000000000019930       0x2c C:/Users/oukeh/OneDrive/桌面/code-mod-example/code-mod-framework/lib/libnx_min/nx/lib\libnx_min.a(applet.o)
                0x0000000000019930                appletBeginToWatchShortHomeButtonMessage
 *fill*         0x000000000001995c        0x4 
 .text.appletEndToWatchShortHomeButtonMessage
                0x0000000000019960       0x2c C:/Users/oukeh/OneDrive/桌面/code-mod-example/code-mod-framework/lib/libnx_min/nx/lib\libnx_min.a(applet.o)
                0x0000000000019960                appletEndToWatchShortHomeButtonMessage
 *fill*         0x000000000001998c        0x4 
 .text.appletHomeButtonReaderLockAccessorGetEvent
                0x0000000000019990       0xc8 C:/Users/oukeh/OneDrive/桌面/code-mod-example/code-mod-framework/lib/libnx_min/nx/lib\libnx_min.a(applet.o)
                0x0000000000019990                appletHomeButtonReaderLockAccessorGetEvent
 *fill*         0x0000000000019a58        0x8 
 .text.appletIsVrModeEnabled
                0x0000000000019a60       0x4c C:/Users/oukeh/OneDrive/桌面/code-mod-example/code-mod-framework/lib/libnx_min/nx/lib\libnx_min.a(applet.o)
                0x0000000000019a60                appletIsVrModeEnabled
 *fill*         0x0000000000019aac        0x4 
 .text.appletSetVrModeEnabled
                0x0000000000019ab0       0x78 C:/Users/oukeh/OneDrive/桌面/code-mod-example/code-mod-framework/lib/libnx_min/nx/lib\libnx_min.a(applet.o)
                0x0000000000019ab0                appletSetVrModeEnabled
 *fill*         0x0000000000019b28        0x8 
 .text.appletSetCpuBoostMode
                0x0000000000019b30       0x50 C:/Users/oukeh/OneDrive/桌面/code-mod-example/code-mod-framework/lib/libnx_min/nx/lib\libnx_min.a(applet.o)
                0x0000000000019b30                appletSetCpuBoostMode
 .text.appletExit
                0x0000000000019b80      0x5dc C:/Users/oukeh/OneDrive/桌面/code-mod-example/code-mod-framework/lib/libnx_min/nx/lib\libnx_min.a(applet.o)
                0x0000000000019b80                appletExit
 *fill*         0x000000000001a15c        0x4 
 .text.appletInitialize
                0x000000000001a160      0x4f0 C:/Users/oukeh/OneDrive/桌面/code-mod-example/code-mod-framework/lib/libnx_min/nx/lib\libnx_min.a(applet.o)
                0x000000000001a160                appletInitialize
 .text._appletExitProcess
                0x000000000001a650       0x10 C:/Users/oukeh/OneDrive/桌面/code-mod-example/code-mod-framework/lib/libnx_min/nx/lib\libnx_min.a(applet.o)
 .text.appletGetCurrentPerformanceConfiguration
                0x000000000001a660       0x40 C:/Users/oukeh/OneDrive/桌面/code-mod-example/code-mod-framework/lib/libnx_min/nx/lib\libnx_min.a(applet.o)
                0x000000000001a660                appletGetCurrentPerformanceConfiguration
 .text.appletLockExit
                0x000000000001a6a0       0x10 C:/Users/oukeh/OneDrive/桌面/code-mod-example/code-mod-framework/lib/libnx_min/nx/lib\libnx_min.a(applet.o)
                0x000000000001a6a0                appletLockExit
 .text.appletUnlockExit
                0x000000000001a6b0       0x10 C:/Users/oukeh/OneDrive/桌面/code-mod-example/code-mod-framework/lib/libnx_min/nx/lib\libnx_min.a(applet.o)
                0x000000000001a6b0                appletUnlockExit
 .text.appletSetScreenShotPermission
                0x000000000001a6c0      0x16c C:/Users/oukeh/OneDrive/桌面/code-mod-example/code-mod-framework/lib/libnx_min/nx/lib\libnx_min.a(applet.o)
                0x000000000001a6c0                appletSetScreenShotPermission
 *fill*         0x000000000001a82c        0x4 
 .text.appletSetScreenShotImageOrientation
                0x000000000001a830      0x1c4 C:/Users/oukeh/OneDrive/桌面/code-mod-example/code-mod-framework/lib/libnx_min/nx/lib\libnx_min.a(applet.o)
                0x000000000001a830                appletSetScreenShotImageOrientation
 *fill*         0x000000000001a9f4        0xc 
 .text.appletCreateManagedDisplayLayer
                0x000000000001aa00       0x14 C:/Users/oukeh/OneDrive/桌面/code-mod-example/code-mod-framework/lib/libnx_min/nx/lib\libnx_min.a(applet.o)
                0x000000000001aa00                appletCreateManagedDisplayLayer
 *fill*         0x000000000001aa14        0xc 
 .text.appletGetCurrentIlluminance
                0x000000000001aa20      0x168 C:/Users/oukeh/OneDrive/桌面/code-mod-example/code-mod-framework/lib/libnx_min/nx/lib\libnx_min.a(applet.o)
                0x000000000001aa20                appletGetCurrentIlluminance
 *fill*         0x000000000001ab88        0x8 
 .text.appletIsIlluminanceAvailable
                0x000000000001ab90       0x4c C:/Users/oukeh/OneDrive/桌面/code-mod-example/code-mod-framework/lib/libnx_min/nx/lib\libnx_min.a(applet.o)
                0x000000000001ab90                appletIsIlluminanceAvailable
 *fill*         0x000000000001abdc        0x4 
 .text.appletGetCurrentIlluminanceEx
                0x000000000001abe0      0x19c C:/Users/oukeh/OneDrive/桌面/code-mod-example/code-mod-framework/lib/libnx_min/nx/lib\libnx_min.a(applet.o)
                0x000000000001abe0                appletGetCurrentIlluminanceEx
 *fill*         0x000000000001ad7c        0x4 
 .text.appletCreateLibraryApplet
                0x000000000001ad80        0x8 C:/Users/oukeh/OneDrive/桌面/code-mod-example/code-mod-framework/lib/libnx_min/nx/lib\libnx_min.a(applet.o)
                0x000000000001ad80                appletCreateLibraryApplet
 *fill*         0x000000000001ad88        0x8 
 .text.appletCreateLibraryAppletSelf
                0x000000000001ad90        0x8 C:/Users/oukeh/OneDrive/桌面/code-mod-example/code-mod-framework/lib/libnx_min/nx/lib\libnx_min.a(applet.o)
                0x000000000001ad90                appletCreateLibraryAppletSelf
 *fill*         0x000000000001ad98        0x8 
 .text.appletHolderClose
                0x000000000001ada0       0x94 C:/Users/oukeh/OneDrive/桌面/code-mod-example/code-mod-framework/lib/libnx_min/nx/lib\libnx_min.a(applet.o)
                0x000000000001ada0                appletHolderClose
 *fill*         0x000000000001ae34        0xc 
 .text.appletHolderActive
                0x000000000001ae40       0x10 C:/Users/oukeh/OneDrive/桌面/code-mod-example/code-mod-framework/lib/libnx_min/nx/lib\libnx_min.a(applet.o)
                0x000000000001ae40                appletHolderActive
 .text.appletHolderGetIndirectLayerConsumerHandle
                0x000000000001ae50       0x74 C:/Users/oukeh/OneDrive/桌面/code-mod-example/code-mod-framework/lib/libnx_min/nx/lib\libnx_min.a(applet.o)
                0x000000000001ae50                appletHolderGetIndirectLayerConsumerHandle
 *fill*         0x000000000001aec4        0xc 
 .text.appletHolderStart
                0x000000000001aed0       0x50 C:/Users/oukeh/OneDrive/桌面/code-mod-example/code-mod-framework/lib/libnx_min/nx/lib\libnx_min.a(applet.o)
                0x000000000001aed0                appletHolderStart
 .text.appletHolderJoin
                0x000000000001af20       0x80 C:/Users/oukeh/OneDrive/桌面/code-mod-example/code-mod-framework/lib/libnx_min/nx/lib\libnx_min.a(applet.o)
                0x000000000001af20                appletHolderJoin
 .text.appletHolderCheckFinished
                0x000000000001afa0       0x24 C:/Users/oukeh/OneDrive/桌面/code-mod-example/code-mod-framework/lib/libnx_min/nx/lib\libnx_min.a(applet.o)
                0x000000000001afa0                appletHolderCheckFinished
 *fill*         0x000000000001afc4        0xc 
 .text.appletHolderRequestExit
                0x000000000001afd0       0x50 C:/Users/oukeh/OneDrive/桌面/code-mod-example/code-mod-framework/lib/libnx_min/nx/lib\libnx_min.a(applet.o)
                0x000000000001afd0                appletHolderRequestExit
 .text.appletHolderGetExitReason
                0x000000000001b020        0x8 C:/Users/oukeh/OneDrive/桌面/code-mod-example/code-mod-framework/lib/libnx_min/nx/lib\libnx_min.a(applet.o)
                0x000000000001b020                appletHolderGetExitReason
 *fill*         0x000000000001b028        0x8 
 .text.appletHolderWaitInteractiveOut
                0x000000000001b030       0x88 C:/Users/oukeh/OneDrive/桌面/code-mod-example/code-mod-framework/lib/libnx_min/nx/lib\libnx_min.a(applet.o)
                0x000000000001b030                appletHolderWaitInteractiveOut
 *fill*         0x000000000001b0b8        0x8 
 .text.appletHolderPopOutData
                0x000000000001b0c0       0x18 C:/Users/oukeh/OneDrive/桌面/code-mod-example/code-mod-framework/lib/libnx_min/nx/lib\libnx_min.a(applet.o)
                0x000000000001b0c0                appletHolderPopOutData
 *fill*         0x000000000001b0d8        0x8 
 .text.appletHolderPopInteractiveOutData
                0x000000000001b0e0       0x18 C:/Users/oukeh/OneDrive/桌面/code-mod-example/code-mod-framework/lib/libnx_min/nx/lib\libnx_min.a(applet.o)
                0x000000000001b0e0                appletHolderPopInteractiveOutData
 *fill*         0x000000000001b0f8        0x8 
 .text.appletCreateStorage
                0x000000000001b100       0x14 C:/Users/oukeh/OneDrive/桌面/code-mod-example/code-mod-framework/lib/libnx_min/nx/lib\libnx_min.a(applet.o)
                0x000000000001b100                appletCreateStorage
 *fill*         0x000000000001b114        0xc 
 .text.appletCreateTransferMemoryStorage
                0x000000000001b120       0xa8 C:/Users/oukeh/OneDrive/桌面/code-mod-example/code-mod-framework/lib/libnx_min/nx/lib\libnx_min.a(applet.o)
                0x000000000001b120                appletCreateTransferMemoryStorage
 *fill*         0x000000000001b1c8        0x8 
 .text.appletCreateHandleStorage
                0x000000000001b1d0       0x64 C:/Users/oukeh/OneDrive/桌面/code-mod-example/code-mod-framework/lib/libnx_min/nx/lib\libnx_min.a(applet.o)
                0x000000000001b1d0                appletCreateHandleStorage
 *fill*         0x000000000001b234        0xc 
 .text.appletCreateHandleStorageTmem
                0x000000000001b240       0xa0 C:/Users/oukeh/OneDrive/桌面/code-mod-example/code-mod-framework/lib/libnx_min/nx/lib\libnx_min.a(applet.o)
                0x000000000001b240                appletCreateHandleStorageTmem
 .text.appletStorageClose
                0x000000000001b2e0       0x6c C:/Users/oukeh/OneDrive/桌面/code-mod-example/code-mod-framework/lib/libnx_min/nx/lib\libnx_min.a(applet.o)
                0x000000000001b2e0                appletStorageClose
 *fill*         0x000000000001b34c        0x4 
 .text.appletRequestLaunchApplication
                0x000000000001b350      0x188 C:/Users/oukeh/OneDrive/桌面/code-mod-example/code-mod-framework/lib/libnx_min/nx/lib\libnx_min.a(applet.o)
                0x000000000001b350                appletRequestLaunchApplication
 *fill*         0x000000000001b4d8        0x8 
 .text.appletRequestLaunchApplicationForQuest
                0x000000000001b4e0      0x168 C:/Users/oukeh/OneDrive/桌面/code-mod-example/code-mod-framework/lib/libnx_min/nx/lib\libnx_min.a(applet.o)
                0x000000000001b4e0                appletRequestLaunchApplicationForQuest
 *fill*         0x000000000001b648        0x8 
 .text.appletHolderPushInteractiveInData
                0x000000000001b650       0x40 C:/Users/oukeh/OneDrive/桌面/code-mod-example/code-mod-framework/lib/libnx_min/nx/lib\libnx_min.a(applet.o)
                0x000000000001b650                appletHolderPushInteractiveInData
 .text.appletPushToGeneralChannel
                0x000000000001b690       0x4c C:/Users/oukeh/OneDrive/桌面/code-mod-example/code-mod-framework/lib/libnx_min/nx/lib\libnx_min.a(applet.o)
                0x000000000001b690                appletPushToGeneralChannel
 *fill*         0x000000000001b6dc        0x4 
 .text.appletHolderPushInData
                0x000000000001b6e0       0x40 C:/Users/oukeh/OneDrive/桌面/code-mod-example/code-mod-framework/lib/libnx_min/nx/lib\libnx_min.a(applet.o)
                0x000000000001b6e0                appletHolderPushInData
 .text.appletHolderPushExtraStorage
                0x000000000001b720       0x40 C:/Users/oukeh/OneDrive/桌面/code-mod-example/code-mod-framework/lib/libnx_min/nx/lib\libnx_min.a(applet.o)
                0x000000000001b720                appletHolderPushExtraStorage
 .text.appletStorageCloseTmem
                0x000000000001b760        0x8 C:/Users/oukeh/OneDrive/桌面/code-mod-example/code-mod-framework/lib/libnx_min/nx/lib\libnx_min.a(applet.o)
                0x000000000001b760                appletStorageCloseTmem
 *fill*         0x000000000001b768        0x8 
 .text.appletStorageGetSize
                0x000000000001b770       0xc4 C:/Users/oukeh/OneDrive/桌面/code-mod-example/code-mod-framework/lib/libnx_min/nx/lib\libnx_min.a(applet.o)
                0x000000000001b770                appletStorageGetSize
 *fill*         0x000000000001b834        0xc 
 .text.appletStorageWrite
                0x000000000001b840        0x8 C:/Users/oukeh/OneDrive/桌面/code-mod-example/code-mod-framework/lib/libnx_min/nx/lib\libnx_min.a(applet.o)
                0x000000000001b840                appletStorageWrite
 *fill*         0x000000000001b848        0x8 
 .text.appletStorageRead
                0x000000000001b850        0x8 C:/Users/oukeh/OneDrive/桌面/code-mod-example/code-mod-framework/lib/libnx_min/nx/lib\libnx_min.a(applet.o)
                0x000000000001b850                appletStorageRead
 *fill*         0x000000000001b858        0x8 
 .text.appletStorageGetHandle
                0x000000000001b860       0xfc C:/Users/oukeh/OneDrive/桌面/code-mod-example/code-mod-framework/lib/libnx_min/nx/lib\libnx_min.a(applet.o)
                0x000000000001b860                appletStorageGetHandle
 *fill*         0x000000000001b95c        0x4 
 .text.appletStorageMap
                0x000000000001b960       0xcc C:/Users/oukeh/OneDrive/桌面/code-mod-example/code-mod-framework/lib/libnx_min/nx/lib\libnx_min.a(applet.o)
                0x000000000001b960                appletStorageMap
 *fill*         0x000000000001ba2c        0x4 
 .text.appletGetOperationMode
                0x000000000001ba30        0xc C:/Users/oukeh/OneDrive/桌面/code-mod-example/code-mod-framework/lib/libnx_min/nx/lib\libnx_min.a(applet.o)
                0x000000000001ba30                appletGetOperationMode
 *fill*         0x000000000001ba3c        0x4 
 .text.appletGetPerformanceMode
                0x000000000001ba40        0xc C:/Users/oukeh/OneDrive/桌面/code-mod-example/code-mod-framework/lib/libnx_min/nx/lib\libnx_min.a(applet.o)
                0x000000000001ba40                appletGetPerformanceMode
 *fill*         0x000000000001ba4c        0x4 
 .text.appletGetFocusState
                0x000000000001ba50        0xc C:/Users/oukeh/OneDrive/桌面/code-mod-example/code-mod-framework/lib/libnx_min/nx/lib\libnx_min.a(applet.o)
                0x000000000001ba50                appletGetFocusState
 *fill*         0x000000000001ba5c        0x4 
 .text.appletGetMessage
                0x000000000001ba60       0x5c C:/Users/oukeh/OneDrive/桌面/code-mod-example/code-mod-framework/lib/libnx_min/nx/lib\libnx_min.a(applet.o)
                0x000000000001ba60                appletGetMessage
 *fill*         0x000000000001babc        0x4 
 .text.appletProcessMessage
                0x000000000001bac0      0x118 C:/Users/oukeh/OneDrive/桌面/code-mod-example/code-mod-framework/lib/libnx_min/nx/lib\libnx_min.a(applet.o)
                0x000000000001bac0                appletProcessMessage
 *fill*         0x000000000001bbd8        0x8 
 .text.appletMainLoop
                0x000000000001bbe0       0x34 C:/Users/oukeh/OneDrive/桌面/code-mod-example/code-mod-framework/lib/libnx_min/nx/lib\libnx_min.a(applet.o)
                0x000000000001bbe0                appletMainLoop
 *fill*         0x000000000001bc14        0xc 
 .text.__syscall_exit
                0x000000000001bc20       0x1c C:/Users/oukeh/OneDrive/桌面/code-mod-example/code-mod-framework/lib/libnx_min/nx/lib\libnx_min.a(newlib.o)
                0x000000000001bc20                __syscall_exit
 *fill*         0x000000000001bc3c        0x4 
 .text.__syscall_getreent
                0x000000000001bc40       0x10 C:/Users/oukeh/OneDrive/桌面/code-mod-example/code-mod-framework/lib/libnx_min/nx/lib\libnx_min.a(newlib.o)
                0x000000000001bc40                __syscall_getreent
 .text.__syscall_lock_acquire
                0x000000000001bc50        0x4 C:/Users/oukeh/OneDrive/桌面/code-mod-example/code-mod-framework/lib/libnx_min/nx/lib\libnx_min.a(newlib.o)
                0x000000000001bc50                __syscall_lock_acquire
 *fill*         0x000000000001bc54        0xc 
 .text.__syscall_lock_try_acquire
                0x000000000001bc60       0x1c C:/Users/oukeh/OneDrive/桌面/code-mod-example/code-mod-framework/lib/libnx_min/nx/lib\libnx_min.a(newlib.o)
                0x000000000001bc60                __syscall_lock_try_acquire
 *fill*         0x000000000001bc7c        0x4 
 .text.__syscall_lock_release
                0x000000000001bc80        0x4 C:/Users/oukeh/OneDrive/桌面/code-mod-example/code-mod-framework/lib/libnx_min/nx/lib\libnx_min.a(newlib.o)
                0x000000000001bc80                __syscall_lock_release
 *fill*         0x000000000001bc84        0xc 
 .text.__syscall_lock_acquire_recursive
                0x000000000001bc90        0x4 C:/Users/oukeh/OneDrive/桌面/code-mod-example/code-mod-framework/lib/libnx_min/nx/lib\libnx_min.a(newlib.o)
                0x000000000001bc90                __syscall_lock_acquire_recursive
 *fill*         0x000000000001bc94        0xc 
 .text.__syscall_lock_try_acquire_recursive
                0x000000000001bca0       0x1c C:/Users/oukeh/OneDrive/桌面/code-mod-example/code-mod-framework/lib/libnx_min/nx/lib\libnx_min.a(newlib.o)
                0x000000000001bca0                __syscall_lock_try_acquire_recursive
 *fill*         0x000000000001bcbc        0x4 
 .text.__syscall_lock_release_recursive
                0x000000000001bcc0        0x4 C:/Users/oukeh/OneDrive/桌面/code-mod-example/code-mod-framework/lib/libnx_min/nx/lib\libnx_min.a(newlib.o)
                0x000000000001bcc0                __syscall_lock_release_recursive
 *fill*         0x000000000001bcc4        0xc 
 .text.__syscall_cond_signal
                0x000000000001bcd0       0x40 C:/Users/oukeh/OneDrive/桌面/code-mod-example/code-mod-framework/lib/libnx_min/nx/lib\libnx_min.a(newlib.o)
                0x000000000001bcd0                __syscall_cond_signal
 .text.__syscall_cond_broadcast
                0x000000000001bd10       0x40 C:/Users/oukeh/OneDrive/桌面/code-mod-example/code-mod-framework/lib/libnx_min/nx/lib\libnx_min.a(newlib.o)
                0x000000000001bd10                __syscall_cond_broadcast
 .text.__syscall_cond_wait
                0x000000000001bd50       0x3c C:/Users/oukeh/OneDrive/桌面/code-mod-example/code-mod-framework/lib/libnx_min/nx/lib\libnx_min.a(newlib.o)
                0x000000000001bd50                __syscall_cond_wait
 *fill*         0x000000000001bd8c        0x4 
 .text.__syscall_cond_wait_recursive
                0x000000000001bd90       0x64 C:/Users/oukeh/OneDrive/桌面/code-mod-example/code-mod-framework/lib/libnx_min/nx/lib\libnx_min.a(newlib.o)
                0x000000000001bd90                __syscall_cond_wait_recursive
 *fill*         0x000000000001bdf4        0xc 
 .text.__syscall_thread_self
                0x000000000001be00       0x14 C:/Users/oukeh/OneDrive/桌面/code-mod-example/code-mod-framework/lib/libnx_min/nx/lib\libnx_min.a(newlib.o)
                0x000000000001be00                __syscall_thread_self
 *fill*         0x000000000001be14        0xc 
 .text.__syscall_thread_exit
                0x000000000001be20       0x2c C:/Users/oukeh/OneDrive/桌面/code-mod-example/code-mod-framework/lib/libnx_min/nx/lib\libnx_min.a(newlib.o)
                0x000000000001be20                __syscall_thread_exit
 *fill*         0x000000000001be4c        0x4 
 .text.__thread_entry
                0x000000000001be50       0x58 C:/Users/oukeh/OneDrive/桌面/code-mod-example/code-mod-framework/lib/libnx_min/nx/lib\libnx_min.a(newlib.o)
 *fill*         0x000000000001bea8        0x8 
 .text.__syscall_thread_create
                0x000000000001beb0      0x15c C:/Users/oukeh/OneDrive/桌面/code-mod-example/code-mod-framework/lib/libnx_min/nx/lib\libnx_min.a(newlib.o)
                0x000000000001beb0                __syscall_thread_create
 *fill*         0x000000000001c00c        0x4 
 .text.__syscall_thread_join
                0x000000000001c010       0x58 C:/Users/oukeh/OneDrive/桌面/code-mod-example/code-mod-framework/lib/libnx_min/nx/lib\libnx_min.a(newlib.o)
                0x000000000001c010                __syscall_thread_join
 *fill*         0x000000000001c068        0x8 
 .text.__syscall_tls_create
                0x000000000001c070       0x44 C:/Users/oukeh/OneDrive/桌面/code-mod-example/code-mod-framework/lib/libnx_min/nx/lib\libnx_min.a(newlib.o)
                0x000000000001c070                __syscall_tls_create
 *fill*         0x000000000001c0b4        0xc 
 .text.__syscall_tls_set
                0x000000000001c0c0       0x18 C:/Users/oukeh/OneDrive/桌面/code-mod-example/code-mod-framework/lib/libnx_min/nx/lib\libnx_min.a(newlib.o)
                0x000000000001c0c0                __syscall_tls_set
 *fill*         0x000000000001c0d8        0x8 
 .text.__syscall_tls_get
                0x000000000001c0e0        0x4 C:/Users/oukeh/OneDrive/桌面/code-mod-example/code-mod-framework/lib/libnx_min/nx/lib\libnx_min.a(newlib.o)
                0x000000000001c0e0                __syscall_tls_get
 *fill*         0x000000000001c0e4        0xc 
 .text.__syscall_tls_delete
                0x000000000001c0f0       0x18 C:/Users/oukeh/OneDrive/桌面/code-mod-example/code-mod-framework/lib/libnx_min/nx/lib\libnx_min.a(newlib.o)
                0x000000000001c0f0                __syscall_tls_delete
 *fill*         0x000000000001c108        0x8 
 .text.sched_yield
                0x000000000001c110       0x1c C:/Users/oukeh/OneDrive/桌面/code-mod-example/code-mod-framework/lib/libnx_min/nx/lib\libnx_min.a(newlib.o)
                0x000000000001c110                sched_yield
 *fill*         0x000000000001c12c        0x4 
 .text.sched_getcpu
                0x000000000001c130        0x4 C:/Users/oukeh/OneDrive/桌面/code-mod-example/code-mod-framework/lib/libnx_min/nx/lib\libnx_min.a(newlib.o)
                0x000000000001c130                sched_getcpu
 *fill*         0x000000000001c134        0xc 
 .text.__libnx_init_time
                0x000000000001c140      0x27c C:/Users/oukeh/OneDrive/桌面/code-mod-example/code-mod-framework/lib/libnx_min/nx/lib\libnx_min.a(newlib.o)
                0x000000000001c140                __libnx_init_time
 *fill*         0x000000000001c3bc        0x4 
 .text.__syscall_clock_getres
                0x000000000001c3c0       0x58 C:/Users/oukeh/OneDrive/桌面/code-mod-example/code-mod-framework/lib/libnx_min/nx/lib\libnx_min.a(newlib.o)
                0x000000000001c3c0                __syscall_clock_getres
 *fill*         0x000000000001c418        0x8 
 .text.__syscall_clock_gettime
                0x000000000001c420       0xf8 C:/Users/oukeh/OneDrive/桌面/code-mod-example/code-mod-framework/lib/libnx_min/nx/lib\libnx_min.a(newlib.o)
                0x000000000001c420                __syscall_clock_gettime
 *fill*         0x000000000001c518        0x8 
 .text.__syscall_gettod_r
                0x000000000001c520       0x8c C:/Users/oukeh/OneDrive/桌面/code-mod-example/code-mod-framework/lib/libnx_min/nx/lib\libnx_min.a(newlib.o)
                0x000000000001c520                __syscall_gettod_r
 *fill*         0x000000000001c5ac        0x4 
 .text.__syscall_nanosleep
                0x000000000001c5b0       0x5c C:/Users/oukeh/OneDrive/桌面/code-mod-example/code-mod-framework/lib/libnx_min/nx/lib\libnx_min.a(newlib.o)
                0x000000000001c5b0                __syscall_nanosleep
 *fill*         0x000000000001c60c        0x4 
 .text.newlibSetup
                0x000000000001c610       0x74 C:/Users/oukeh/OneDrive/桌面/code-mod-example/code-mod-framework/lib/libnx_min/nx/lib\libnx_min.a(newlib.o)
                0x000000000001c610                newlibSetup
 *fill*         0x000000000001c684        0xc 
 .text.threadCreate
                0x000000000001c690      0x1fc C:/Users/oukeh/OneDrive/桌面/code-mod-example/code-mod-framework/lib/libnx_min/nx/lib\libnx_min.a(thread.o)
                0x000000000001c690                threadCreate
 *fill*         0x000000000001c88c        0x4 
 .text.threadExit
                0x000000000001c890       0xb0 C:/Users/oukeh/OneDrive/桌面/code-mod-example/code-mod-framework/lib/libnx_min/nx/lib\libnx_min.a(thread.o)
                0x000000000001c890                threadExit
 .text._EntryWrap
                0x000000000001c940       0x90 C:/Users/oukeh/OneDrive/桌面/code-mod-example/code-mod-framework/lib/libnx_min/nx/lib\libnx_min.a(thread.o)
 .text.threadStart
                0x000000000001c9d0        0x8 C:/Users/oukeh/OneDrive/桌面/code-mod-example/code-mod-framework/lib/libnx_min/nx/lib\libnx_min.a(thread.o)
                0x000000000001c9d0                threadStart
 *fill*         0x000000000001c9d8        0x8 
 .text.threadWaitForExit
                0x000000000001c9e0       0x2c C:/Users/oukeh/OneDrive/桌面/code-mod-example/code-mod-framework/lib/libnx_min/nx/lib\libnx_min.a(thread.o)
                0x000000000001c9e0                threadWaitForExit
 *fill*         0x000000000001ca0c        0x4 
 .text.threadClose
                0x000000000001ca10       0x54 C:/Users/oukeh/OneDrive/桌面/code-mod-example/code-mod-framework/lib/libnx_min/nx/lib\libnx_min.a(thread.o)
                0x000000000001ca10                threadClose
 *fill*         0x000000000001ca64        0xc 
 .text.threadPause
                0x000000000001ca70        0xc C:/Users/oukeh/OneDrive/桌面/code-mod-example/code-mod-framework/lib/libnx_min/nx/lib\libnx_min.a(thread.o)
                0x000000000001ca70                threadPause
 *fill*         0x000000000001ca7c        0x4 
 .text.threadResume
                0x000000000001ca80        0xc C:/Users/oukeh/OneDrive/桌面/code-mod-example/code-mod-framework/lib/libnx_min/nx/lib\libnx_min.a(thread.o)
                0x000000000001ca80                threadResume
 *fill*         0x000000000001ca8c        0x4 
 .text.threadDumpContext
                0x000000000001ca90        0x8 C:/Users/oukeh/OneDrive/桌面/code-mod-example/code-mod-framework/lib/libnx_min/nx/lib\libnx_min.a(thread.o)
                0x000000000001ca90                threadDumpContext
 *fill*         0x000000000001ca98        0x8 
 .text.threadGetCurHandle
                0x000000000001caa0        0xc C:/Users/oukeh/OneDrive/桌面/code-mod-example/code-mod-framework/lib/libnx_min/nx/lib\libnx_min.a(thread.o)
                0x000000000001caa0                threadGetCurHandle
 *fill*         0x000000000001caac        0x4 
 .text.threadTlsGet
                0x000000000001cab0       0x10 C:/Users/oukeh/OneDrive/桌面/code-mod-example/code-mod-framework/lib/libnx_min/nx/lib\libnx_min.a(thread.o)
                0x000000000001cab0                threadTlsGet
 .text.threadTlsSet
                0x000000000001cac0       0x10 C:/Users/oukeh/OneDrive/桌面/code-mod-example/code-mod-framework/lib/libnx_min/nx/lib\libnx_min.a(thread.o)
                0x000000000001cac0                threadTlsSet
 .text.threadTlsAlloc
                0x000000000001cad0       0xd8 C:/Users/oukeh/OneDrive/桌面/code-mod-example/code-mod-framework/lib/libnx_min/nx/lib\libnx_min.a(thread.o)
                0x000000000001cad0                threadTlsAlloc
 *fill*         0x000000000001cba8        0x8 
 .text.threadTlsFree
                0x000000000001cbb0       0x48 C:/Users/oukeh/OneDrive/桌面/code-mod-example/code-mod-framework/lib/libnx_min/nx/lib\libnx_min.a(thread.o)
                0x000000000001cbb0                threadTlsFree
 *fill*         0x000000000001cbf8        0x8 
 .text.condvarWaitTimeout
                0x000000000001cc00       0x60 C:/Users/oukeh/OneDrive/桌面/code-mod-example/code-mod-framework/lib/libnx_min/nx/lib\libnx_min.a(condvar.o)
                0x000000000001cc00                condvarWaitTimeout
 .text.eventCreate
                0x000000000001cc60       0x38 C:/Users/oukeh/OneDrive/桌面/code-mod-example/code-mod-framework/lib/libnx_min/nx/lib\libnx_min.a(event.o)
                0x000000000001cc60                eventCreate
 *fill*         0x000000000001cc98        0x8 
 .text.eventLoadRemote
                0x000000000001cca0        0xc C:/Users/oukeh/OneDrive/桌面/code-mod-example/code-mod-framework/lib/libnx_min/nx/lib\libnx_min.a(event.o)
                0x000000000001cca0                eventLoadRemote
 *fill*         0x000000000001ccac        0x4 
 .text.eventWait
                0x000000000001ccb0       0x38 C:/Users/oukeh/OneDrive/桌面/code-mod-example/code-mod-framework/lib/libnx_min/nx/lib\libnx_min.a(event.o)
                0x000000000001ccb0                eventWait
 *fill*         0x000000000001cce8        0x8 
 .text.eventFire
                0x000000000001ccf0       0x14 C:/Users/oukeh/OneDrive/桌面/code-mod-example/code-mod-framework/lib/libnx_min/nx/lib\libnx_min.a(event.o)
                0x000000000001ccf0                eventFire
 *fill*         0x000000000001cd04        0xc 
 .text.eventClear
                0x000000000001cd10       0x24 C:/Users/oukeh/OneDrive/桌面/code-mod-example/code-mod-framework/lib/libnx_min/nx/lib\libnx_min.a(event.o)
                0x000000000001cd10                eventClear
 *fill*         0x000000000001cd34        0xc 
 .text.eventClose
                0x000000000001cd40       0x50 C:/Users/oukeh/OneDrive/桌面/code-mod-example/code-mod-framework/lib/libnx_min/nx/lib\libnx_min.a(event.o)
                0x000000000001cd40                eventClose
 .text.tmemCreate
                0x000000000001cd90       0xa8 C:/Users/oukeh/OneDrive/桌面/code-mod-example/code-mod-framework/lib/libnx_min/nx/lib\libnx_min.a(tmem.o)
                0x000000000001cd90                tmemCreate
 *fill*         0x000000000001ce38        0x8 
 .text.tmemCreateFromMemory
                0x000000000001ce40       0x2c C:/Users/oukeh/OneDrive/桌面/code-mod-example/code-mod-framework/lib/libnx_min/nx/lib\libnx_min.a(tmem.o)
                0x000000000001ce40                tmemCreateFromMemory
 *fill*         0x000000000001ce6c        0x4 
 .text.tmemLoadRemote
                0x000000000001ce70       0x14 C:/Users/oukeh/OneDrive/桌面/code-mod-example/code-mod-framework/lib/libnx_min/nx/lib\libnx_min.a(tmem.o)
                0x000000000001ce70                tmemLoadRemote
 *fill*         0x000000000001ce84        0xc 
 .text.tmemMap  0x000000000001ce90       0x84 C:/Users/oukeh/OneDrive/桌面/code-mod-example/code-mod-framework/lib/libnx_min/nx/lib\libnx_min.a(tmem.o)
                0x000000000001ce90                tmemMap
 *fill*         0x000000000001cf14        0xc 
 .text.tmemUnmap
                0x000000000001cf20       0x58 C:/Users/oukeh/OneDrive/桌面/code-mod-example/code-mod-framework/lib/libnx_min/nx/lib\libnx_min.a(tmem.o)
                0x000000000001cf20                tmemUnmap
 *fill*         0x000000000001cf78        0x8 
 .text.tmemClose
                0x000000000001cf80       0x68 C:/Users/oukeh/OneDrive/桌面/code-mod-example/code-mod-framework/lib/libnx_min/nx/lib\libnx_min.a(tmem.o)
                0x000000000001cf80                tmemClose
 *fill*         0x000000000001cfe8        0x8 
 .text.rwlockInit
                0x000000000001cff0        0x8 C:/Users/oukeh/OneDrive/桌面/code-mod-example/code-mod-framework/lib/libnx_min/nx/lib\libnx_min.a(rwlock.o)
                0x000000000001cff0                rwlockInit
 *fill*         0x000000000001cff8        0x8 
 .text.rwlockReadLock
                0x000000000001d000       0x58 C:/Users/oukeh/OneDrive/桌面/code-mod-example/code-mod-framework/lib/libnx_min/nx/lib\libnx_min.a(rwlock.o)
                0x000000000001d000                rwlockReadLock
 *fill*         0x000000000001d058        0x8 
 .text.rwlockReadUnlock
                0x000000000001d060       0x5c C:/Users/oukeh/OneDrive/桌面/code-mod-example/code-mod-framework/lib/libnx_min/nx/lib\libnx_min.a(rwlock.o)
                0x000000000001d060                rwlockReadUnlock
 *fill*         0x000000000001d0bc        0x4 
 .text.rwlockWriteLock
                0x000000000001d0c0       0x84 C:/Users/oukeh/OneDrive/桌面/code-mod-example/code-mod-framework/lib/libnx_min/nx/lib\libnx_min.a(rwlock.o)
                0x000000000001d0c0                rwlockWriteLock
 *fill*         0x000000000001d144        0xc 
 .text.rwlockWriteUnlock
                0x000000000001d150       0x3c C:/Users/oukeh/OneDrive/桌面/code-mod-example/code-mod-framework/lib/libnx_min/nx/lib\libnx_min.a(rwlock.o)
                0x000000000001d150                rwlockWriteUnlock
 *fill*         0x000000000001d18c        0x4 
 .text._waitLoop
                0x000000000001d190      0x104 C:/Users/oukeh/OneDrive/桌面/code-mod-example/code-mod-framework/lib/libnx_min/nx/lib\libnx_min.a(wait.o)
 *fill*         0x000000000001d294        0xc 
 .text._waitObjectsImpl
                0x000000000001d2a0      0x338 C:/Users/oukeh/OneDrive/桌面/code-mod-example/code-mod-framework/lib/libnx_min/nx/lib\libnx_min.a(wait.o)
 *fill*         0x000000000001d5d8        0x8 
 .text.waitObjects
                0x000000000001d5e0        0xc C:/Users/oukeh/OneDrive/桌面/code-mod-example/code-mod-framework/lib/libnx_min/nx/lib\libnx_min.a(wait.o)
                0x000000000001d5e0                waitObjects
 *fill*         0x000000000001d5ec        0x4 
 .text.waitHandles
                0x000000000001d5f0        0xc C:/Users/oukeh/OneDrive/桌面/code-mod-example/code-mod-framework/lib/libnx_min/nx/lib\libnx_min.a(wait.o)
                0x000000000001d5f0                waitHandles
 *fill*         0x000000000001d5fc        0x4 
 .text.shmemCreate
                0x000000000001d600       0x14 C:/Users/oukeh/OneDrive/桌面/code-mod-example/code-mod-framework/lib/libnx_min/nx/lib\libnx_min.a(shmem.o)
                0x000000000001d600                shmemCreate
 *fill*         0x000000000001d614        0xc 
 .text.shmemLoadRemote
                0x000000000001d620       0x14 C:/Users/oukeh/OneDrive/桌面/code-mod-example/code-mod-framework/lib/libnx_min/nx/lib\libnx_min.a(shmem.o)
                0x000000000001d620                shmemLoadRemote
 *fill*         0x000000000001d634        0xc 
 .text.shmemMap
                0x000000000001d640       0x84 C:/Users/oukeh/OneDrive/桌面/code-mod-example/code-mod-framework/lib/libnx_min/nx/lib\libnx_min.a(shmem.o)
                0x000000000001d640                shmemMap
 *fill*         0x000000000001d6c4        0xc 
 .text.shmemUnmap
                0x000000000001d6d0       0x58 C:/Users/oukeh/OneDrive/桌面/code-mod-example/code-mod-framework/lib/libnx_min/nx/lib\libnx_min.a(shmem.o)
                0x000000000001d6d0                shmemUnmap
 *fill*         0x000000000001d728        0x8 
 .text.shmemClose
                0x000000000001d730       0x44 C:/Users/oukeh/OneDrive/桌面/code-mod-example/code-mod-framework/lib/libnx_min/nx/lib\libnx_min.a(shmem.o)
                0x000000000001d730                shmemClose
 *fill*         0x000000000001d774        0xc 
 .text.detectKernelVersion
                0x000000000001d780      0x17c C:/Users/oukeh/OneDrive/桌面/code-mod-example/code-mod-framework/lib/libnx_min/nx/lib\libnx_min.a(detect.o)
                0x000000000001d780                detectKernelVersion
 *fill*         0x000000000001d8fc        0x4 
 .text.detectDebugger
                0x000000000001d900       0x30 C:/Users/oukeh/OneDrive/桌面/code-mod-example/code-mod-framework/lib/libnx_min/nx/lib\libnx_min.a(detect.o)
                0x000000000001d900                detectDebugger
 .text.detectJitKernelPatch
                0x000000000001d930       0xdc C:/Users/oukeh/OneDrive/桌面/code-mod-example/code-mod-framework/lib/libnx_min/nx/lib\libnx_min.a(detect.o)
                0x000000000001d930                detectJitKernelPatch
 *fill*         0x000000000001da0c        0x4 
 .text.detectIgnoreJitKernelPatch
                0x000000000001da10       0x44 C:/Users/oukeh/OneDrive/桌面/code-mod-example/code-mod-framework/lib/libnx_min/nx/lib\libnx_min.a(detect.o)
                0x000000000001da10                detectIgnoreJitKernelPatch
 *fill*         0x000000000001da54        0xc 
 .text.ipcCloseObjectById
                0x000000000001da60       0x34 C:/Users/oukeh/OneDrive/桌面/code-mod-example/code-mod-framework/lib/libnx_min/nx/lib\libnx_min.a(apm.o)
 *fill*         0x000000000001da94        0xc 
 .text._apmGetSession.constprop.4
                0x000000000001daa0      0x124 C:/Users/oukeh/OneDrive/桌面/code-mod-example/code-mod-framework/lib/libnx_min/nx/lib\libnx_min.a(apm.o)
 *fill*         0x000000000001dbc4        0xc 
 .text.apmExit  0x000000000001dbd0       0xf0 C:/Users/oukeh/OneDrive/桌面/code-mod-example/code-mod-framework/lib/libnx_min/nx/lib\libnx_min.a(apm.o)
                0x000000000001dbd0                apmExit
 .text.apmInitialize
                0x000000000001dcc0       0x70 C:/Users/oukeh/OneDrive/桌面/code-mod-example/code-mod-framework/lib/libnx_min/nx/lib\libnx_min.a(apm.o)
                0x000000000001dcc0                apmInitialize
 .text.apmSetPerformanceConfiguration
                0x000000000001dd30       0xcc C:/Users/oukeh/OneDrive/桌面/code-mod-example/code-mod-framework/lib/libnx_min/nx/lib\libnx_min.a(apm.o)
                0x000000000001dd30                apmSetPerformanceConfiguration
 *fill*         0x000000000001ddfc        0x4 
 .text.apmGetPerformanceConfiguration
                0x000000000001de00       0xf4 C:/Users/oukeh/OneDrive/桌面/code-mod-example/code-mod-framework/lib/libnx_min/nx/lib\libnx_min.a(apm.o)
                0x000000000001de00                apmGetPerformanceConfiguration
 *fill*         0x000000000001def4        0x4 
 .text.bsearch  0x000000000001def8       0xb8 c:/devkitpro/devkita64/bin/../lib/gcc/aarch64-none-elf/9.2.0/../../../../aarch64-none-elf/lib/pic\libg.a(lib_a-bsearch.o)
                0x000000000001def8                bsearch
 .text.__set_ctype
                0x000000000001dfb0       0x10 c:/devkitpro/devkita64/bin/../lib/gcc/aarch64-none-elf/9.2.0/../../../../aarch64-none-elf/lib/pic\libg.a(lib_a-ctype_.o)
                0x000000000001dfb0                __set_ctype
 .text.__errno  0x000000000001dfc0       0x14 c:/devkitpro/devkita64/bin/../lib/gcc/aarch64-none-elf/9.2.0/../../../../aarch64-none-elf/lib/pic\libg.a(lib_a-errno.o)
                0x000000000001dfc0                __errno
 *fill*         0x000000000001dfd4        0x4 
 .text.__libc_fini_array
                0x000000000001dfd8       0x4c c:/devkitpro/devkita64/bin/../lib/gcc/aarch64-none-elf/9.2.0/../../../../aarch64-none-elf/lib/pic\libg.a(lib_a-fini.o)
                0x000000000001dfd8                __libc_fini_array
 *fill*         0x000000000001e024        0x4 
 .text.__libc_init_array
                0x000000000001e028       0x9c c:/devkitpro/devkita64/bin/../lib/gcc/aarch64-none-elf/9.2.0/../../../../aarch64-none-elf/lib/pic\libg.a(lib_a-init.o)
                0x000000000001e028                __libc_init_array
 *fill*         0x000000000001e0c4        0x4 
 .text.memalign
                0x000000000001e0c8       0x2c c:/devkitpro/devkita64/bin/../lib/gcc/aarch64-none-elf/9.2.0/../../../../aarch64-none-elf/lib/pic\libg.a(lib_a-malign.o)
                0x000000000001e0c8                memalign
 *fill*         0x000000000001e0f4        0x4 
 .text._memalign_r
                0x000000000001e0f8      0x1a0 c:/devkitpro/devkita64/bin/../lib/gcc/aarch64-none-elf/9.2.0/../../../../aarch64-none-elf/lib/pic\libg.a(lib_a-malignr.o)
                0x000000000001e0f8                _memalign_r
 .text.malloc   0x000000000001e298       0x24 c:/devkitpro/devkita64/bin/../lib/gcc/aarch64-none-elf/9.2.0/../../../../aarch64-none-elf/lib/pic\libg.a(lib_a-malloc.o)
                0x000000000001e298                malloc
 *fill*         0x000000000001e2bc        0x4 
 .text.free     0x000000000001e2c0       0x24 c:/devkitpro/devkita64/bin/../lib/gcc/aarch64-none-elf/9.2.0/../../../../aarch64-none-elf/lib/pic\libg.a(lib_a-malloc.o)
                0x000000000001e2c0                free
 *fill*         0x000000000001e2e4        0x4 
 .text._malloc_r
                0x000000000001e2e8      0x874 c:/devkitpro/devkita64/bin/../lib/gcc/aarch64-none-elf/9.2.0/../../../../aarch64-none-elf/lib/pic\libg.a(lib_a-mallocr.o)
                0x000000000001e2e8                _malloc_r
 *fill*         0x000000000001eb5c       0x24 
 .text          0x000000000001eb80      0x16c c:/devkitpro/devkita64/bin/../lib/gcc/aarch64-none-elf/9.2.0/../../../../aarch64-none-elf/lib/pic\libg.a(lib_a-memcpy.o)
                0x000000000001eb80                memcpy
 *fill*         0x000000000001ecec       0x14 
 .text          0x000000000001ed00      0x1dc c:/devkitpro/devkita64/bin/../lib/gcc/aarch64-none-elf/9.2.0/../../../../aarch64-none-elf/lib/pic\libg.a(lib_a-memset.o)
                0x000000000001ed00                memset
 *fill*         0x000000000001eedc        0x4 
 .text.__malloc_lock
                0x000000000001eee0        0xc c:/devkitpro/devkita64/bin/../lib/gcc/aarch64-none-elf/9.2.0/../../../../aarch64-none-elf/lib/pic\libg.a(lib_a-mlock.o)
                0x000000000001eee0                __malloc_lock
 *fill*         0x000000000001eeec        0x4 
 .text.__malloc_unlock
                0x000000000001eef0        0xc c:/devkitpro/devkita64/bin/../lib/gcc/aarch64-none-elf/9.2.0/../../../../aarch64-none-elf/lib/pic\libg.a(lib_a-mlock.o)
                0x000000000001eef0                __malloc_unlock
 *fill*         0x000000000001eefc        0x4 
 .text.setenv   0x000000000001ef00       0x3c c:/devkitpro/devkita64/bin/../lib/gcc/aarch64-none-elf/9.2.0/../../../../aarch64-none-elf/lib/pic\libg.a(lib_a-setenv.o)
                0x000000000001ef00                setenv
 *fill*         0x000000000001ef3c        0x4 
 .text.unsetenv
                0x000000000001ef40       0x24 c:/devkitpro/devkita64/bin/../lib/gcc/aarch64-none-elf/9.2.0/../../../../aarch64-none-elf/lib/pic\libg.a(lib_a-setenv.o)
                0x000000000001ef40                unsetenv
 *fill*         0x000000000001ef64        0x4 
 .text._setenv_r
                0x000000000001ef68      0x268 c:/devkitpro/devkita64/bin/../lib/gcc/aarch64-none-elf/9.2.0/../../../../aarch64-none-elf/lib/pic\libg.a(lib_a-setenv_r.o)
                0x000000000001ef68                _setenv_r
 .text._unsetenv_r
                0x000000000001f1d0       0xd4 c:/devkitpro/devkita64/bin/../lib/gcc/aarch64-none-elf/9.2.0/../../../../aarch64-none-elf/lib/pic\libg.a(lib_a-setenv_r.o)
                0x000000000001f1d0                _unsetenv_r
 .text          0x000000000001f2a4       0xdc c:/devkitpro/devkita64/bin/../lib/gcc/aarch64-none-elf/9.2.0/../../../../aarch64-none-elf/lib/pic\libg.a(lib_a-strchr.o)
                0x000000000001f2a4                strchr
 .text          0x000000000001f380      0x1b8 c:/devkitpro/devkita64/bin/../lib/gcc/aarch64-none-elf/9.2.0/../../../../aarch64-none-elf/lib/pic\libg.a(lib_a-strcpy.o)
                0x000000000001f380                strcpy
 *fill*         0x000000000001f538        0x8 
 .text          0x000000000001f540      0x140 c:/devkitpro/devkita64/bin/../lib/gcc/aarch64-none-elf/9.2.0/../../../../aarch64-none-elf/lib/pic\libg.a(lib_a-strlen.o)
                0x000000000001f540                strlen
 .text.strncat  0x000000000001f680       0x84 c:/devkitpro/devkita64/bin/../lib/gcc/aarch64-none-elf/9.2.0/../../../../aarch64-none-elf/lib/pic\libg.a(lib_a-strncat.o)
                0x000000000001f680                strncat
 *fill*         0x000000000001f704       0x3c 
 .text          0x000000000001f740      0x1d4 c:/devkitpro/devkita64/bin/../lib/gcc/aarch64-none-elf/9.2.0/../../../../aarch64-none-elf/lib/pic\libg.a(lib_a-strncmp.o)
                0x000000000001f75c                strncmp
 *fill*         0x000000000001f914        0x4 
 .text.strncpy  0x000000000001f918       0x9c c:/devkitpro/devkita64/bin/../lib/gcc/aarch64-none-elf/9.2.0/../../../../aarch64-none-elf/lib/pic\libg.a(lib_a-strncpy.o)
                0x000000000001f918                strncpy
 *fill*         0x000000000001f9b4        0xc 
 .text          0x000000000001f9c0       0xe0 c:/devkitpro/devkita64/bin/../lib/gcc/aarch64-none-elf/9.2.0/../../../../aarch64-none-elf/lib/pic\libg.a(lib_a-strnlen.o)
                0x000000000001f9e4                strnlen
 .text.toupper  0x000000000001faa0       0x24 c:/devkitpro/devkita64/bin/../lib/gcc/aarch64-none-elf/9.2.0/../../../../aarch64-none-elf/lib/pic\libg.a(lib_a-toupper.o)
                0x000000000001faa0                toupper
 *fill*         0x000000000001fac4        0x4 
 .text._vsnprintf_r
                0x000000000001fac8       0xe0 c:/devkitpro/devkita64/bin/../lib/gcc/aarch64-none-elf/9.2.0/../../../../aarch64-none-elf/lib/pic\libg.a(lib_a-vsnprintf.o)
                0x000000000001fac8                _vsnprintf_r
 .text.vsnprintf
                0x000000000001fba8       0x58 c:/devkitpro/devkita64/bin/../lib/gcc/aarch64-none-elf/9.2.0/../../../../aarch64-none-elf/lib/pic\libg.a(lib_a-vsnprintf.o)
                0x000000000001fba8                vsnprintf
 .text.__call_exitprocs
                0x000000000001fc00      0x12c c:/devkitpro/devkita64/bin/../lib/gcc/aarch64-none-elf/9.2.0/../../../../aarch64-none-elf/lib/pic\libg.a(lib_a-__call_atexit.o)
                0x000000000001fc00                __call_exitprocs
 *fill*         0x000000000001fd2c        0x4 
 .text.__env_lock
                0x000000000001fd30        0xc c:/devkitpro/devkita64/bin/../lib/gcc/aarch64-none-elf/9.2.0/../../../../aarch64-none-elf/lib/pic\libg.a(lib_a-envlock.o)
                0x000000000001fd30                __env_lock
 *fill*         0x000000000001fd3c        0x4 
 .text.__env_unlock
                0x000000000001fd40        0xc c:/devkitpro/devkita64/bin/../lib/gcc/aarch64-none-elf/9.2.0/../../../../aarch64-none-elf/lib/pic\libg.a(lib_a-envlock.o)
                0x000000000001fd40                __env_unlock
 *fill*         0x000000000001fd4c        0x4 
 .text._malloc_trim_r
                0x000000000001fd50      0x118 c:/devkitpro/devkita64/bin/../lib/gcc/aarch64-none-elf/9.2.0/../../../../aarch64-none-elf/lib/pic\libg.a(lib_a-freer.o)
                0x000000000001fd50                _malloc_trim_r
 .text._free_r  0x000000000001fe68      0x300 c:/devkitpro/devkita64/bin/../lib/gcc/aarch64-none-elf/9.2.0/../../../../aarch64-none-elf/lib/pic\libg.a(lib_a-freer.o)
                0x000000000001fe68                _free_r
 .text._findenv_r
                0x0000000000020168      0x100 c:/devkitpro/devkita64/bin/../lib/gcc/aarch64-none-elf/9.2.0/../../../../aarch64-none-elf/lib/pic\libg.a(lib_a-getenv_r.o)
                0x0000000000020168                _findenv_r
 .text._getenv_r
                0x0000000000020268       0x18 c:/devkitpro/devkita64/bin/../lib/gcc/aarch64-none-elf/9.2.0/../../../../aarch64-none-elf/lib/pic\libg.a(lib_a-getenv_r.o)
                0x0000000000020268                _getenv_r
 .text._realloc_r
                0x0000000000020280      0x56c c:/devkitpro/devkita64/bin/../lib/gcc/aarch64-none-elf/9.2.0/../../../../aarch64-none-elf/lib/pic\libg.a(lib_a-reallocr.o)
                0x0000000000020280                _realloc_r
 .text.get_arg  0x00000000000207ec      0x784 c:/devkitpro/devkita64/bin/../lib/gcc/aarch64-none-elf/9.2.0/../../../../aarch64-none-elf/lib/pic\libg.a(lib_a-svfprintf.o)
 .text._svfprintf_r
                0x0000000000020f70     0x3be8 c:/devkitpro/devkita64/bin/../lib/gcc/aarch64-none-elf/9.2.0/../../../../aarch64-none-elf/lib/pic\libg.a(lib_a-svfprintf.o)
                0x0000000000020f70                _svfprintf_r
 .text._wcrtomb_r
                0x0000000000024b58       0xd0 c:/devkitpro/devkita64/bin/../lib/gcc/aarch64-none-elf/9.2.0/../../../../aarch64-none-elf/lib/pic\libg.a(lib_a-wcrtomb.o)
                0x0000000000024b58                _wcrtomb_r
 .text.wcrtomb  0x0000000000024c28       0xb8 c:/devkitpro/devkita64/bin/../lib/gcc/aarch64-none-elf/9.2.0/../../../../aarch64-none-elf/lib/pic\libg.a(lib_a-wcrtomb.o)
                0x0000000000024c28                wcrtomb
 .text._wcsrtombs_r
                0x0000000000024ce0       0x10 c:/devkitpro/devkita64/bin/../lib/gcc/aarch64-none-elf/9.2.0/../../../../aarch64-none-elf/lib/pic\libg.a(lib_a-wcsrtombs.o)
                0x0000000000024ce0                _wcsrtombs_r
 .text.wcsrtombs
                0x0000000000024cf0       0x48 c:/devkitpro/devkita64/bin/../lib/gcc/aarch64-none-elf/9.2.0/../../../../aarch64-none-elf/lib/pic\libg.a(lib_a-wcsrtombs.o)
                0x0000000000024cf0                wcsrtombs
 .text.quorem   0x0000000000024d38      0x19c c:/devkitpro/devkita64/bin/../lib/gcc/aarch64-none-elf/9.2.0/../../../../aarch64-none-elf/lib/pic\libg.a(lib_a-dtoa.o)
 *fill*         0x0000000000024ed4        0x4 
 .text._dtoa_r  0x0000000000024ed8     0x1124 c:/devkitpro/devkita64/bin/../lib/gcc/aarch64-none-elf/9.2.0/../../../../aarch64-none-elf/lib/pic\libg.a(lib_a-dtoa.o)
                0x0000000000024ed8                _dtoa_r
 *fill*         0x0000000000025ffc        0x4 
 .text.__localeconv_l
                0x0000000000026000        0x8 c:/devkitpro/devkita64/bin/../lib/gcc/aarch64-none-elf/9.2.0/../../../../aarch64-none-elf/lib/pic\libg.a(lib_a-localeconv.o)
                0x0000000000026000                __localeconv_l
 .text._localeconv_r
                0x0000000000026008       0x28 c:/devkitpro/devkita64/bin/../lib/gcc/aarch64-none-elf/9.2.0/../../../../aarch64-none-elf/lib/pic\libg.a(lib_a-localeconv.o)
                0x0000000000026008                _localeconv_r
 .text.localeconv
                0x0000000000026030       0x28 c:/devkitpro/devkita64/bin/../lib/gcc/aarch64-none-elf/9.2.0/../../../../aarch64-none-elf/lib/pic\libg.a(lib_a-localeconv.o)
                0x0000000000026030                localeconv
 .text.currentlocale
                0x0000000000026058       0xb8 c:/devkitpro/devkita64/bin/../lib/gcc/aarch64-none-elf/9.2.0/../../../../aarch64-none-elf/lib/pic\libg.a(lib_a-locale.o)
 .text.__loadlocale
                0x0000000000026110      0x7b0 c:/devkitpro/devkita64/bin/../lib/gcc/aarch64-none-elf/9.2.0/../../../../aarch64-none-elf/lib/pic\libg.a(lib_a-locale.o)
                0x0000000000026110                __loadlocale
 .text.__get_locale_env
                0x00000000000268c0       0x88 c:/devkitpro/devkita64/bin/../lib/gcc/aarch64-none-elf/9.2.0/../../../../aarch64-none-elf/lib/pic\libg.a(lib_a-locale.o)
                0x00000000000268c0                __get_locale_env
 .text._setlocale_r
                0x0000000000026948      0x3b4 c:/devkitpro/devkita64/bin/../lib/gcc/aarch64-none-elf/9.2.0/../../../../aarch64-none-elf/lib/pic\libg.a(lib_a-locale.o)
                0x0000000000026948                _setlocale_r
 *fill*         0x0000000000026cfc        0x4 
 .text.__locale_mb_cur_max
                0x0000000000026d00       0x2c c:/devkitpro/devkita64/bin/../lib/gcc/aarch64-none-elf/9.2.0/../../../../aarch64-none-elf/lib/pic\libg.a(lib_a-locale.o)
                0x0000000000026d00                __locale_mb_cur_max
 *fill*         0x0000000000026d2c        0x4 
 .text.setlocale
                0x0000000000026d30       0x2c c:/devkitpro/devkita64/bin/../lib/gcc/aarch64-none-elf/9.2.0/../../../../aarch64-none-elf/lib/pic\libg.a(lib_a-locale.o)
                0x0000000000026d30                setlocale
 *fill*         0x0000000000026d5c        0x4 
 .text._mbtowc_r
                0x0000000000026d60       0x70 c:/devkitpro/devkita64/bin/../lib/gcc/aarch64-none-elf/9.2.0/../../../../aarch64-none-elf/lib/pic\libg.a(lib_a-mbtowc_r.o)
                0x0000000000026d60                _mbtowc_r
 .text.__ascii_mbtowc
                0x0000000000026dd0       0x48 c:/devkitpro/devkita64/bin/../lib/gcc/aarch64-none-elf/9.2.0/../../../../aarch64-none-elf/lib/pic\libg.a(lib_a-mbtowc_r.o)
                0x0000000000026dd0                __ascii_mbtowc
 .text.__utf8_mbtowc
                0x0000000000026e18      0x2c8 c:/devkitpro/devkita64/bin/../lib/gcc/aarch64-none-elf/9.2.0/../../../../aarch64-none-elf/lib/pic\libg.a(lib_a-mbtowc_r.o)
                0x0000000000026e18                __utf8_mbtowc
 .text.__sjis_mbtowc
                0x00000000000270e0       0xcc c:/devkitpro/devkita64/bin/../lib/gcc/aarch64-none-elf/9.2.0/../../../../aarch64-none-elf/lib/pic\libg.a(lib_a-mbtowc_r.o)
                0x00000000000270e0                __sjis_mbtowc
 *fill*         0x00000000000271ac        0x4 
 .text.__eucjp_mbtowc
                0x00000000000271b0      0x124 c:/devkitpro/devkita64/bin/../lib/gcc/aarch64-none-elf/9.2.0/../../../../aarch64-none-elf/lib/pic\libg.a(lib_a-mbtowc_r.o)
                0x00000000000271b0                __eucjp_mbtowc
 *fill*         0x00000000000272d4        0x4 
 .text.__jis_mbtowc
                0x00000000000272d8      0x1e4 c:/devkitpro/devkita64/bin/../lib/gcc/aarch64-none-elf/9.2.0/../../../../aarch64-none-elf/lib/pic\libg.a(lib_a-mbtowc_r.o)
                0x00000000000272d8                __jis_mbtowc
 .text          0x00000000000274bc       0xd8 c:/devkitpro/devkita64/bin/../lib/gcc/aarch64-none-elf/9.2.0/../../../../aarch64-none-elf/lib/pic\libg.a(lib_a-memchr.o)
                0x00000000000274bc                memchr
 *fill*         0x0000000000027594       0x2c 
 .text          0x00000000000275c0       0xac c:/devkitpro/devkita64/bin/../lib/gcc/aarch64-none-elf/9.2.0/../../../../aarch64-none-elf/lib/pic\libg.a(lib_a-memmove.o)
                0x00000000000275c0                memmove
 *fill*         0x000000000002766c        0x4 
 .text._Balloc  0x0000000000027670       0x90 c:/devkitpro/devkita64/bin/../lib/gcc/aarch64-none-elf/9.2.0/../../../../aarch64-none-elf/lib/pic\libg.a(lib_a-mprec.o)
                0x0000000000027670                _Balloc
 .text._Bfree   0x0000000000027700       0x1c c:/devkitpro/devkita64/bin/../lib/gcc/aarch64-none-elf/9.2.0/../../../../aarch64-none-elf/lib/pic\libg.a(lib_a-mprec.o)
                0x0000000000027700                _Bfree
 *fill*         0x000000000002771c        0x4 
 .text.__multadd
                0x0000000000027720       0xd8 c:/devkitpro/devkita64/bin/../lib/gcc/aarch64-none-elf/9.2.0/../../../../aarch64-none-elf/lib/pic\libg.a(lib_a-mprec.o)
                0x0000000000027720                __multadd
 .text.__s2b    0x00000000000277f8      0x12c c:/devkitpro/devkita64/bin/../lib/gcc/aarch64-none-elf/9.2.0/../../../../aarch64-none-elf/lib/pic\libg.a(lib_a-mprec.o)
                0x00000000000277f8                __s2b
 *fill*         0x0000000000027924        0x4 
 .text.__hi0bits
                0x0000000000027928       0x5c c:/devkitpro/devkita64/bin/../lib/gcc/aarch64-none-elf/9.2.0/../../../../aarch64-none-elf/lib/pic\libg.a(lib_a-mprec.o)
                0x0000000000027928                __hi0bits
 *fill*         0x0000000000027984        0x4 
 .text.__lo0bits
                0x0000000000027988       0xa0 c:/devkitpro/devkita64/bin/../lib/gcc/aarch64-none-elf/9.2.0/../../../../aarch64-none-elf/lib/pic\libg.a(lib_a-mprec.o)
                0x0000000000027988                __lo0bits
 .text.__i2b    0x0000000000027a28       0x2c c:/devkitpro/devkita64/bin/../lib/gcc/aarch64-none-elf/9.2.0/../../../../aarch64-none-elf/lib/pic\libg.a(lib_a-mprec.o)
                0x0000000000027a28                __i2b
 *fill*         0x0000000000027a54        0x4 
 .text.__multiply
                0x0000000000027a58      0x1dc c:/devkitpro/devkita64/bin/../lib/gcc/aarch64-none-elf/9.2.0/../../../../aarch64-none-elf/lib/pic\libg.a(lib_a-mprec.o)
                0x0000000000027a58                __multiply
 *fill*         0x0000000000027c34        0x4 
 .text.__pow5mult
                0x0000000000027c38      0x100 c:/devkitpro/devkita64/bin/../lib/gcc/aarch64-none-elf/9.2.0/../../../../aarch64-none-elf/lib/pic\libg.a(lib_a-mprec.o)
                0x0000000000027c38                __pow5mult
 .text.__lshift
                0x0000000000027d38      0x154 c:/devkitpro/devkita64/bin/../lib/gcc/aarch64-none-elf/9.2.0/../../../../aarch64-none-elf/lib/pic\libg.a(lib_a-mprec.o)
                0x0000000000027d38                __lshift
 *fill*         0x0000000000027e8c        0x4 
 .text.__mcmp   0x0000000000027e90       0x50 c:/devkitpro/devkita64/bin/../lib/gcc/aarch64-none-elf/9.2.0/../../../../aarch64-none-elf/lib/pic\libg.a(lib_a-mprec.o)
                0x0000000000027e90                __mcmp
 .text.__mdiff  0x0000000000027ee0      0x17c c:/devkitpro/devkita64/bin/../lib/gcc/aarch64-none-elf/9.2.0/../../../../aarch64-none-elf/lib/pic\libg.a(lib_a-mprec.o)
                0x0000000000027ee0                __mdiff
 *fill*         0x000000000002805c        0x4 
 .text.__ulp    0x0000000000028060       0x68 c:/devkitpro/devkita64/bin/../lib/gcc/aarch64-none-elf/9.2.0/../../../../aarch64-none-elf/lib/pic\libg.a(lib_a-mprec.o)
                0x0000000000028060                __ulp
 .text.__b2d    0x00000000000280c8      0x150 c:/devkitpro/devkita64/bin/../lib/gcc/aarch64-none-elf/9.2.0/../../../../aarch64-none-elf/lib/pic\libg.a(lib_a-mprec.o)
                0x00000000000280c8                __b2d
 .text.__d2b    0x0000000000028218      0x138 c:/devkitpro/devkita64/bin/../lib/gcc/aarch64-none-elf/9.2.0/../../../../aarch64-none-elf/lib/pic\libg.a(lib_a-mprec.o)
                0x0000000000028218                __d2b
 .text.__ratio  0x0000000000028350       0xa0 c:/devkitpro/devkita64/bin/../lib/gcc/aarch64-none-elf/9.2.0/../../../../aarch64-none-elf/lib/pic\libg.a(lib_a-mprec.o)
                0x0000000000028350                __ratio
 .text._mprec_log10
                0x00000000000283f0       0x30 c:/devkitpro/devkita64/bin/../lib/gcc/aarch64-none-elf/9.2.0/../../../../aarch64-none-elf/lib/pic\libg.a(lib_a-mprec.o)
                0x00000000000283f0                _mprec_log10
 .text.__copybits
                0x0000000000028420       0x68 c:/devkitpro/devkita64/bin/../lib/gcc/aarch64-none-elf/9.2.0/../../../../aarch64-none-elf/lib/pic\libg.a(lib_a-mprec.o)
                0x0000000000028420                __copybits
 .text.__any_on
                0x0000000000028488       0x6c c:/devkitpro/devkita64/bin/../lib/gcc/aarch64-none-elf/9.2.0/../../../../aarch64-none-elf/lib/pic\libg.a(lib_a-mprec.o)
                0x0000000000028488                __any_on
 *fill*         0x00000000000284f4        0x4 
 .text.frexp    0x00000000000284f8       0x7c c:/devkitpro/devkita64/bin/../lib/gcc/aarch64-none-elf/9.2.0/../../../../aarch64-none-elf/lib/pic\libg.a(lib_a-s_frexp.o)
                0x00000000000284f8                frexp
 *fill*         0x0000000000028574        0x4 
 .text.strcasecmp
                0x0000000000028578       0x78 c:/devkitpro/devkita64/bin/../lib/gcc/aarch64-none-elf/9.2.0/../../../../aarch64-none-elf/lib/pic\libg.a(lib_a-strcasecmp.o)
                0x0000000000028578                strcasecmp
 .text.strcat   0x00000000000285f0       0x74 c:/devkitpro/devkita64/bin/../lib/gcc/aarch64-none-elf/9.2.0/../../../../aarch64-none-elf/lib/pic\libg.a(lib_a-strcat.o)
                0x00000000000285f0                strcat
 *fill*         0x0000000000028664       0x1c 
 .text          0x0000000000028680       0xe4 c:/devkitpro/devkita64/bin/../lib/gcc/aarch64-none-elf/9.2.0/../../../../aarch64-none-elf/lib/pic\libg.a(lib_a-strcmp.o)
                0x0000000000028680                strcmp
 *fill*         0x0000000000028764        0x4 
 .text.strlcpy  0x0000000000028768       0x5c c:/devkitpro/devkita64/bin/../lib/gcc/aarch64-none-elf/9.2.0/../../../../aarch64-none-elf/lib/pic\libg.a(lib_a-strlcpy.o)
                0x0000000000028768                strlcpy
 *fill*         0x00000000000287c4        0x4 
 .text.strncasecmp
                0x00000000000287c8       0x8c c:/devkitpro/devkita64/bin/../lib/gcc/aarch64-none-elf/9.2.0/../../../../aarch64-none-elf/lib/pic\libg.a(lib_a-strncasecmp.o)
                0x00000000000287c8                strncasecmp
 *fill*         0x0000000000028854        0x4 
 .text._strtol_l.isra.0
                0x0000000000028858      0x19c c:/devkitpro/devkita64/bin/../lib/gcc/aarch64-none-elf/9.2.0/../../../../aarch64-none-elf/lib/pic\libg.a(lib_a-strtol.o)
 *fill*         0x00000000000289f4        0x4 
 .text._strtol_r
                0x00000000000289f8       0x44 c:/devkitpro/devkita64/bin/../lib/gcc/aarch64-none-elf/9.2.0/../../../../aarch64-none-elf/lib/pic\libg.a(lib_a-strtol.o)
                0x00000000000289f8                _strtol_r
 *fill*         0x0000000000028a3c        0x4 
 .text.strtol_l
                0x0000000000028a40       0x3c c:/devkitpro/devkita64/bin/../lib/gcc/aarch64-none-elf/9.2.0/../../../../aarch64-none-elf/lib/pic\libg.a(lib_a-strtol.o)
                0x0000000000028a40                strtol_l
 *fill*         0x0000000000028a7c        0x4 
 .text.strtol   0x0000000000028a80       0x48 c:/devkitpro/devkita64/bin/../lib/gcc/aarch64-none-elf/9.2.0/../../../../aarch64-none-elf/lib/pic\libg.a(lib_a-strtol.o)
                0x0000000000028a80                strtol
 .text.get_arg  0x0000000000028ac8      0x784 c:/devkitpro/devkita64/bin/../lib/gcc/aarch64-none-elf/9.2.0/../../../../aarch64-none-elf/lib/pic\libg.a(lib_a-svfiprintf.o)
 .text.__ssprint_r
                0x000000000002924c      0x1c0 c:/devkitpro/devkita64/bin/../lib/gcc/aarch64-none-elf/9.2.0/../../../../aarch64-none-elf/lib/pic\libg.a(lib_a-svfiprintf.o)
                0x000000000002924c                __ssprint_r
 .text._svfiprintf_r
                0x000000000002940c     0x2928 c:/devkitpro/devkita64/bin/../lib/gcc/aarch64-none-elf/9.2.0/../../../../aarch64-none-elf/lib/pic\libg.a(lib_a-svfiprintf.o)
                0x000000000002940c                _svfiprintf_r
 *fill*         0x000000000002bd34        0x4 
 .text._wcsnrtombs_l
                0x000000000002bd38      0x1e4 c:/devkitpro/devkita64/bin/../lib/gcc/aarch64-none-elf/9.2.0/../../../../aarch64-none-elf/lib/pic\libg.a(lib_a-wcsnrtombs.o)
                0x000000000002bd38                _wcsnrtombs_l
 *fill*         0x000000000002bf1c        0x4 
 .text._wcsnrtombs_r
                0x000000000002bf20       0x74 c:/devkitpro/devkita64/bin/../lib/gcc/aarch64-none-elf/9.2.0/../../../../aarch64-none-elf/lib/pic\libg.a(lib_a-wcsnrtombs.o)
                0x000000000002bf20                _wcsnrtombs_r
 *fill*         0x000000000002bf94        0x4 
 .text.wcsnrtombs
                0x000000000002bf98       0x74 c:/devkitpro/devkita64/bin/../lib/gcc/aarch64-none-elf/9.2.0/../../../../aarch64-none-elf/lib/pic\libg.a(lib_a-wcsnrtombs.o)
                0x000000000002bf98                wcsnrtombs
 *fill*         0x000000000002c00c        0x4 
 .text._wctomb_r
                0x000000000002c010       0x60 c:/devkitpro/devkita64/bin/../lib/gcc/aarch64-none-elf/9.2.0/../../../../aarch64-none-elf/lib/pic\libg.a(lib_a-wctomb_r.o)
                0x000000000002c010                _wctomb_r
 .text.__ascii_wctomb
                0x000000000002c070       0x34 c:/devkitpro/devkita64/bin/../lib/gcc/aarch64-none-elf/9.2.0/../../../../aarch64-none-elf/lib/pic\libg.a(lib_a-wctomb_r.o)
                0x000000000002c070                __ascii_wctomb
 *fill*         0x000000000002c0a4        0x4 
 .text.__utf8_wctomb
                0x000000000002c0a8       0xe4 c:/devkitpro/devkita64/bin/../lib/gcc/aarch64-none-elf/9.2.0/../../../../aarch64-none-elf/lib/pic\libg.a(lib_a-wctomb_r.o)
                0x000000000002c0a8                __utf8_wctomb
 *fill*         0x000000000002c18c        0x4 
 .text.__sjis_wctomb
                0x000000000002c190       0x84 c:/devkitpro/devkita64/bin/../lib/gcc/aarch64-none-elf/9.2.0/../../../../aarch64-none-elf/lib/pic\libg.a(lib_a-wctomb_r.o)
                0x000000000002c190                __sjis_wctomb
 *fill*         0x000000000002c214        0x4 
 .text.__eucjp_wctomb
                0x000000000002c218       0xa8 c:/devkitpro/devkita64/bin/../lib/gcc/aarch64-none-elf/9.2.0/../../../../aarch64-none-elf/lib/pic\libg.a(lib_a-wctomb_r.o)
                0x000000000002c218                __eucjp_wctomb
 .text.__jis_wctomb
                0x000000000002c2c0       0xbc c:/devkitpro/devkita64/bin/../lib/gcc/aarch64-none-elf/9.2.0/../../../../aarch64-none-elf/lib/pic\libg.a(lib_a-wctomb_r.o)
                0x000000000002c2c0                __jis_wctomb
 *fill*         0x000000000002c37c        0x4 
 .text._calloc_r
                0x000000000002c380       0x94 c:/devkitpro/devkita64/bin/../lib/gcc/aarch64-none-elf/9.2.0/../../../../aarch64-none-elf/lib/pic\libg.a(lib_a-callocr.o)
                0x000000000002c380                _calloc_r
 *fill*         0x000000000002c414        0x4 
 .text.null_write
                0x000000000002c418        0x8 c:/devkitpro/devkita64/bin/../lib/gcc/aarch64-none-elf/9.2.0/../../../../aarch64-none-elf/lib/pic\libsysbase.a(iosupport.o)
 .text.setDefaultDevice
                0x000000000002c420       0x18 c:/devkitpro/devkita64/bin/../lib/gcc/aarch64-none-elf/9.2.0/../../../../aarch64-none-elf/lib/pic\libsysbase.a(iosupport.o)
                0x000000000002c420                setDefaultDevice
 .text.FindDevice
                0x000000000002c438      0x108 c:/devkitpro/devkita64/bin/../lib/gcc/aarch64-none-elf/9.2.0/../../../../aarch64-none-elf/lib/pic\libsysbase.a(iosupport.o)
                0x000000000002c438                FindDevice
 .text.RemoveDevice
                0x000000000002c540       0x34 c:/devkitpro/devkita64/bin/../lib/gcc/aarch64-none-elf/9.2.0/../../../../aarch64-none-elf/lib/pic\libsysbase.a(iosupport.o)
                0x000000000002c540                RemoveDevice
 *fill*         0x000000000002c574        0x4 
 .text.AddDevice
                0x000000000002c578       0xdc c:/devkitpro/devkita64/bin/../lib/gcc/aarch64-none-elf/9.2.0/../../../../aarch64-none-elf/lib/pic\libsysbase.a(iosupport.o)
                0x000000000002c578                AddDevice
 *fill*         0x000000000002c654        0x4 
 .text.GetDeviceOpTab
                0x000000000002c658       0x34 c:/devkitpro/devkita64/bin/../lib/gcc/aarch64-none-elf/9.2.0/../../../../aarch64-none-elf/lib/pic\libsysbase.a(iosupport.o)
                0x000000000002c658                GetDeviceOpTab
 *fill*         0x000000000002c68c        0x4 
 .text._sbrk_r  0x000000000002c690       0x78 c:/devkitpro/devkita64/bin/../lib/gcc/aarch64-none-elf/9.2.0/../../../../aarch64-none-elf/lib/pic\libsysbase.a(sbrk.o)
                0x000000000002c690                _sbrk_r
 .text._exit    0x000000000002c708       0x20 c:/devkitpro/devkita64/bin/../lib/gcc/aarch64-none-elf/9.2.0/../../../../aarch64-none-elf/lib/pic\libsysbase.a(_exit.o)
                0x000000000002c708                _exit
 .text._concatenate_path
                0x000000000002c728      0x228 c:/devkitpro/devkita64/bin/../lib/gcc/aarch64-none-elf/9.2.0/../../../../aarch64-none-elf/lib/pic\libsysbase.a(chdir.o)
                0x000000000002c728                _concatenate_path
 .text.chdir    0x000000000002c950      0x178 c:/devkitpro/devkita64/bin/../lib/gcc/aarch64-none-elf/9.2.0/../../../../aarch64-none-elf/lib/pic\libsysbase.a(chdir.o)
                0x000000000002c950                chdir
 .text.getcwd   0x000000000002cac8       0xb8 c:/devkitpro/devkita64/bin/../lib/gcc/aarch64-none-elf/9.2.0/../../../../aarch64-none-elf/lib/pic\libsysbase.a(chdir.o)
                0x000000000002cac8                getcwd
 .text.timespec2nsec
                0x000000000002cb80       0x14 c:/devkitpro/devkita64/bin/../lib/gcc/aarch64-none-elf/9.2.0/../../../../aarch64-none-elf/lib/pic\libsysbase.a(locks.o)
                0x000000000002cb80                timespec2nsec
 *fill*         0x000000000002cb94        0x4 
 .text.abstimespec2nsec
                0x000000000002cb98       0xc4 c:/devkitpro/devkita64/bin/../lib/gcc/aarch64-none-elf/9.2.0/../../../../aarch64-none-elf/lib/pic\libsysbase.a(locks.o)
                0x000000000002cb98                abstimespec2nsec
 *fill*         0x000000000002cc5c        0x4 
 .text.__libc_lock_init
                0x000000000002cc60        0x8 c:/devkitpro/devkita64/bin/../lib/gcc/aarch64-none-elf/9.2.0/../../../../aarch64-none-elf/lib/pic\libsysbase.a(locks.o)
                0x000000000002cc60                __libc_lock_init
 .text.__libc_lock_acquire
                0x000000000002cc68       0x14 c:/devkitpro/devkita64/bin/../lib/gcc/aarch64-none-elf/9.2.0/../../../../aarch64-none-elf/lib/pic\libsysbase.a(locks.o)
                0x000000000002cc68                __libc_lock_acquire
 *fill*         0x000000000002cc7c        0x4 
 .text.__libc_lock_try_acquire
                0x000000000002cc80       0x18 c:/devkitpro/devkita64/bin/../lib/gcc/aarch64-none-elf/9.2.0/../../../../aarch64-none-elf/lib/pic\libsysbase.a(locks.o)
                0x000000000002cc80                __libc_lock_try_acquire
 .text.__libc_lock_release
                0x000000000002cc98       0x14 c:/devkitpro/devkita64/bin/../lib/gcc/aarch64-none-elf/9.2.0/../../../../aarch64-none-elf/lib/pic\libsysbase.a(locks.o)
                0x000000000002cc98                __libc_lock_release
 *fill*         0x000000000002ccac        0x4 
 .text.__libc_lock_close
                0x000000000002ccb0        0x4 c:/devkitpro/devkita64/bin/../lib/gcc/aarch64-none-elf/9.2.0/../../../../aarch64-none-elf/lib/pic\libsysbase.a(locks.o)
                0x000000000002ccb0                __libc_lock_close
 *fill*         0x000000000002ccb4        0x4 
 .text.__libc_lock_init_recursive
                0x000000000002ccb8        0xc c:/devkitpro/devkita64/bin/../lib/gcc/aarch64-none-elf/9.2.0/../../../../aarch64-none-elf/lib/pic\libsysbase.a(locks.o)
                0x000000000002ccb8                __libc_lock_init_recursive
 *fill*         0x000000000002ccc4        0x4 
 .text.__libc_lock_acquire_recursive
                0x000000000002ccc8       0x14 c:/devkitpro/devkita64/bin/../lib/gcc/aarch64-none-elf/9.2.0/../../../../aarch64-none-elf/lib/pic\libsysbase.a(locks.o)
                0x000000000002ccc8                __libc_lock_acquire_recursive
 *fill*         0x000000000002ccdc        0x4 
 .text.__libc_lock_try_acquire_recursive
                0x000000000002cce0       0x18 c:/devkitpro/devkita64/bin/../lib/gcc/aarch64-none-elf/9.2.0/../../../../aarch64-none-elf/lib/pic\libsysbase.a(locks.o)
                0x000000000002cce0                __libc_lock_try_acquire_recursive
 .text.__libc_lock_release_recursive
                0x000000000002ccf8       0x14 c:/devkitpro/devkita64/bin/../lib/gcc/aarch64-none-elf/9.2.0/../../../../aarch64-none-elf/lib/pic\libsysbase.a(locks.o)
                0x000000000002ccf8                __libc_lock_release_recursive
 *fill*         0x000000000002cd0c        0x4 
 .text.__libc_lock_close_recursive
                0x000000000002cd10        0x4 c:/devkitpro/devkita64/bin/../lib/gcc/aarch64-none-elf/9.2.0/../../../../aarch64-none-elf/lib/pic\libsysbase.a(locks.o)
                0x000000000002cd10                __libc_lock_close_recursive
 *fill*         0x000000000002cd14        0x4 
 .text.__libc_cond_init
                0x000000000002cd18       0x10 c:/devkitpro/devkita64/bin/../lib/gcc/aarch64-none-elf/9.2.0/../../../../aarch64-none-elf/lib/pic\libsysbase.a(locks.o)
                0x000000000002cd18                __libc_cond_init
 .text.__libc_cond_signal
                0x000000000002cd28       0x18 c:/devkitpro/devkita64/bin/../lib/gcc/aarch64-none-elf/9.2.0/../../../../aarch64-none-elf/lib/pic\libsysbase.a(locks.o)
                0x000000000002cd28                __libc_cond_signal
 .text.__libc_cond_broadcast
                0x000000000002cd40       0x18 c:/devkitpro/devkita64/bin/../lib/gcc/aarch64-none-elf/9.2.0/../../../../aarch64-none-elf/lib/pic\libsysbase.a(locks.o)
                0x000000000002cd40                __libc_cond_broadcast
 .text.__libc_cond_wait
                0x000000000002cd58       0x18 c:/devkitpro/devkita64/bin/../lib/gcc/aarch64-none-elf/9.2.0/../../../../aarch64-none-elf/lib/pic\libsysbase.a(locks.o)
                0x000000000002cd58                __libc_cond_wait
 .text.__libc_cond_wait_recursive
                0x000000000002cd70       0x18 c:/devkitpro/devkita64/bin/../lib/gcc/aarch64-none-elf/9.2.0/../../../../aarch64-none-elf/lib/pic\libsysbase.a(locks.o)
                0x000000000002cd70                __libc_cond_wait_recursive
 .text.__getreent
                0x000000000002cd88       0x20 c:/devkitpro/devkita64/bin/../lib/gcc/aarch64-none-elf/9.2.0/../../../../aarch64-none-elf/lib/pic\libsysbase.a(getreent.o)
                0x000000000002cd88                __getreent
 .text.clock_gettime
                0x000000000002cda8       0x34 c:/devkitpro/devkita64/bin/../lib/gcc/aarch64-none-elf/9.2.0/../../../../aarch64-none-elf/lib/pic\libsysbase.a(clocks.o)
                0x000000000002cda8                clock_gettime
 *fill*         0x000000000002cddc        0x4 
 .text.clock_settime
                0x000000000002cde0       0x34 c:/devkitpro/devkita64/bin/../lib/gcc/aarch64-none-elf/9.2.0/../../../../aarch64-none-elf/lib/pic\libsysbase.a(clocks.o)
                0x000000000002cde0                clock_settime
 *fill*         0x000000000002ce14        0x4 
 .text.clock_getres
                0x000000000002ce18       0x34 c:/devkitpro/devkita64/bin/../lib/gcc/aarch64-none-elf/9.2.0/../../../../aarch64-none-elf/lib/pic\libsysbase.a(clocks.o)
                0x000000000002ce18                clock_getres
 *fill*         0x000000000002ce4c        0x4 
 .text.__trunctfdf2
                0x000000000002ce50      0x30c c:/devkitpro/devkita64/bin/../lib/gcc/aarch64-none-elf/9.2.0/pic\libgcc.a(trunctfdf2.o)
                0x000000000002ce50                __trunctfdf2
 *fill*         0x000000000002d15c        0x4 
 .text.__sfp_handle_exceptions
                0x000000000002d160       0x70 c:/devkitpro/devkita64/bin/../lib/gcc/aarch64-none-elf/9.2.0/pic\libgcc.a(sfp-exceptions.o)
                0x000000000002d160                __sfp_handle_exceptions
 .text          0x000000000002d1d0      0x100 c:/devkitpro/devkita64/bin/../lib/gcc/aarch64-none-elf/9.2.0/../../../../aarch64-none-elf/lib/pic\libg.a(lib_a-strrchr.o)
                0x000000000002d1d0                strrchr
                0x000000000002d2d0                . = ALIGN (0x8)

.fini           0x000000000002d2d0       0x38
 *(.fini)
 .fini          0x000000000002d2d0       0x18 c:/devkitpro/devkita64/bin/../lib/gcc/aarch64-none-elf/9.2.0/pic/crti.o
                0x000000000002d2d0                _fini
 .fini          0x000000000002d2e8       0x1c c:/devkitpro/devkita64/bin/../lib/gcc/aarch64-none-elf/9.2.0/pic/crtn.o
                0x000000000002d308                . = ALIGN (0x8)
 *fill*         0x000000000002d304        0x4 
                0x000000000002e000                . = ALIGN (0x1000)

.rodata         0x000000000002e000     0x1e50
 *(.rodata .rodata.* .gnu.linkonce.r.*)
 .rodata.str1.8
                0x000000000002e000      0x46a main.o
 *fill*         0x000000000002e46a        0x6 
 .rodata        0x000000000002e470      0x400 main.o
 .rodata.str1.8
                0x000000000002e870        0x5 acmd_wrapper.o
 *fill*         0x000000000002e875        0x3 
 .rodata        0x000000000002e878      0x400 acmd_wrapper.o
 .rodata.str1.8
                0x000000000002ec78        0x5 saltysd_helper.o
 *fill*         0x000000000002ec7d        0x3 
 .rodata        0x000000000002ec80        0x5 saltysd_helper.o
 *fill*         0x000000000002ec85        0x3 
 .rodata        0x000000000002ec88       0x60 lua_bind_hash.o
 .rodata.str1.8
                0x000000000002ece8      0x147 raygun_printer.o
                                        0x14f (size before relaxing)
 *fill*         0x000000000002ee2f        0x1 
 .rodata        0x000000000002ee30      0x53c raygun_printer.o
 *fill*         0x000000000002f36c        0x4 
 .rodata._fsdevUnmountDeviceStruct.part.4.str1.8
                0x000000000002f370        0x2 C:/Users/oukeh/OneDrive/桌面/code-mod-example/code-mod-framework/lib/libnx_min/nx/lib\libnx_min.a(fs_dev.o)
 *fill*         0x000000000002f372        0x6 
 .rodata.error_table
                0x000000000002f378       0x20 C:/Users/oukeh/OneDrive/桌面/code-mod-example/code-mod-framework/lib/libnx_min/nx/lib\libnx_min.a(fs_dev.o)
 .rodata.fsdevMountSdmc.str1.8
                0x000000000002f398        0x5 C:/Users/oukeh/OneDrive/桌面/code-mod-example/code-mod-framework/lib/libnx_min/nx/lib\libnx_min.a(fs_dev.o)
 *fill*         0x000000000002f39d        0x3 
 .rodata.fsInitialize.str1.8
                0x000000000002f3a0        0x8 C:/Users/oukeh/OneDrive/桌面/code-mod-example/code-mod-framework/lib/libnx_min/nx/lib\libnx_min.a(fs.o)
 .rodata.setInitialize.str1.8
                0x000000000002f3a8        0x4 C:/Users/oukeh/OneDrive/桌面/code-mod-example/code-mod-framework/lib/libnx_min/nx/lib\libnx_min.a(set.o)
 *fill*         0x000000000002f3ac        0x4 
 .rodata.setsysInitialize.str1.8
                0x000000000002f3b0        0x8 C:/Users/oukeh/OneDrive/桌面/code-mod-example/code-mod-framework/lib/libnx_min/nx/lib\libnx_min.a(set.o)
 .rodata._fatalImpl.str1.8
                0x000000000002f3b8        0x8 C:/Users/oukeh/OneDrive/桌面/code-mod-example/code-mod-framework/lib/libnx_min/nx/lib\libnx_min.a(fatal.o)
 .rodata.smInitialize.str1.8
                0x000000000002f3c0        0x4 C:/Users/oukeh/OneDrive/桌面/code-mod-example/code-mod-framework/lib/libnx_min/nx/lib\libnx_min.a(sm.o)
                                          0x9 (size before relaxing)
 *fill*         0x000000000002f3c4        0x4 
 .rodata        0x000000000002f3c8       0x24 C:/Users/oukeh/OneDrive/桌面/code-mod-example/code-mod-framework/lib/libnx_min/nx/lib\libnx_min.a(hid.o)
 *fill*         0x000000000002f3ec        0x4 
 .rodata.hidInitialize.str1.8
                0x000000000002f3f0        0x4 C:/Users/oukeh/OneDrive/桌面/code-mod-example/code-mod-framework/lib/libnx_min/nx/lib\libnx_min.a(hid.o)
 *fill*         0x000000000002f3f4        0x4 
 .rodata.timeInitialize.str1.8
                0x000000000002f3f8        0xf C:/Users/oukeh/OneDrive/桌面/code-mod-example/code-mod-framework/lib/libnx_min/nx/lib\libnx_min.a(time.o)
 *fill*         0x000000000002f407        0x1 
 .rodata.CSWTCH.93
                0x000000000002f408       0x14 C:/Users/oukeh/OneDrive/桌面/code-mod-example/code-mod-framework/lib/libnx_min/nx/lib\libnx_min.a(applet.o)
 *fill*         0x000000000002f41c        0x4 
 .rodata.appletInitialize.str1.8
                0x000000000002f420       0x19 C:/Users/oukeh/OneDrive/桌面/code-mod-example/code-mod-framework/lib/libnx_min/nx/lib\libnx_min.a(applet.o)
 *fill*         0x000000000002f439        0x7 
 .rodata.__libnx_init_time.str1.8
                0x000000000002f440        0x3 C:/Users/oukeh/OneDrive/桌面/code-mod-example/code-mod-framework/lib/libnx_min/nx/lib\libnx_min.a(newlib.o)
 *fill*         0x000000000002f443        0x5 
 .rodata.apmInitialize.str1.8
                0x000000000002f448        0x4 C:/Users/oukeh/OneDrive/桌面/code-mod-example/code-mod-framework/lib/libnx_min/nx/lib\libnx_min.a(apm.o)
 *fill*         0x000000000002f44c        0x4 
 .rodata._ctype_
                0x000000000002f450      0x101 c:/devkitpro/devkita64/bin/../lib/gcc/aarch64-none-elf/9.2.0/../../../../aarch64-none-elf/lib/pic\libg.a(lib_a-ctype_.o)
                0x000000000002f450                _ctype_
 *fill*         0x000000000002f551        0x3 
 .rodata.get_arg
                0x000000000002f554       0x92 c:/devkitpro/devkita64/bin/../lib/gcc/aarch64-none-elf/9.2.0/../../../../aarch64-none-elf/lib/pic\libg.a(lib_a-svfprintf.o)
 .rodata._svfprintf_r.str1.1
                0x000000000002f5e6       0x3b c:/devkitpro/devkita64/bin/../lib/gcc/aarch64-none-elf/9.2.0/../../../../aarch64-none-elf/lib/pic\libg.a(lib_a-svfprintf.o)
 *fill*         0x000000000002f621        0x3 
 .rodata._svfprintf_r
                0x000000000002f624       0xb6 c:/devkitpro/devkita64/bin/../lib/gcc/aarch64-none-elf/9.2.0/../../../../aarch64-none-elf/lib/pic\libg.a(lib_a-svfprintf.o)
 *fill*         0x000000000002f6da        0x6 
 .rodata.blanks.6692
                0x000000000002f6e0       0x10 c:/devkitpro/devkita64/bin/../lib/gcc/aarch64-none-elf/9.2.0/../../../../aarch64-none-elf/lib/pic\libg.a(lib_a-svfprintf.o)
 .rodata.zeroes.6693
                0x000000000002f6f0       0x10 c:/devkitpro/devkita64/bin/../lib/gcc/aarch64-none-elf/9.2.0/../../../../aarch64-none-elf/lib/pic\libg.a(lib_a-svfprintf.o)
 .rodata._dtoa_r.str1.8
                0x000000000002f700       0x1a c:/devkitpro/devkita64/bin/../lib/gcc/aarch64-none-elf/9.2.0/../../../../aarch64-none-elf/lib/pic\libg.a(lib_a-dtoa.o)
 *fill*         0x000000000002f71a        0x6 
 .rodata.cst8   0x000000000002f720       0x18 c:/devkitpro/devkita64/bin/../lib/gcc/aarch64-none-elf/9.2.0/../../../../aarch64-none-elf/lib/pic\libg.a(lib_a-dtoa.o)
 .rodata.currentlocale.str1.8
                0x000000000002f738        0x2 c:/devkitpro/devkita64/bin/../lib/gcc/aarch64-none-elf/9.2.0/../../../../aarch64-none-elf/lib/pic\libg.a(lib_a-locale.o)
 *fill*         0x000000000002f73a        0x6 
 .rodata.__loadlocale.str1.8
                0x000000000002f740      0x113 c:/devkitpro/devkita64/bin/../lib/gcc/aarch64-none-elf/9.2.0/../../../../aarch64-none-elf/lib/pic\libg.a(lib_a-locale.o)
 *fill*         0x000000000002f853        0x1 
 .rodata.__loadlocale
                0x000000000002f854       0x6a c:/devkitpro/devkita64/bin/../lib/gcc/aarch64-none-elf/9.2.0/../../../../aarch64-none-elf/lib/pic\libg.a(lib_a-locale.o)
 *fill*         0x000000000002f8be        0x2 
 .rodata.__get_locale_env.str1.8
                0x000000000002f8c0        0xd c:/devkitpro/devkita64/bin/../lib/gcc/aarch64-none-elf/9.2.0/../../../../aarch64-none-elf/lib/pic\libg.a(lib_a-locale.o)
 *fill*         0x000000000002f8cd        0x3 
 .rodata.str1.8
                0x000000000002f8d0       0x5c c:/devkitpro/devkita64/bin/../lib/gcc/aarch64-none-elf/9.2.0/../../../../aarch64-none-elf/lib/pic\libg.a(lib_a-locale.o)
                                         0x64 (size before relaxing)
 *fill*         0x000000000002f92c        0x4 
 .rodata.JIS_action_table
                0x000000000002f930       0x48 c:/devkitpro/devkita64/bin/../lib/gcc/aarch64-none-elf/9.2.0/../../../../aarch64-none-elf/lib/pic\libg.a(lib_a-mbtowc_r.o)
 .rodata.JIS_state_table
                0x000000000002f978       0x48 c:/devkitpro/devkita64/bin/../lib/gcc/aarch64-none-elf/9.2.0/../../../../aarch64-none-elf/lib/pic\libg.a(lib_a-mbtowc_r.o)
 .rodata.__mprec_bigtens
                0x000000000002f9c0       0x28 c:/devkitpro/devkita64/bin/../lib/gcc/aarch64-none-elf/9.2.0/../../../../aarch64-none-elf/lib/pic\libg.a(lib_a-mprec.o)
                0x000000000002f9c0                __mprec_bigtens
 .rodata.__mprec_tens
                0x000000000002f9e8       0xc8 c:/devkitpro/devkita64/bin/../lib/gcc/aarch64-none-elf/9.2.0/../../../../aarch64-none-elf/lib/pic\libg.a(lib_a-mprec.o)
                0x000000000002f9e8                __mprec_tens
 .rodata.__mprec_tinytens
                0x000000000002fab0       0x28 c:/devkitpro/devkita64/bin/../lib/gcc/aarch64-none-elf/9.2.0/../../../../aarch64-none-elf/lib/pic\libg.a(lib_a-mprec.o)
                0x000000000002fab0                __mprec_tinytens
 .rodata.p05.5441
                0x000000000002fad8        0xc c:/devkitpro/devkita64/bin/../lib/gcc/aarch64-none-elf/9.2.0/../../../../aarch64-none-elf/lib/pic\libg.a(lib_a-mprec.o)
 .rodata.get_arg
                0x000000000002fae4       0x92 c:/devkitpro/devkita64/bin/../lib/gcc/aarch64-none-elf/9.2.0/../../../../aarch64-none-elf/lib/pic\libg.a(lib_a-svfiprintf.o)
 .rodata._svfiprintf_r.str1.1
                0x000000000002fb76       0x29 c:/devkitpro/devkita64/bin/../lib/gcc/aarch64-none-elf/9.2.0/../../../../aarch64-none-elf/lib/pic\libg.a(lib_a-svfiprintf.o)
 *fill*         0x000000000002fb76        0x2 
 .rodata._svfiprintf_r
                0x000000000002fb78       0xb6 c:/devkitpro/devkita64/bin/../lib/gcc/aarch64-none-elf/9.2.0/../../../../aarch64-none-elf/lib/pic\libg.a(lib_a-svfiprintf.o)
 *fill*         0x000000000002fc2e        0x2 
 .rodata.__action_table
                0x000000000002fc30       0x6c c:/devkitpro/devkita64/bin/../lib/gcc/aarch64-none-elf/9.2.0/../../../../aarch64-none-elf/lib/pic\libg.a(lib_a-svfiprintf.o)
                0x000000000002fc30                __action_table
 *fill*         0x000000000002fc9c        0x4 
 .rodata.__chclass
                0x000000000002fca0      0x100 c:/devkitpro/devkita64/bin/../lib/gcc/aarch64-none-elf/9.2.0/../../../../aarch64-none-elf/lib/pic\libg.a(lib_a-svfiprintf.o)
                0x000000000002fca0                __chclass
 .rodata.__state_table
                0x000000000002fda0       0x6c c:/devkitpro/devkita64/bin/../lib/gcc/aarch64-none-elf/9.2.0/../../../../aarch64-none-elf/lib/pic\libg.a(lib_a-svfiprintf.o)
                0x000000000002fda0                __state_table
 *fill*         0x000000000002fe0c        0x4 
 .rodata.blanks.6671
                0x000000000002fe10       0x10 c:/devkitpro/devkita64/bin/../lib/gcc/aarch64-none-elf/9.2.0/../../../../aarch64-none-elf/lib/pic\libg.a(lib_a-svfiprintf.o)
 .rodata.zeroes.6672
                0x000000000002fe20       0x10 c:/devkitpro/devkita64/bin/../lib/gcc/aarch64-none-elf/9.2.0/../../../../aarch64-none-elf/lib/pic\libg.a(lib_a-svfiprintf.o)
 .rodata.AddDevice.str1.8
                0x000000000002fe30        0x8 c:/devkitpro/devkita64/bin/../lib/gcc/aarch64-none-elf/9.2.0/../../../../aarch64-none-elf/lib/pic\libsysbase.a(iosupport.o)
 .rodata.DIRECTORY_PARENT
                0x000000000002fe38        0x3 c:/devkitpro/devkita64/bin/../lib/gcc/aarch64-none-elf/9.2.0/../../../../aarch64-none-elf/lib/pic\libsysbase.a(chdir.o)
                0x000000000002fe38                DIRECTORY_PARENT
 *fill*         0x000000000002fe3b        0x5 
 .rodata.DIRECTORY_SEPARATOR
                0x000000000002fe40        0x2 c:/devkitpro/devkita64/bin/../lib/gcc/aarch64-none-elf/9.2.0/../../../../aarch64-none-elf/lib/pic\libsysbase.a(chdir.o)
                0x000000000002fe40                DIRECTORY_SEPARATOR
 *fill*         0x000000000002fe42        0x6 
 .rodata.DIRECTORY_THIS
                0x000000000002fe48        0x2 c:/devkitpro/devkita64/bin/../lib/gcc/aarch64-none-elf/9.2.0/../../../../aarch64-none-elf/lib/pic\libsysbase.a(chdir.o)
                0x000000000002fe48                DIRECTORY_THIS
                0x000000000002fe50                . = ALIGN (0x8)
 *fill*         0x000000000002fe4a        0x6 

.eh_frame_hdr   0x000000000002fe50        0x0
                0x000000000002fe50                __eh_frame_hdr_start = .
 *(.eh_frame_hdr)
 *(.eh_frame_entry .eh_frame_entry.*)
                0x000000000002fe50                __eh_frame_hdr_end = .

.eh_frame       0x000000000002fe50     0x79d0
 *(.eh_frame)
 .eh_frame      0x000000000002fe50       0x80 c:/devkitpro/devkita64/bin/../lib/gcc/aarch64-none-elf/9.2.0/pic/crtbegin.o
 .eh_frame      0x000000000002fed0      0x338 main.o
                                        0x350 (size before relaxing)
 .eh_frame      0x0000000000030208      0x328 acmd_wrapper.o
                                        0x338 (size before relaxing)
 .eh_frame      0x0000000000030530       0x78 saltysd_helper.o
                                         0x88 (size before relaxing)
 .eh_frame      0x00000000000305a8       0x40 lua_bind_hash.o
                                         0x58 (size before relaxing)
 .eh_frame      0x00000000000305e8       0xd8 l2c_imports.o
                                         0xe8 (size before relaxing)
 .eh_frame      0x00000000000306c0      0x118 raygun_printer.o
                                        0x128 (size before relaxing)
 .eh_frame      0x00000000000307d8       0x28 C:/Users/oukeh/OneDrive/桌面/code-mod-example/code-mod-framework/lib/libnx_min/nx/lib\libnx_min.a(exception.o)
                                         0x40 (size before relaxing)
 .eh_frame      0x0000000000030800       0xa8 C:/Users/oukeh/OneDrive/桌面/code-mod-example/code-mod-framework/lib/libnx_min/nx/lib\libnx_min.a(argv.o)
                                         0xb8 (size before relaxing)
 .eh_frame      0x00000000000308a8      0x1c0 C:/Users/oukeh/OneDrive/桌面/code-mod-example/code-mod-framework/lib/libnx_min/nx/lib\libnx_min.a(env.o)
                                        0x1d8 (size before relaxing)
 .eh_frame      0x0000000000030a68       0x68 C:/Users/oukeh/OneDrive/桌面/code-mod-example/code-mod-framework/lib/libnx_min/nx/lib\libnx_min.a(init.o)
                                         0xb8 (size before relaxing)
 .eh_frame      0x0000000000030ad0       0x28 C:/Users/oukeh/OneDrive/桌面/code-mod-example/code-mod-framework/lib/libnx_min/nx/lib\libnx_min.a(hosversion.o)
                                         0x40 (size before relaxing)
 .eh_frame      0x0000000000030af8       0x18 C:/Users/oukeh/OneDrive/桌面/code-mod-example/code-mod-framework/lib/libnx_min/nx/lib\libnx_min.a(dynamic.o)
                                         0x30 (size before relaxing)
 .eh_frame      0x0000000000030b10      0x800 C:/Users/oukeh/OneDrive/桌面/code-mod-example/code-mod-framework/lib/libnx_min/nx/lib\libnx_min.a(fs_dev.o)
                                        0x818 (size before relaxing)
 .eh_frame      0x0000000000031310       0x18 C:/Users/oukeh/OneDrive/桌面/code-mod-example/code-mod-framework/lib/libnx_min/nx/lib\libnx_min.a(decode_utf8.o)
                                         0x28 (size before relaxing)
 .eh_frame      0x0000000000031328      0x7d0 C:/Users/oukeh/OneDrive/桌面/code-mod-example/code-mod-framework/lib/libnx_min/nx/lib\libnx_min.a(svc.o)
                                        0x7e8 (size before relaxing)
 .eh_frame      0x0000000000031af8       0x18 C:/Users/oukeh/OneDrive/桌面/code-mod-example/code-mod-framework/lib/libnx_min/nx/lib\libnx_min.a(readtp.o)
                                         0x28 (size before relaxing)
 .eh_frame      0x0000000000031b10      0x108 C:/Users/oukeh/OneDrive/桌面/code-mod-example/code-mod-framework/lib/libnx_min/nx/lib\libnx_min.a(virtmem.o)
                                        0x120 (size before relaxing)
 .eh_frame      0x0000000000031c18       0xb0 C:/Users/oukeh/OneDrive/桌面/code-mod-example/code-mod-framework/lib/libnx_min/nx/lib\libnx_min.a(mutex.o)
                                         0xc0 (size before relaxing)
 .eh_frame      0x0000000000031cc8      0xed0 C:/Users/oukeh/OneDrive/桌面/code-mod-example/code-mod-framework/lib/libnx_min/nx/lib\libnx_min.a(fs.o)
                                        0xee0 (size before relaxing)
 .eh_frame      0x0000000000032b98      0x540 C:/Users/oukeh/OneDrive/桌面/code-mod-example/code-mod-framework/lib/libnx_min/nx/lib\libnx_min.a(set.o)
                                        0x550 (size before relaxing)
 .eh_frame      0x00000000000330d8       0x70 C:/Users/oukeh/OneDrive/桌面/code-mod-example/code-mod-framework/lib/libnx_min/nx/lib\libnx_min.a(fatal.o)
                                         0x88 (size before relaxing)
 .eh_frame      0x0000000000033148      0x1d8 C:/Users/oukeh/OneDrive/桌面/code-mod-example/code-mod-framework/lib/libnx_min/nx/lib\libnx_min.a(sm.o)
                                        0x1f0 (size before relaxing)
 .eh_frame      0x0000000000033320      0xbe0 C:/Users/oukeh/OneDrive/桌面/code-mod-example/code-mod-framework/lib/libnx_min/nx/lib\libnx_min.a(hid.o)
                                        0xbf0 (size before relaxing)
 .eh_frame      0x0000000000033f00      0x180 C:/Users/oukeh/OneDrive/桌面/code-mod-example/code-mod-framework/lib/libnx_min/nx/lib\libnx_min.a(time.o)
                                        0x198 (size before relaxing)
 .eh_frame      0x0000000000034080     0x1448 C:/Users/oukeh/OneDrive/桌面/code-mod-example/code-mod-framework/lib/libnx_min/nx/lib\libnx_min.a(applet.o)
                                       0x1458 (size before relaxing)
 .eh_frame      0x00000000000354c8      0x408 C:/Users/oukeh/OneDrive/桌面/code-mod-example/code-mod-framework/lib/libnx_min/nx/lib\libnx_min.a(newlib.o)
                                        0x420 (size before relaxing)
 .eh_frame      0x00000000000358d0      0x1b8 C:/Users/oukeh/OneDrive/桌面/code-mod-example/code-mod-framework/lib/libnx_min/nx/lib\libnx_min.a(thread.o)
                                        0x1c8 (size before relaxing)
 .eh_frame      0x0000000000035a88       0x30 C:/Users/oukeh/OneDrive/桌面/code-mod-example/code-mod-framework/lib/libnx_min/nx/lib\libnx_min.a(condvar.o)
                                         0x48 (size before relaxing)
 .eh_frame      0x0000000000035ab8       0xb0 C:/Users/oukeh/OneDrive/桌面/code-mod-example/code-mod-framework/lib/libnx_min/nx/lib\libnx_min.a(event.o)
                                         0xc0 (size before relaxing)
 .eh_frame      0x0000000000035b68       0xf0 C:/Users/oukeh/OneDrive/桌面/code-mod-example/code-mod-framework/lib/libnx_min/nx/lib\libnx_min.a(tmem.o)
                                        0x108 (size before relaxing)
 .eh_frame      0x0000000000035c58       0xb0 C:/Users/oukeh/OneDrive/桌面/code-mod-example/code-mod-framework/lib/libnx_min/nx/lib\libnx_min.a(rwlock.o)
                                         0xc0 (size before relaxing)
 .eh_frame      0x0000000000035d08       0xb0 C:/Users/oukeh/OneDrive/桌面/code-mod-example/code-mod-framework/lib/libnx_min/nx/lib\libnx_min.a(wait.o)
                                         0xc8 (size before relaxing)
 .eh_frame      0x0000000000035db8       0xb8 C:/Users/oukeh/OneDrive/桌面/code-mod-example/code-mod-framework/lib/libnx_min/nx/lib\libnx_min.a(shmem.o)
                                         0xc8 (size before relaxing)
 .eh_frame      0x0000000000035e70       0xc8 C:/Users/oukeh/OneDrive/桌面/code-mod-example/code-mod-framework/lib/libnx_min/nx/lib\libnx_min.a(detect.o)
                                         0xd8 (size before relaxing)
 .eh_frame      0x0000000000035f38      0x110 C:/Users/oukeh/OneDrive/桌面/code-mod-example/code-mod-framework/lib/libnx_min/nx/lib\libnx_min.a(apm.o)
                                        0x128 (size before relaxing)
 .eh_frame      0x0000000000036048       0x68 c:/devkitpro/devkita64/bin/../lib/gcc/aarch64-none-elf/9.2.0/../../../../aarch64-none-elf/lib/pic\libg.a(lib_a-bsearch.o)
                                         0x78 (size before relaxing)
 .eh_frame      0x00000000000360b0       0x18 c:/devkitpro/devkita64/bin/../lib/gcc/aarch64-none-elf/9.2.0/../../../../aarch64-none-elf/lib/pic\libg.a(lib_a-ctype_.o)
                                         0x28 (size before relaxing)
 .eh_frame      0x00000000000360c8       0x20 c:/devkitpro/devkita64/bin/../lib/gcc/aarch64-none-elf/9.2.0/../../../../aarch64-none-elf/lib/pic\libg.a(lib_a-errno.o)
                                         0x38 (size before relaxing)
 .eh_frame      0x00000000000360e8       0x20 c:/devkitpro/devkita64/bin/../lib/gcc/aarch64-none-elf/9.2.0/../../../../aarch64-none-elf/lib/pic\libg.a(lib_a-exit.o)
                                         0x30 (size before relaxing)
 .eh_frame      0x0000000000036108       0x28 c:/devkitpro/devkita64/bin/../lib/gcc/aarch64-none-elf/9.2.0/../../../../aarch64-none-elf/lib/pic\libg.a(lib_a-fini.o)
                                         0x38 (size before relaxing)
 .eh_frame      0x0000000000036130       0x28 c:/devkitpro/devkita64/bin/../lib/gcc/aarch64-none-elf/9.2.0/../../../../aarch64-none-elf/lib/pic\libg.a(lib_a-init.o)
                                         0x40 (size before relaxing)
 .eh_frame      0x0000000000036158       0x28 c:/devkitpro/devkita64/bin/../lib/gcc/aarch64-none-elf/9.2.0/../../../../aarch64-none-elf/lib/pic\libg.a(lib_a-malign.o)
                                         0x38 (size before relaxing)
 .eh_frame      0x0000000000036180       0x50 c:/devkitpro/devkita64/bin/../lib/gcc/aarch64-none-elf/9.2.0/../../../../aarch64-none-elf/lib/pic\libg.a(lib_a-malignr.o)
                                         0x60 (size before relaxing)
 .eh_frame      0x00000000000361d0       0x48 c:/devkitpro/devkita64/bin/../lib/gcc/aarch64-none-elf/9.2.0/../../../../aarch64-none-elf/lib/pic\libg.a(lib_a-malloc.o)
                                         0x60 (size before relaxing)
 .eh_frame      0x0000000000036218       0xd0 c:/devkitpro/devkita64/bin/../lib/gcc/aarch64-none-elf/9.2.0/../../../../aarch64-none-elf/lib/pic\libg.a(lib_a-mallocr.o)
                                         0xe0 (size before relaxing)
 .eh_frame      0x00000000000362e8       0x28 c:/devkitpro/devkita64/bin/../lib/gcc/aarch64-none-elf/9.2.0/../../../../aarch64-none-elf/lib/pic\libg.a(lib_a-mlock.o)
                                         0x40 (size before relaxing)
 .eh_frame      0x0000000000036310       0x50 c:/devkitpro/devkita64/bin/../lib/gcc/aarch64-none-elf/9.2.0/../../../../aarch64-none-elf/lib/pic\libg.a(lib_a-setenv.o)
                                         0x60 (size before relaxing)
 .eh_frame      0x0000000000036360       0xb0 c:/devkitpro/devkita64/bin/../lib/gcc/aarch64-none-elf/9.2.0/../../../../aarch64-none-elf/lib/pic\libg.a(lib_a-setenv_r.o)
                                         0xc8 (size before relaxing)
 .eh_frame      0x0000000000036410       0x18 c:/devkitpro/devkita64/bin/../lib/gcc/aarch64-none-elf/9.2.0/../../../../aarch64-none-elf/lib/pic\libg.a(lib_a-strncat.o)
                                         0x28 (size before relaxing)
 .eh_frame      0x0000000000036428       0x18 c:/devkitpro/devkita64/bin/../lib/gcc/aarch64-none-elf/9.2.0/../../../../aarch64-none-elf/lib/pic\libg.a(lib_a-strncpy.o)
                                         0x28 (size before relaxing)
 .eh_frame      0x0000000000036440       0x18 c:/devkitpro/devkita64/bin/../lib/gcc/aarch64-none-elf/9.2.0/../../../../aarch64-none-elf/lib/pic\libg.a(lib_a-toupper.o)
                                         0x28 (size before relaxing)
 .eh_frame      0x0000000000036458       0x60 c:/devkitpro/devkita64/bin/../lib/gcc/aarch64-none-elf/9.2.0/../../../../aarch64-none-elf/lib/pic\libg.a(lib_a-vsnprintf.o)
                                         0x70 (size before relaxing)
 .eh_frame      0x00000000000364b8       0x58 c:/devkitpro/devkita64/bin/../lib/gcc/aarch64-none-elf/9.2.0/../../../../aarch64-none-elf/lib/pic\libg.a(lib_a-__call_atexit.o)
                                         0x70 (size before relaxing)
 .eh_frame      0x0000000000036510       0x28 c:/devkitpro/devkita64/bin/../lib/gcc/aarch64-none-elf/9.2.0/../../../../aarch64-none-elf/lib/pic\libg.a(lib_a-envlock.o)
                                         0x40 (size before relaxing)
 .eh_frame      0x0000000000036538       0x90 c:/devkitpro/devkita64/bin/../lib/gcc/aarch64-none-elf/9.2.0/../../../../aarch64-none-elf/lib/pic\libg.a(lib_a-freer.o)
                                         0xa0 (size before relaxing)
 .eh_frame      0x00000000000365c8       0x78 c:/devkitpro/devkita64/bin/../lib/gcc/aarch64-none-elf/9.2.0/../../../../aarch64-none-elf/lib/pic\libg.a(lib_a-getenv_r.o)
                                         0x90 (size before relaxing)
 .eh_frame      0x0000000000036640       0xf0 c:/devkitpro/devkita64/bin/../lib/gcc/aarch64-none-elf/9.2.0/../../../../aarch64-none-elf/lib/pic\libg.a(lib_a-reallocr.o)
                                        0x108 (size before relaxing)
 .eh_frame      0x0000000000036730       0xa8 c:/devkitpro/devkita64/bin/../lib/gcc/aarch64-none-elf/9.2.0/../../../../aarch64-none-elf/lib/pic\libg.a(lib_a-svfprintf.o)
                                         0xc0 (size before relaxing)
 .eh_frame      0x00000000000367d8       0x70 c:/devkitpro/devkita64/bin/../lib/gcc/aarch64-none-elf/9.2.0/../../../../aarch64-none-elf/lib/pic\libg.a(lib_a-wcrtomb.o)
                                         0x88 (size before relaxing)
 .eh_frame      0x0000000000036848       0x40 c:/devkitpro/devkita64/bin/../lib/gcc/aarch64-none-elf/9.2.0/../../../../aarch64-none-elf/lib/pic\libg.a(lib_a-wcsrtombs.o)
                                         0x58 (size before relaxing)
 .eh_frame      0x0000000000036888       0xa0 c:/devkitpro/devkita64/bin/../lib/gcc/aarch64-none-elf/9.2.0/../../../../aarch64-none-elf/lib/pic\libg.a(lib_a-dtoa.o)
                                         0xb0 (size before relaxing)
 .eh_frame      0x0000000000036928       0x58 c:/devkitpro/devkita64/bin/../lib/gcc/aarch64-none-elf/9.2.0/../../../../aarch64-none-elf/lib/pic\libg.a(lib_a-localeconv.o)
                                         0x68 (size before relaxing)
 .eh_frame      0x0000000000036980      0x218 c:/devkitpro/devkita64/bin/../lib/gcc/aarch64-none-elf/9.2.0/../../../../aarch64-none-elf/lib/pic\libg.a(lib_a-locale.o)
                                        0x228 (size before relaxing)
 .eh_frame      0x0000000000036b98      0x108 c:/devkitpro/devkita64/bin/../lib/gcc/aarch64-none-elf/9.2.0/../../../../aarch64-none-elf/lib/pic\libg.a(lib_a-mbtowc_r.o)
                                        0x118 (size before relaxing)
 .eh_frame      0x0000000000036ca0      0x300 c:/devkitpro/devkita64/bin/../lib/gcc/aarch64-none-elf/9.2.0/../../../../aarch64-none-elf/lib/pic\libg.a(lib_a-mprec.o)
                                        0x318 (size before relaxing)
 .eh_frame      0x0000000000036fa0       0x18 c:/devkitpro/devkita64/bin/../lib/gcc/aarch64-none-elf/9.2.0/../../../../aarch64-none-elf/lib/pic\libg.a(lib_a-s_frexp.o)
                                         0x28 (size before relaxing)
 .eh_frame      0x0000000000036fb8       0x18 c:/devkitpro/devkita64/bin/../lib/gcc/aarch64-none-elf/9.2.0/../../../../aarch64-none-elf/lib/pic\libg.a(lib_a-strcasecmp.o)
                                         0x28 (size before relaxing)
 .eh_frame      0x0000000000036fd0       0x28 c:/devkitpro/devkita64/bin/../lib/gcc/aarch64-none-elf/9.2.0/../../../../aarch64-none-elf/lib/pic\libg.a(lib_a-strcat.o)
                                         0x38 (size before relaxing)
 .eh_frame      0x0000000000036ff8       0x18 c:/devkitpro/devkita64/bin/../lib/gcc/aarch64-none-elf/9.2.0/../../../../aarch64-none-elf/lib/pic\libg.a(lib_a-strlcpy.o)
                                         0x28 (size before relaxing)
 .eh_frame      0x0000000000037010       0x18 c:/devkitpro/devkita64/bin/../lib/gcc/aarch64-none-elf/9.2.0/../../../../aarch64-none-elf/lib/pic\libg.a(lib_a-strncasecmp.o)
                                         0x28 (size before relaxing)
 .eh_frame      0x0000000000037028       0x98 c:/devkitpro/devkita64/bin/../lib/gcc/aarch64-none-elf/9.2.0/../../../../aarch64-none-elf/lib/pic\libg.a(lib_a-strtol.o)
                                         0xa8 (size before relaxing)
 .eh_frame      0x00000000000370c0       0xe0 c:/devkitpro/devkita64/bin/../lib/gcc/aarch64-none-elf/9.2.0/../../../../aarch64-none-elf/lib/pic\libg.a(lib_a-svfiprintf.o)
                                         0xf0 (size before relaxing)
 .eh_frame      0x00000000000371a0      0x138 c:/devkitpro/devkita64/bin/../lib/gcc/aarch64-none-elf/9.2.0/../../../../aarch64-none-elf/lib/pic\libg.a(lib_a-wcsnrtombs.o)
                                        0x150 (size before relaxing)
 .eh_frame      0x00000000000372d8       0x90 c:/devkitpro/devkita64/bin/../lib/gcc/aarch64-none-elf/9.2.0/../../../../aarch64-none-elf/lib/pic\libg.a(lib_a-wctomb_r.o)
                                         0xa8 (size before relaxing)
 .eh_frame      0x0000000000037368       0x30 c:/devkitpro/devkita64/bin/../lib/gcc/aarch64-none-elf/9.2.0/../../../../aarch64-none-elf/lib/pic\libg.a(lib_a-callocr.o)
                                         0x40 (size before relaxing)
 .eh_frame      0x0000000000037398      0x120 c:/devkitpro/devkita64/bin/../lib/gcc/aarch64-none-elf/9.2.0/../../../../aarch64-none-elf/lib/pic\libsysbase.a(iosupport.o)
                                        0x130 (size before relaxing)
 .eh_frame      0x00000000000374b8       0x18 c:/devkitpro/devkita64/bin/../lib/gcc/aarch64-none-elf/9.2.0/../../../../aarch64-none-elf/lib/pic\libsysbase.a(sbrk.o)
                                         0x28 (size before relaxing)
 .eh_frame      0x00000000000374d0       0x20 c:/devkitpro/devkita64/bin/../lib/gcc/aarch64-none-elf/9.2.0/../../../../aarch64-none-elf/lib/pic\libsysbase.a(_exit.o)
                                         0x38 (size before relaxing)
 .eh_frame      0x00000000000374f0      0x108 c:/devkitpro/devkita64/bin/../lib/gcc/aarch64-none-elf/9.2.0/../../../../aarch64-none-elf/lib/pic\libsysbase.a(chdir.o)
                                        0x120 (size before relaxing)
 .eh_frame      0x00000000000375f8      0x168 c:/devkitpro/devkita64/bin/../lib/gcc/aarch64-none-elf/9.2.0/../../../../aarch64-none-elf/lib/pic\libsysbase.a(locks.o)
                                        0x178 (size before relaxing)
 .eh_frame      0x0000000000037760       0x18 c:/devkitpro/devkita64/bin/../lib/gcc/aarch64-none-elf/9.2.0/../../../../aarch64-none-elf/lib/pic\libsysbase.a(getreent.o)
                                         0x28 (size before relaxing)
 .eh_frame      0x0000000000037778       0x60 c:/devkitpro/devkita64/bin/../lib/gcc/aarch64-none-elf/9.2.0/../../../../aarch64-none-elf/lib/pic\libsysbase.a(clocks.o)
                                         0x78 (size before relaxing)
 .eh_frame      0x00000000000377d8       0x30 c:/devkitpro/devkita64/bin/../lib/gcc/aarch64-none-elf/9.2.0/pic\libgcc.a(trunctfdf2.o)
                                         0x48 (size before relaxing)
 .eh_frame      0x0000000000037808       0x14 c:/devkitpro/devkita64/bin/../lib/gcc/aarch64-none-elf/9.2.0/pic\libgcc.a(sfp-exceptions.o)
                                         0x28 (size before relaxing)
 .eh_frame      0x000000000003781c        0x4 c:/devkitpro/devkita64/bin/../lib/gcc/aarch64-none-elf/9.2.0/pic/crtend.o
 *(.eh_frame.*)

.gcc_except_table
 *(.gcc_except_table .gcc_except_table.*)

.gnu_extab
 *(.gnu_extab*)

.dynamic        0x0000000000037820      0x1a0
 *(.dynamic)
 .dynamic       0x0000000000037820      0x1a0 c:/devkitpro/devkita64/bin/../lib/gcc/aarch64-none-elf/9.2.0/pic/crti.o
                0x0000000000037820                _DYNAMIC

.dynsym         0x00000000000379c0     0x4848
 *(.dynsym)
 .dynsym        0x00000000000379c0     0x4848 c:/devkitpro/devkita64/bin/../lib/gcc/aarch64-none-elf/9.2.0/pic/crti.o

.dynstr         0x000000000003c208     0x3d90
 *(.dynstr)
 .dynstr        0x000000000003c208     0x3d90 c:/devkitpro/devkita64/bin/../lib/gcc/aarch64-none-elf/9.2.0/pic/crti.o

.rela.dyn       0x000000000003ff98     0x3138
 *(.rela.*)
 .rela.got      0x000000000003ff98      0xd08 c:/devkitpro/devkita64/bin/../lib/gcc/aarch64-none-elf/9.2.0/pic/crti.o
 .rela.plt      0x0000000000043010       0xc0 c:/devkitpro/devkita64/bin/../lib/gcc/aarch64-none-elf/9.2.0/pic/crti.o
 .rela.bss      0x0000000000040d60        0x0 c:/devkitpro/devkita64/bin/../lib/gcc/aarch64-none-elf/9.2.0/pic/crti.o
 .rela.data.rel.ro
                0x0000000000040d60        0x0 c:/devkitpro/devkita64/bin/../lib/gcc/aarch64-none-elf/9.2.0/pic/crti.o
 .rela.init_array
                0x0000000000040ca0       0x30 c:/devkitpro/devkita64/bin/../lib/gcc/aarch64-none-elf/9.2.0/pic/crti.o
 .rela.fini_array
                0x0000000000040cd0       0x18 c:/devkitpro/devkita64/bin/../lib/gcc/aarch64-none-elf/9.2.0/pic/crti.o
 .rela.ifunc    0x0000000000040da8        0x0 c:/devkitpro/devkita64/bin/../lib/gcc/aarch64-none-elf/9.2.0/pic/crti.o
 .rela.data.rel.local
                0x0000000000040ce8      0x3c0 c:/devkitpro/devkita64/bin/../lib/gcc/aarch64-none-elf/9.2.0/pic/crti.o
 .rela.data.rel.ro.local.fsdev_devoptab
                0x00000000000410a8      0x210 c:/devkitpro/devkita64/bin/../lib/gcc/aarch64-none-elf/9.2.0/pic/crti.o
 .rela.data.rel.local._impure_ptr
                0x00000000000412b8       0x18 c:/devkitpro/devkita64/bin/../lib/gcc/aarch64-none-elf/9.2.0/pic/crti.o
 .rela.data.rel.local.impure_data
                0x00000000000412d0       0x48 c:/devkitpro/devkita64/bin/../lib/gcc/aarch64-none-elf/9.2.0/pic/crti.o
 .rela.data.rel.ro.local._global_impure_ptr
                0x0000000000041318       0x18 c:/devkitpro/devkita64/bin/../lib/gcc/aarch64-none-elf/9.2.0/pic/crti.o
 .rela.data.rel.__malloc_av_
                0x0000000000041330     0x1800 c:/devkitpro/devkita64/bin/../lib/gcc/aarch64-none-elf/9.2.0/pic/crti.o
 .rela.data.rel.local.environ
                0x0000000000042b30       0x18 c:/devkitpro/devkita64/bin/../lib/gcc/aarch64-none-elf/9.2.0/pic/crti.o
 .rela.data.rel.__global_locale
                0x0000000000042b48      0x138 c:/devkitpro/devkita64/bin/../lib/gcc/aarch64-none-elf/9.2.0/pic/crti.o
 .rela.data.rel.ro.__C_locale
                0x0000000000042c80      0x138 c:/devkitpro/devkita64/bin/../lib/gcc/aarch64-none-elf/9.2.0/pic/crti.o
 .rela.data.rel.ro.local.categories
                0x0000000000042db8       0xa8 c:/devkitpro/devkita64/bin/../lib/gcc/aarch64-none-elf/9.2.0/pic/crti.o
 .rela.data.rel.devoptab_list
                0x0000000000042e60      0x180 c:/devkitpro/devkita64/bin/../lib/gcc/aarch64-none-elf/9.2.0/pic/crti.o
 .rela.data.rel.ro.local.dotab_stdnull
                0x0000000000042fe0       0x30 c:/devkitpro/devkita64/bin/../lib/gcc/aarch64-none-elf/9.2.0/pic/crti.o

.interp         0x00000000000430d0        0xd
 *(.interp)
 .interp        0x00000000000430d0        0xd c:/devkitpro/devkita64/bin/../lib/gcc/aarch64-none-elf/9.2.0/pic/crti.o

.hash           0x00000000000430e0     0x1438
 *(.hash)
 .hash          0x00000000000430e0     0x1438 c:/devkitpro/devkita64/bin/../lib/gcc/aarch64-none-elf/9.2.0/pic/crti.o

.gnu.hash
 *(.gnu.hash)

.gnu.version    0x0000000000044518        0x0
 *(.gnu.version)
 .gnu.version   0x0000000000044518        0x0 c:/devkitpro/devkita64/bin/../lib/gcc/aarch64-none-elf/9.2.0/pic/crti.o

.gnu.version_d  0x0000000000044518        0x0
 *(.gnu.version_d)
 .gnu.version_d
                0x0000000000044518        0x0 c:/devkitpro/devkita64/bin/../lib/gcc/aarch64-none-elf/9.2.0/pic/crti.o

.gnu.version_r  0x0000000000044518        0x0
 *(.gnu.version_r)
 .gnu.version_r
                0x0000000000044518        0x0 c:/devkitpro/devkita64/bin/../lib/gcc/aarch64-none-elf/9.2.0/pic/crti.o

.note.gnu.build-id
                0x0000000000044518       0x24
 *(.note.gnu.build-id)
 .note.gnu.build-id
                0x0000000000044518       0x24 c:/devkitpro/devkita64/bin/../lib/gcc/aarch64-none-elf/9.2.0/pic/crti.o
                0x0000000000045000                . = ALIGN (0x1000)

.eh_frame
 *(.eh_frame)
 *(.eh_frame.*)

.gcc_except_table
 *(.gcc_except_table .gcc_except_table.*)

.gnu_extab
 *(.gnu_extab*)

.exception_ranges
 *(.exception_ranges .exception_ranges*)

.tdata          0x0000000000045000        0x0
                0x0000000000045000                __tdata_lma = .
 *(.tdata .tdata.* .gnu.linkonce.td.*)
                0x0000000000045000                . = ALIGN (0x8)
                0x0000000000045000                __tdata_lma_end = .

.tbss           0x0000000000045000     0x4408
 *(.tbss .tbss.* .gnu.linkonce.tb.*)
 .tbss.__fixedpath
                0x0000000000045000      0x401 C:/Users/oukeh/OneDrive/桌面/code-mod-example/code-mod-framework/lib/libnx_min/nx/lib\libnx_min.a(fs_dev.o)
 *fill*         0x0000000000045401        0x3 
 .tbss.fsdev_last_result
                0x0000000000045404        0x4 C:/Users/oukeh/OneDrive/桌面/code-mod-example/code-mod-framework/lib/libnx_min/nx/lib\libnx_min.a(fs_dev.o)
 .tbss.tmp_buffer.7389
                0x0000000000045408     0x2000 C:/Users/oukeh/OneDrive/桌面/code-mod-example/code-mod-framework/lib/libnx_min/nx/lib\libnx_min.a(fs_dev.o)
 .tbss.tmp_buffer.7413
                0x0000000000047408     0x2000 C:/Users/oukeh/OneDrive/桌面/code-mod-example/code-mod-framework/lib/libnx_min/nx/lib\libnx_min.a(fs_dev.o)
 *(.tcommon)
                0x0000000000049408                . = ALIGN (0x8)

.preinit_array  0x0000000000045000        0x0
                0x0000000000045000                PROVIDE (__preinit_array_start = .)
 *(.preinit_array)
                0x0000000000045000                PROVIDE (__preinit_array_end = .)

.init_array     0x0000000000045000       0x10
                0x0000000000045000                PROVIDE (__init_array_start = .)
 *(SORT_BY_NAME(.init_array.*))
 *(.init_array)
 .init_array    0x0000000000045000        0x8 c:/devkitpro/devkita64/bin/../lib/gcc/aarch64-none-elf/9.2.0/pic/crtbegin.o
 .init_array    0x0000000000045008        0x8 main.o
                0x0000000000045010                PROVIDE (__init_array_end = .)

.fini_array     0x0000000000045010        0x8
                0x0000000000045010                PROVIDE (__fini_array_start = .)
 *(.fini_array)
 .fini_array    0x0000000000045010        0x8 c:/devkitpro/devkita64/bin/../lib/gcc/aarch64-none-elf/9.2.0/pic/crtbegin.o
 *(SORT_BY_NAME(.fini_array.*))
                0x0000000000045018                PROVIDE (__fini_array_end = .)

.ctors
 *crtbegin.o(.ctors)
 *(EXCLUDE_FILE(*crtend.o) .ctors)
 *(SORT_BY_NAME(.ctors.*))
 *(.ctors)

.dtors
 *crtbegin.o(.dtors)
 *(EXCLUDE_FILE(*crtend.o) .dtors)
 *(SORT_BY_NAME(.dtors.*))
 *(.dtors)
                0x0000000000045018                __got_start__ = .

.got            0x0000000000045018      0x460
 *(.got)
 .got           0x0000000000045018      0x460 c:/devkitpro/devkita64/bin/../lib/gcc/aarch64-none-elf/9.2.0/pic/crti.o
                0x0000000000045018                _GLOBAL_OFFSET_TABLE_
 *(.igot)

.got.plt        0x0000000000045478       0x58
 *(.got.plt)
 .got.plt       0x0000000000045478       0x58 c:/devkitpro/devkita64/bin/../lib/gcc/aarch64-none-elf/9.2.0/pic/crti.o
 *(.igot.plt)
                0x00000000000454d0                __got_end__ = .

.data           0x00000000000454d0     0x1ef8
 *(.data .data.* .gnu.linkonce.d.*)
 .data.rel.ro   0x00000000000454d0        0x0 c:/devkitpro/devkita64/bin/../lib/gcc/aarch64-none-elf/9.2.0/pic/crti.o
 .data          0x00000000000454d0        0x4 main.o
                0x00000000000454d0                __nx_applet_type
 *fill*         0x00000000000454d4        0x4 
 .data.rel.local
                0x00000000000454d8      0x140 raygun_printer.o
                0x00000000000454d8                alphabet
 .data.__nx_exception_stack_size
                0x0000000000045618        0x8 C:/Users/oukeh/OneDrive/桌面/code-mod-example/code-mod-framework/lib/libnx_min/nx/lib\libnx_min.a(init.o)
                0x0000000000045618                __nx_exception_stack_size
 .data.__cwd    0x0000000000045620      0x401 C:/Users/oukeh/OneDrive/桌面/code-mod-example/code-mod-framework/lib/libnx_min/nx/lib\libnx_min.a(fs_dev.o)
 *fill*         0x0000000000045a21        0x3 
 .data.fsdev_fsdevice_cwd
                0x0000000000045a24        0x4 C:/Users/oukeh/OneDrive/桌面/code-mod-example/code-mod-framework/lib/libnx_min/nx/lib\libnx_min.a(fs_dev.o)
 .data.fsdev_fsdevice_default
                0x0000000000045a28        0x4 C:/Users/oukeh/OneDrive/桌面/code-mod-example/code-mod-framework/lib/libnx_min/nx/lib\libnx_min.a(fs_dev.o)
 *fill*         0x0000000000045a2c        0x4 
 .data.rel.ro.local.fsdev_devoptab
                0x0000000000045a30       0xe0 C:/Users/oukeh/OneDrive/桌面/code-mod-example/code-mod-framework/lib/libnx_min/nx/lib\libnx_min.a(fs_dev.o)
 .data.__nx_applet_auto_notifyrunning
                0x0000000000045b10        0x1 C:/Users/oukeh/OneDrive/桌面/code-mod-example/code-mod-framework/lib/libnx_min/nx/lib\libnx_min.a(applet.o)
                0x0000000000045b10                __nx_applet_auto_notifyrunning
 *fill*         0x0000000000045b11        0x7 
 .data.rel.local._impure_ptr
                0x0000000000045b18        0x8 c:/devkitpro/devkita64/bin/../lib/gcc/aarch64-none-elf/9.2.0/../../../../aarch64-none-elf/lib/pic\libg.a(lib_a-impure.o)
                0x0000000000045b18                _impure_ptr
 .data.rel.local.impure_data
                0x0000000000045b20      0x768 c:/devkitpro/devkita64/bin/../lib/gcc/aarch64-none-elf/9.2.0/../../../../aarch64-none-elf/lib/pic\libg.a(lib_a-impure.o)
 .data.rel.ro.local._global_impure_ptr
                0x0000000000046288        0x8 c:/devkitpro/devkita64/bin/../lib/gcc/aarch64-none-elf/9.2.0/../../../../aarch64-none-elf/lib/pic\libg.a(lib_a-impure.o)
                0x0000000000046288                _global_impure_ptr
 .data.__malloc_sbrk_base
                0x0000000000046290        0x8 c:/devkitpro/devkita64/bin/../lib/gcc/aarch64-none-elf/9.2.0/../../../../aarch64-none-elf/lib/pic\libg.a(lib_a-mallocr.o)
                0x0000000000046290                __malloc_sbrk_base
 .data.__malloc_trim_threshold
                0x0000000000046298        0x8 c:/devkitpro/devkita64/bin/../lib/gcc/aarch64-none-elf/9.2.0/../../../../aarch64-none-elf/lib/pic\libg.a(lib_a-mallocr.o)
                0x0000000000046298                __malloc_trim_threshold
 .data.rel.__malloc_av_
                0x00000000000462a0      0x810 c:/devkitpro/devkita64/bin/../lib/gcc/aarch64-none-elf/9.2.0/../../../../aarch64-none-elf/lib/pic\libg.a(lib_a-mallocr.o)
                0x00000000000462a0                __malloc_av_
 .data.rel.local.environ
                0x0000000000046ab0        0x8 c:/devkitpro/devkita64/bin/../lib/gcc/aarch64-none-elf/9.2.0/../../../../aarch64-none-elf/lib/pic\libg.a(lib_a-environ.o)
                0x0000000000046ab0                environ
 .data.__default_locale
                0x0000000000046ab8       0x20 c:/devkitpro/devkita64/bin/../lib/gcc/aarch64-none-elf/9.2.0/../../../../aarch64-none-elf/lib/pic\libg.a(lib_a-locale.o)
                0x0000000000046ab8                __default_locale
 .data.rel.__global_locale
                0x0000000000046ad8      0x1a8 c:/devkitpro/devkita64/bin/../lib/gcc/aarch64-none-elf/9.2.0/../../../../aarch64-none-elf/lib/pic\libg.a(lib_a-locale.o)
                0x0000000000046ad8                __global_locale
 .data.rel.ro.__C_locale
                0x0000000000046c80      0x1a8 c:/devkitpro/devkita64/bin/../lib/gcc/aarch64-none-elf/9.2.0/../../../../aarch64-none-elf/lib/pic\libg.a(lib_a-locale.o)
                0x0000000000046c80                __C_locale
 .data.rel.ro.local.categories
                0x0000000000046e28       0x38 c:/devkitpro/devkita64/bin/../lib/gcc/aarch64-none-elf/9.2.0/../../../../aarch64-none-elf/lib/pic\libg.a(lib_a-locale.o)
 .data.defaultDevice
                0x0000000000046e60        0x4 c:/devkitpro/devkita64/bin/../lib/gcc/aarch64-none-elf/9.2.0/../../../../aarch64-none-elf/lib/pic\libsysbase.a(iosupport.o)
 *fill*         0x0000000000046e64        0x4 
 .data.rel.devoptab_list
                0x0000000000046e68       0x80 c:/devkitpro/devkita64/bin/../lib/gcc/aarch64-none-elf/9.2.0/../../../../aarch64-none-elf/lib/pic\libsysbase.a(iosupport.o)
                0x0000000000046e68                devoptab_list
 .data.rel.ro.local.dotab_stdnull
                0x0000000000046ee8       0xe0 c:/devkitpro/devkita64/bin/../lib/gcc/aarch64-none-elf/9.2.0/../../../../aarch64-none-elf/lib/pic\libsysbase.a(iosupport.o)
                0x0000000000046ee8                dotab_stdnull
 .data._current_working_directory
                0x0000000000046fc8      0x400 c:/devkitpro/devkita64/bin/../lib/gcc/aarch64-none-elf/9.2.0/../../../../aarch64-none-elf/lib/pic\libsysbase.a(chdir.o)
                0x00000000000473c8                __bss_start__ = .

.tm_clone_table
                0x00000000000473c8        0x0
 .tm_clone_table
                0x00000000000473c8        0x0 c:/devkitpro/devkita64/bin/../lib/gcc/aarch64-none-elf/9.2.0/pic/crtbegin.o
 .tm_clone_table
                0x00000000000473c8        0x0 c:/devkitpro/devkita64/bin/../lib/gcc/aarch64-none-elf/9.2.0/pic/crtend.o

.bss            0x00000000000473c8    0x15968
 *(.dynbss)
 .dynbss        0x00000000000473c8        0x0 c:/devkitpro/devkita64/bin/../lib/gcc/aarch64-none-elf/9.2.0/pic/crti.o
 *(.bss .bss.* .gnu.linkonce.b.*)
 .bss.completed.8111
                0x00000000000473c8        0x1 c:/devkitpro/devkita64/bin/../lib/gcc/aarch64-none-elf/9.2.0/pic/crtbegin.o
 *fill*         0x00000000000473c9        0x7 
 .bss.object.8116
                0x00000000000473d0       0x30 c:/devkitpro/devkita64/bin/../lib/gcc/aarch64-none-elf/9.2.0/pic/crtbegin.o
 .bss           0x0000000000047400     0x81a8 main.o
                0x0000000000047400                prev_get_command_flag_cat
                0x0000000000047408                fighter_agents
                0x0000000000047448                fighter_module_accessors
                0x0000000000047488                acmd_objs
                0x0000000000047588                prev_clear_lua_stack
                0x0000000000047590                orig_ctx
                0x0000000000047598                orig_main_thread
                0x00000000000475a0                orig_saved_lr
 .bss           0x000000000004f5a8        0x8 saltysd_helper.o
                0x000000000004f5a8                ANCHOR_ABS
 .bss.g_argv_empty
                0x000000000004f5b0        0x8 C:/Users/oukeh/OneDrive/桌面/code-mod-example/code-mod-framework/lib/libnx_min/nx/lib\libnx_min.a(argv.o)
 .bss.g_hasRandomSeed
                0x000000000004f5b8        0x1 C:/Users/oukeh/OneDrive/桌面/code-mod-example/code-mod-framework/lib/libnx_min/nx/lib\libnx_min.a(env.o)
 .bss.g_isNso   0x000000000004f5b9        0x1 C:/Users/oukeh/OneDrive/桌面/code-mod-example/code-mod-framework/lib/libnx_min/nx/lib\libnx_min.a(env.o)
 *fill*         0x000000000004f5ba        0x2 
 .bss.g_lastLoadResult
                0x000000000004f5bc        0x4 C:/Users/oukeh/OneDrive/桌面/code-mod-example/code-mod-framework/lib/libnx_min/nx/lib\libnx_min.a(env.o)
 .bss.g_loaderRetAddr
                0x000000000004f5c0        0x8 C:/Users/oukeh/OneDrive/桌面/code-mod-example/code-mod-framework/lib/libnx_min/nx/lib\libnx_min.a(env.o)
 .bss.g_mainThreadHandle
                0x000000000004f5c8        0x4 C:/Users/oukeh/OneDrive/桌面/code-mod-example/code-mod-framework/lib/libnx_min/nx/lib\libnx_min.a(env.o)
 *fill*         0x000000000004f5cc        0x4 
 .bss.g_nextLoadArgv
                0x000000000004f5d0        0x8 C:/Users/oukeh/OneDrive/桌面/code-mod-example/code-mod-framework/lib/libnx_min/nx/lib\libnx_min.a(env.o)
 .bss.g_nextLoadPath
                0x000000000004f5d8        0x8 C:/Users/oukeh/OneDrive/桌面/code-mod-example/code-mod-framework/lib/libnx_min/nx/lib\libnx_min.a(env.o)
 .bss.g_overrideArgv
                0x000000000004f5e0        0x8 C:/Users/oukeh/OneDrive/桌面/code-mod-example/code-mod-framework/lib/libnx_min/nx/lib\libnx_min.a(env.o)
 .bss.g_overrideHeapAddr
                0x000000000004f5e8        0x8 C:/Users/oukeh/OneDrive/桌面/code-mod-example/code-mod-framework/lib/libnx_min/nx/lib\libnx_min.a(env.o)
 .bss.g_overrideHeapSize
                0x000000000004f5f0        0x8 C:/Users/oukeh/OneDrive/桌面/code-mod-example/code-mod-framework/lib/libnx_min/nx/lib\libnx_min.a(env.o)
 .bss.g_processHandle
                0x000000000004f5f8        0x4 C:/Users/oukeh/OneDrive/桌面/code-mod-example/code-mod-framework/lib/libnx_min/nx/lib\libnx_min.a(env.o)
 *fill*         0x000000000004f5fc        0x4 
 .bss.g_randomSeed
                0x000000000004f600       0x10 C:/Users/oukeh/OneDrive/桌面/code-mod-example/code-mod-framework/lib/libnx_min/nx/lib\libnx_min.a(env.o)
 .bss.g_syscallHints
                0x000000000004f610       0x10 C:/Users/oukeh/OneDrive/桌面/code-mod-example/code-mod-framework/lib/libnx_min/nx/lib\libnx_min.a(env.o)
 .bss.__nx_exception_ignoredebug
                0x000000000004f620        0x4 C:/Users/oukeh/OneDrive/桌面/code-mod-example/code-mod-framework/lib/libnx_min/nx/lib\libnx_min.a(init.o)
                0x000000000004f620                __nx_exception_ignoredebug
 *fill*         0x000000000004f624        0xc 
 .bss.__nx_exception_stack
                0x000000000004f630      0x400 C:/Users/oukeh/OneDrive/桌面/code-mod-example/code-mod-framework/lib/libnx_min/nx/lib\libnx_min.a(init.o)
                0x000000000004f630                __nx_exception_stack
 .bss.__nx_heap_size
                0x000000000004fa30        0x8 C:/Users/oukeh/OneDrive/桌面/code-mod-example/code-mod-framework/lib/libnx_min/nx/lib\libnx_min.a(init.o)
                0x000000000004fa30                __nx_heap_size
 .bss.g_hosVersion
                0x000000000004fa38        0x4 C:/Users/oukeh/OneDrive/桌面/code-mod-example/code-mod-framework/lib/libnx_min/nx/lib\libnx_min.a(hosversion.o)
 *fill*         0x000000000004fa3c        0x4 
 .bss.fsdev_fsdevices
                0x000000000004fa40     0x2300 C:/Users/oukeh/OneDrive/桌面/code-mod-example/code-mod-framework/lib/libnx_min/nx/lib\libnx_min.a(fs_dev.o)
 .bss.fsdev_initialised
                0x0000000000051d40        0x1 C:/Users/oukeh/OneDrive/桌面/code-mod-example/code-mod-framework/lib/libnx_min/nx/lib\libnx_min.a(fs_dev.o)
 *fill*         0x0000000000051d41        0x7 
 .bss.g_AddressSpace
                0x0000000000051d48       0x10 C:/Users/oukeh/OneDrive/桌面/code-mod-example/code-mod-framework/lib/libnx_min/nx/lib\libnx_min.a(virtmem.o)
 .bss.g_CurrentAddr
                0x0000000000051d58        0x8 C:/Users/oukeh/OneDrive/桌面/code-mod-example/code-mod-framework/lib/libnx_min/nx/lib\libnx_min.a(virtmem.o)
 .bss.g_CurrentMapAddr
                0x0000000000051d60        0x8 C:/Users/oukeh/OneDrive/桌面/code-mod-example/code-mod-framework/lib/libnx_min/nx/lib\libnx_min.a(virtmem.o)
 .bss.g_Region  0x0000000000051d68       0x30 C:/Users/oukeh/OneDrive/桌面/code-mod-example/code-mod-framework/lib/libnx_min/nx/lib\libnx_min.a(virtmem.o)
 .bss.g_VirtMemMutex
                0x0000000000051d98        0x4 C:/Users/oukeh/OneDrive/桌面/code-mod-example/code-mod-framework/lib/libnx_min/nx/lib\libnx_min.a(virtmem.o)
 *fill*         0x0000000000051d9c        0x4 
 .bss.g_fsSrv   0x0000000000051da0        0xc C:/Users/oukeh/OneDrive/桌面/code-mod-example/code-mod-framework/lib/libnx_min/nx/lib\libnx_min.a(fs.o)
 *fill*         0x0000000000051dac        0x4 
 .bss.g_refCnt  0x0000000000051db0        0x8 C:/Users/oukeh/OneDrive/桌面/code-mod-example/code-mod-framework/lib/libnx_min/nx/lib\libnx_min.a(fs.o)
 .bss.g_refCnt  0x0000000000051db8        0x8 C:/Users/oukeh/OneDrive/桌面/code-mod-example/code-mod-framework/lib/libnx_min/nx/lib\libnx_min.a(set.o)
 .bss.g_refCntSys
                0x0000000000051dc0        0x8 C:/Users/oukeh/OneDrive/桌面/code-mod-example/code-mod-framework/lib/libnx_min/nx/lib\libnx_min.a(set.o)
 .bss.g_setLanguageCodes
                0x0000000000051dc8      0x200 C:/Users/oukeh/OneDrive/桌面/code-mod-example/code-mod-framework/lib/libnx_min/nx/lib\libnx_min.a(set.o)
 .bss.g_setLanguageCodesInitialized
                0x0000000000051fc8        0x1 C:/Users/oukeh/OneDrive/桌面/code-mod-example/code-mod-framework/lib/libnx_min/nx/lib\libnx_min.a(set.o)
 *fill*         0x0000000000051fc9        0x3 
 .bss.g_setLanguageCodesTotal
                0x0000000000051fcc        0x4 C:/Users/oukeh/OneDrive/桌面/code-mod-example/code-mod-framework/lib/libnx_min/nx/lib\libnx_min.a(set.o)
 .bss.g_setSrv  0x0000000000051fd0        0xc C:/Users/oukeh/OneDrive/桌面/code-mod-example/code-mod-framework/lib/libnx_min/nx/lib\libnx_min.a(set.o)
 *fill*         0x0000000000051fdc        0x4 
 .bss.g_setsysSrv
                0x0000000000051fe0        0xc C:/Users/oukeh/OneDrive/桌面/code-mod-example/code-mod-framework/lib/libnx_min/nx/lib\libnx_min.a(set.o)
 *fill*         0x0000000000051fec        0x4 
 .bss.g_refCnt  0x0000000000051ff0        0x8 C:/Users/oukeh/OneDrive/桌面/code-mod-example/code-mod-framework/lib/libnx_min/nx/lib\libnx_min.a(sm.o)
 .bss.g_smOverrides
                0x0000000000051ff8      0x200 C:/Users/oukeh/OneDrive/桌面/code-mod-example/code-mod-framework/lib/libnx_min/nx/lib\libnx_min.a(sm.o)
 .bss.g_smOverridesNum
                0x00000000000521f8        0x8 C:/Users/oukeh/OneDrive/桌面/code-mod-example/code-mod-framework/lib/libnx_min/nx/lib\libnx_min.a(sm.o)
 .bss.g_smSrv   0x0000000000052200        0xc C:/Users/oukeh/OneDrive/桌面/code-mod-example/code-mod-framework/lib/libnx_min/nx/lib\libnx_min.a(sm.o)
 *fill*         0x000000000005220c        0x4 
 .bss.g_controllerDown
                0x0000000000052210       0x50 C:/Users/oukeh/OneDrive/桌面/code-mod-example/code-mod-framework/lib/libnx_min/nx/lib\libnx_min.a(hid.o)
 .bss.g_controllerEntries
                0x0000000000052260      0x1e0 C:/Users/oukeh/OneDrive/桌面/code-mod-example/code-mod-framework/lib/libnx_min/nx/lib\libnx_min.a(hid.o)
 .bss.g_controllerHeaders
                0x0000000000052440      0x190 C:/Users/oukeh/OneDrive/桌面/code-mod-example/code-mod-framework/lib/libnx_min/nx/lib\libnx_min.a(hid.o)
 .bss.g_controllerHeld
                0x00000000000525d0       0x50 C:/Users/oukeh/OneDrive/桌面/code-mod-example/code-mod-framework/lib/libnx_min/nx/lib\libnx_min.a(hid.o)
 .bss.g_controllerLayout
                0x0000000000052620       0x28 C:/Users/oukeh/OneDrive/桌面/code-mod-example/code-mod-framework/lib/libnx_min/nx/lib\libnx_min.a(hid.o)
 .bss.g_controllerMisc
                0x0000000000052648      0x500 C:/Users/oukeh/OneDrive/桌面/code-mod-example/code-mod-framework/lib/libnx_min/nx/lib\libnx_min.a(hid.o)
 .bss.g_controllerOld
                0x0000000000052b48       0x50 C:/Users/oukeh/OneDrive/桌面/code-mod-example/code-mod-framework/lib/libnx_min/nx/lib\libnx_min.a(hid.o)
 .bss.g_controllerP1AutoID
                0x0000000000052b98        0x4 C:/Users/oukeh/OneDrive/桌面/code-mod-example/code-mod-framework/lib/libnx_min/nx/lib\libnx_min.a(hid.o)
 *fill*         0x0000000000052b9c        0x4 
 .bss.g_controllerTimestamps
                0x0000000000052ba0       0x50 C:/Users/oukeh/OneDrive/桌面/code-mod-example/code-mod-framework/lib/libnx_min/nx/lib\libnx_min.a(hid.o)
 .bss.g_controllerUp
                0x0000000000052bf0       0x50 C:/Users/oukeh/OneDrive/桌面/code-mod-example/code-mod-framework/lib/libnx_min/nx/lib\libnx_min.a(hid.o)
 .bss.g_hidIAppletResource
                0x0000000000052c40        0xc C:/Users/oukeh/OneDrive/桌面/code-mod-example/code-mod-framework/lib/libnx_min/nx/lib\libnx_min.a(hid.o)
 *fill*         0x0000000000052c4c        0x4 
 .bss.g_hidLock
                0x0000000000052c50       0x10 C:/Users/oukeh/OneDrive/桌面/code-mod-example/code-mod-framework/lib/libnx_min/nx/lib\libnx_min.a(hid.o)
 .bss.g_hidSharedmem
                0x0000000000052c60       0x20 C:/Users/oukeh/OneDrive/桌面/code-mod-example/code-mod-framework/lib/libnx_min/nx/lib\libnx_min.a(hid.o)
 .bss.g_hidSrv  0x0000000000052c80        0xc C:/Users/oukeh/OneDrive/桌面/code-mod-example/code-mod-framework/lib/libnx_min/nx/lib\libnx_min.a(hid.o)
 *fill*         0x0000000000052c8c        0x4 
 .bss.g_keyboardDown
                0x0000000000052c90       0x20 C:/Users/oukeh/OneDrive/桌面/code-mod-example/code-mod-framework/lib/libnx_min/nx/lib\libnx_min.a(hid.o)
 .bss.g_keyboardEntry
                0x0000000000052cb0       0x38 C:/Users/oukeh/OneDrive/桌面/code-mod-example/code-mod-framework/lib/libnx_min/nx/lib\libnx_min.a(hid.o)
 .bss.g_keyboardHeld
                0x0000000000052ce8       0x20 C:/Users/oukeh/OneDrive/桌面/code-mod-example/code-mod-framework/lib/libnx_min/nx/lib\libnx_min.a(hid.o)
 .bss.g_keyboardModDown
                0x0000000000052d08        0x8 C:/Users/oukeh/OneDrive/桌面/code-mod-example/code-mod-framework/lib/libnx_min/nx/lib\libnx_min.a(hid.o)
 .bss.g_keyboardModHeld
                0x0000000000052d10        0x8 C:/Users/oukeh/OneDrive/桌面/code-mod-example/code-mod-framework/lib/libnx_min/nx/lib\libnx_min.a(hid.o)
 .bss.g_keyboardModOld
                0x0000000000052d18        0x8 C:/Users/oukeh/OneDrive/桌面/code-mod-example/code-mod-framework/lib/libnx_min/nx/lib\libnx_min.a(hid.o)
 .bss.g_keyboardModUp
                0x0000000000052d20        0x8 C:/Users/oukeh/OneDrive/桌面/code-mod-example/code-mod-framework/lib/libnx_min/nx/lib\libnx_min.a(hid.o)
 .bss.g_keyboardOld
                0x0000000000052d28       0x20 C:/Users/oukeh/OneDrive/桌面/code-mod-example/code-mod-framework/lib/libnx_min/nx/lib\libnx_min.a(hid.o)
 .bss.g_keyboardTimestamp
                0x0000000000052d48        0x8 C:/Users/oukeh/OneDrive/桌面/code-mod-example/code-mod-framework/lib/libnx_min/nx/lib\libnx_min.a(hid.o)
 .bss.g_keyboardUp
                0x0000000000052d50       0x20 C:/Users/oukeh/OneDrive/桌面/code-mod-example/code-mod-framework/lib/libnx_min/nx/lib\libnx_min.a(hid.o)
 .bss.g_mouse   0x0000000000052d70      0x400 C:/Users/oukeh/OneDrive/桌面/code-mod-example/code-mod-framework/lib/libnx_min/nx/lib\libnx_min.a(hid.o)
 .bss.g_mouseDown
                0x0000000000053170        0x8 C:/Users/oukeh/OneDrive/桌面/code-mod-example/code-mod-framework/lib/libnx_min/nx/lib\libnx_min.a(hid.o)
 .bss.g_mouseEntry
                0x0000000000053178        0x8 C:/Users/oukeh/OneDrive/桌面/code-mod-example/code-mod-framework/lib/libnx_min/nx/lib\libnx_min.a(hid.o)
 .bss.g_mouseHeld
                0x0000000000053180        0x8 C:/Users/oukeh/OneDrive/桌面/code-mod-example/code-mod-framework/lib/libnx_min/nx/lib\libnx_min.a(hid.o)
 .bss.g_mouseOld
                0x0000000000053188        0x8 C:/Users/oukeh/OneDrive/桌面/code-mod-example/code-mod-framework/lib/libnx_min/nx/lib\libnx_min.a(hid.o)
 .bss.g_mouseTimestamp
                0x0000000000053190        0x8 C:/Users/oukeh/OneDrive/桌面/code-mod-example/code-mod-framework/lib/libnx_min/nx/lib\libnx_min.a(hid.o)
 .bss.g_mouseUp
                0x0000000000053198        0x8 C:/Users/oukeh/OneDrive/桌面/code-mod-example/code-mod-framework/lib/libnx_min/nx/lib\libnx_min.a(hid.o)
 .bss.g_refCnt  0x00000000000531a0        0x8 C:/Users/oukeh/OneDrive/桌面/code-mod-example/code-mod-framework/lib/libnx_min/nx/lib\libnx_min.a(hid.o)
 .bss.g_sevenSixAxisSensorBuffer
                0x00000000000531a8        0x8 C:/Users/oukeh/OneDrive/桌面/code-mod-example/code-mod-framework/lib/libnx_min/nx/lib\libnx_min.a(hid.o)
 .bss.g_sevenSixAxisSensorTmem0
                0x00000000000531b0       0x28 C:/Users/oukeh/OneDrive/桌面/code-mod-example/code-mod-framework/lib/libnx_min/nx/lib\libnx_min.a(hid.o)
 .bss.g_sevenSixAxisSensorTmem1
                0x00000000000531d8       0x28 C:/Users/oukeh/OneDrive/桌面/code-mod-example/code-mod-framework/lib/libnx_min/nx/lib\libnx_min.a(hid.o)
 .bss.g_sixaxisEnabled
                0x0000000000053200        0xa C:/Users/oukeh/OneDrive/桌面/code-mod-example/code-mod-framework/lib/libnx_min/nx/lib\libnx_min.a(hid.o)
 *fill*         0x000000000005320a        0x6 
 .bss.g_sixaxisLayouts
                0x0000000000053210     0x4650 C:/Users/oukeh/OneDrive/桌面/code-mod-example/code-mod-framework/lib/libnx_min/nx/lib\libnx_min.a(hid.o)
 .bss.g_touchEntry
                0x0000000000057860      0x298 C:/Users/oukeh/OneDrive/桌面/code-mod-example/code-mod-framework/lib/libnx_min/nx/lib\libnx_min.a(hid.o)
 .bss.g_touchTimestamp
                0x0000000000057af8        0x8 C:/Users/oukeh/OneDrive/桌面/code-mod-example/code-mod-framework/lib/libnx_min/nx/lib\libnx_min.a(hid.o)
 .bss.g_refCnt  0x0000000000057b00        0x8 C:/Users/oukeh/OneDrive/桌面/code-mod-example/code-mod-framework/lib/libnx_min/nx/lib\libnx_min.a(time.o)
 .bss.g_timeLocalSystemClock
                0x0000000000057b08        0xc C:/Users/oukeh/OneDrive/桌面/code-mod-example/code-mod-framework/lib/libnx_min/nx/lib\libnx_min.a(time.o)
 *fill*         0x0000000000057b14        0x4 
 .bss.g_timeNetworkSystemClock
                0x0000000000057b18        0xc C:/Users/oukeh/OneDrive/桌面/code-mod-example/code-mod-framework/lib/libnx_min/nx/lib\libnx_min.a(time.o)
 *fill*         0x0000000000057b24        0x4 
 .bss.g_timeSrv
                0x0000000000057b28        0xc C:/Users/oukeh/OneDrive/桌面/code-mod-example/code-mod-framework/lib/libnx_min/nx/lib\libnx_min.a(time.o)
 *fill*         0x0000000000057b34        0x4 
 .bss.g_timeTimeZoneService
                0x0000000000057b38        0xc C:/Users/oukeh/OneDrive/桌面/code-mod-example/code-mod-framework/lib/libnx_min/nx/lib\libnx_min.a(time.o)
 *fill*         0x0000000000057b44        0x4 
 .bss.g_timeUserSystemClock
                0x0000000000057b48        0xc C:/Users/oukeh/OneDrive/桌面/code-mod-example/code-mod-framework/lib/libnx_min/nx/lib\libnx_min.a(time.o)
 *fill*         0x0000000000057b54        0x4 
 .bss.__nx_applet_AppletAttribute
                0x0000000000057b58       0x80 C:/Users/oukeh/OneDrive/桌面/code-mod-example/code-mod-framework/lib/libnx_min/nx/lib\libnx_min.a(applet.o)
                0x0000000000057b58                __nx_applet_AppletAttribute
 .bss.__nx_applet_PerformanceConfiguration
                0x0000000000057bd8        0x8 C:/Users/oukeh/OneDrive/桌面/code-mod-example/code-mod-framework/lib/libnx_min/nx/lib\libnx_min.a(applet.o)
                0x0000000000057bd8                __nx_applet_PerformanceConfiguration
 .bss.__nx_applet_exit_mode
                0x0000000000057be0        0x4 C:/Users/oukeh/OneDrive/桌面/code-mod-example/code-mod-framework/lib/libnx_min/nx/lib\libnx_min.a(applet.o)
                0x0000000000057be0                __nx_applet_exit_mode
 .bss.g_appletCpuBoostMode
                0x0000000000057be4        0x4 C:/Users/oukeh/OneDrive/桌面/code-mod-example/code-mod-framework/lib/libnx_min/nx/lib\libnx_min.a(applet.o)
 .bss.g_appletExitProcessFlag
                0x0000000000057be8        0x1 C:/Users/oukeh/OneDrive/桌面/code-mod-example/code-mod-framework/lib/libnx_min/nx/lib\libnx_min.a(applet.o)
 *fill*         0x0000000000057be9        0x7 
 .bss.g_appletFirstHook
                0x0000000000057bf0       0x18 C:/Users/oukeh/OneDrive/桌面/code-mod-example/code-mod-framework/lib/libnx_min/nx/lib\libnx_min.a(applet.o)
 .bss.g_appletFocusState
                0x0000000000057c08        0x1 C:/Users/oukeh/OneDrive/桌面/code-mod-example/code-mod-framework/lib/libnx_min/nx/lib\libnx_min.a(applet.o)
 *fill*         0x0000000000057c09        0x7 
 .bss.g_appletIApplicationCreator
                0x0000000000057c10        0xc C:/Users/oukeh/OneDrive/桌面/code-mod-example/code-mod-framework/lib/libnx_min/nx/lib\libnx_min.a(applet.o)
 *fill*         0x0000000000057c1c        0x4 
 .bss.g_appletIAudioController
                0x0000000000057c20        0xc C:/Users/oukeh/OneDrive/桌面/code-mod-example/code-mod-framework/lib/libnx_min/nx/lib\libnx_min.a(applet.o)
 *fill*         0x0000000000057c2c        0x4 
 .bss.g_appletICommonStateGetter
                0x0000000000057c30        0xc C:/Users/oukeh/OneDrive/桌面/code-mod-example/code-mod-framework/lib/libnx_min/nx/lib\libnx_min.a(applet.o)
 *fill*         0x0000000000057c3c        0x4 
 .bss.g_appletIDebugFunctions
                0x0000000000057c40        0xc C:/Users/oukeh/OneDrive/桌面/code-mod-example/code-mod-framework/lib/libnx_min/nx/lib\libnx_min.a(applet.o)
 *fill*         0x0000000000057c4c        0x4 
 .bss.g_appletIDisplayController
                0x0000000000057c50        0xc C:/Users/oukeh/OneDrive/桌面/code-mod-example/code-mod-framework/lib/libnx_min/nx/lib\libnx_min.a(applet.o)
 *fill*         0x0000000000057c5c        0x4 
 .bss.g_appletIFunctions
                0x0000000000057c60        0xc C:/Users/oukeh/OneDrive/桌面/code-mod-example/code-mod-framework/lib/libnx_min/nx/lib\libnx_min.a(applet.o)
 *fill*         0x0000000000057c6c        0x4 
 .bss.g_appletIGlobalStateController
                0x0000000000057c70        0xc C:/Users/oukeh/OneDrive/桌面/code-mod-example/code-mod-framework/lib/libnx_min/nx/lib\libnx_min.a(applet.o)
 *fill*         0x0000000000057c7c        0x4 
 .bss.g_appletILibraryAppletCreator
                0x0000000000057c80        0xc C:/Users/oukeh/OneDrive/桌面/code-mod-example/code-mod-framework/lib/libnx_min/nx/lib\libnx_min.a(applet.o)
 *fill*         0x0000000000057c8c        0x4 
 .bss.g_appletILibraryAppletSelfAccessor
                0x0000000000057c90        0xc C:/Users/oukeh/OneDrive/桌面/code-mod-example/code-mod-framework/lib/libnx_min/nx/lib\libnx_min.a(applet.o)
 *fill*         0x0000000000057c9c        0x4 
 .bss.g_appletIProcessWindingController
                0x0000000000057ca0        0xc C:/Users/oukeh/OneDrive/桌面/code-mod-example/code-mod-framework/lib/libnx_min/nx/lib\libnx_min.a(applet.o)
 *fill*         0x0000000000057cac        0x4 
 .bss.g_appletISelfController
                0x0000000000057cb0        0xc C:/Users/oukeh/OneDrive/桌面/code-mod-example/code-mod-framework/lib/libnx_min/nx/lib\libnx_min.a(applet.o)
 *fill*         0x0000000000057cbc        0x4 
 .bss.g_appletIWindowController
                0x0000000000057cc0        0xc C:/Users/oukeh/OneDrive/桌面/code-mod-example/code-mod-framework/lib/libnx_min/nx/lib\libnx_min.a(applet.o)
 *fill*         0x0000000000057ccc        0x4 
 .bss.g_appletLibraryAppletLaunchableEvent
                0x0000000000057cd0        0xc C:/Users/oukeh/OneDrive/桌面/code-mod-example/code-mod-framework/lib/libnx_min/nx/lib\libnx_min.a(applet.o)
 *fill*         0x0000000000057cdc        0x4 
 .bss.g_appletMessageEvent
                0x0000000000057ce0        0xc C:/Users/oukeh/OneDrive/桌面/code-mod-example/code-mod-framework/lib/libnx_min/nx/lib\libnx_min.a(applet.o)
 .bss.g_appletNotifiedRunning
                0x0000000000057cec        0x1 C:/Users/oukeh/OneDrive/桌面/code-mod-example/code-mod-framework/lib/libnx_min/nx/lib\libnx_min.a(applet.o)
 .bss.g_appletOperationMode
                0x0000000000057ced        0x1 C:/Users/oukeh/OneDrive/桌面/code-mod-example/code-mod-framework/lib/libnx_min/nx/lib\libnx_min.a(applet.o)
 *fill*         0x0000000000057cee        0x2 
 .bss.g_appletPerformanceMode
                0x0000000000057cf0        0x4 C:/Users/oukeh/OneDrive/桌面/code-mod-example/code-mod-framework/lib/libnx_min/nx/lib\libnx_min.a(applet.o)
 *fill*         0x0000000000057cf4        0x4 
 .bss.g_appletProxySession
                0x0000000000057cf8        0xc C:/Users/oukeh/OneDrive/桌面/code-mod-example/code-mod-framework/lib/libnx_min/nx/lib\libnx_min.a(applet.o)
 .bss.g_appletRecordingInitialized
                0x0000000000057d04        0x4 C:/Users/oukeh/OneDrive/桌面/code-mod-example/code-mod-framework/lib/libnx_min/nx/lib\libnx_min.a(applet.o)
 .bss.g_appletRecordingTmem
                0x0000000000057d08       0x28 C:/Users/oukeh/OneDrive/桌面/code-mod-example/code-mod-framework/lib/libnx_min/nx/lib\libnx_min.a(applet.o)
 .bss.g_appletResourceUserId
                0x0000000000057d30        0x8 C:/Users/oukeh/OneDrive/桌面/code-mod-example/code-mod-framework/lib/libnx_min/nx/lib\libnx_min.a(applet.o)
 .bss.g_appletSrv
                0x0000000000057d38        0xc C:/Users/oukeh/OneDrive/桌面/code-mod-example/code-mod-framework/lib/libnx_min/nx/lib\libnx_min.a(applet.o)
 .bss.g_appletThemeColorType
                0x0000000000057d44        0x4 C:/Users/oukeh/OneDrive/桌面/code-mod-example/code-mod-framework/lib/libnx_min/nx/lib\libnx_min.a(applet.o)
 .bss.g_refCnt  0x0000000000057d48        0x8 C:/Users/oukeh/OneDrive/桌面/code-mod-example/code-mod-framework/lib/libnx_min/nx/lib\libnx_min.a(applet.o)
 .bss.__bootticks
                0x0000000000057d50        0x8 C:/Users/oukeh/OneDrive/桌面/code-mod-example/code-mod-framework/lib/libnx_min/nx/lib\libnx_min.a(newlib.o)
 .bss.__boottime
                0x0000000000057d58        0x8 C:/Users/oukeh/OneDrive/桌面/code-mod-example/code-mod-framework/lib/libnx_min/nx/lib\libnx_min.a(newlib.o)
 .bss.__nx_time_type
                0x0000000000057d60        0x4 C:/Users/oukeh/OneDrive/桌面/code-mod-example/code-mod-framework/lib/libnx_min/nx/lib\libnx_min.a(newlib.o)
                0x0000000000057d60                __nx_time_type
 *fill*         0x0000000000057d64        0x4 
 .bss.g_threadList
                0x0000000000057d68        0x8 C:/Users/oukeh/OneDrive/桌面/code-mod-example/code-mod-framework/lib/libnx_min/nx/lib\libnx_min.a(thread.o)
 .bss.g_threadMutex
                0x0000000000057d70        0x4 C:/Users/oukeh/OneDrive/桌面/code-mod-example/code-mod-framework/lib/libnx_min/nx/lib\libnx_min.a(thread.o)
 *fill*         0x0000000000057d74        0x4 
 .bss.g_tlsDestructors
                0x0000000000057d78       0xd0 C:/Users/oukeh/OneDrive/桌面/code-mod-example/code-mod-framework/lib/libnx_min/nx/lib\libnx_min.a(thread.o)
 .bss.g_tlsUsageMask
                0x0000000000057e48        0x8 C:/Users/oukeh/OneDrive/桌面/code-mod-example/code-mod-framework/lib/libnx_min/nx/lib\libnx_min.a(thread.o)
 .bss.g_JitKernelPatchCached
                0x0000000000057e50        0x1 C:/Users/oukeh/OneDrive/桌面/code-mod-example/code-mod-framework/lib/libnx_min/nx/lib\libnx_min.a(detect.o)
 .bss.g_JitKernelPatchDetected
                0x0000000000057e51        0x1 C:/Users/oukeh/OneDrive/桌面/code-mod-example/code-mod-framework/lib/libnx_min/nx/lib\libnx_min.a(detect.o)
 *fill*         0x0000000000057e52        0x2 
 .bss.g_JitKernelPatchMutex
                0x0000000000057e54        0x4 C:/Users/oukeh/OneDrive/桌面/code-mod-example/code-mod-framework/lib/libnx_min/nx/lib\libnx_min.a(detect.o)
 .bss.g_Version
                0x0000000000057e58        0x4 C:/Users/oukeh/OneDrive/桌面/code-mod-example/code-mod-framework/lib/libnx_min/nx/lib\libnx_min.a(detect.o)
 .bss.g_VersionCached
                0x0000000000057e5c        0x1 C:/Users/oukeh/OneDrive/桌面/code-mod-example/code-mod-framework/lib/libnx_min/nx/lib\libnx_min.a(detect.o)
 *fill*         0x0000000000057e5d        0x3 
 .bss.g_VersionMutex
                0x0000000000057e60        0x4 C:/Users/oukeh/OneDrive/桌面/code-mod-example/code-mod-framework/lib/libnx_min/nx/lib\libnx_min.a(detect.o)
 *fill*         0x0000000000057e64        0x4 
 .bss.g_apmISession
                0x0000000000057e68        0xc C:/Users/oukeh/OneDrive/桌面/code-mod-example/code-mod-framework/lib/libnx_min/nx/lib\libnx_min.a(apm.o)
 *fill*         0x0000000000057e74        0x4 
 .bss.g_apmSrv  0x0000000000057e78        0xc C:/Users/oukeh/OneDrive/桌面/code-mod-example/code-mod-framework/lib/libnx_min/nx/lib\libnx_min.a(apm.o)
 *fill*         0x0000000000057e84        0x4 
 .bss.g_refCnt  0x0000000000057e88        0x8 C:/Users/oukeh/OneDrive/桌面/code-mod-example/code-mod-framework/lib/libnx_min/nx/lib\libnx_min.a(apm.o)
 .bss.__malloc_current_mallinfo
                0x0000000000057e90       0x28 c:/devkitpro/devkita64/bin/../lib/gcc/aarch64-none-elf/9.2.0/../../../../aarch64-none-elf/lib/pic\libg.a(lib_a-mallocr.o)
                0x0000000000057e90                __malloc_current_mallinfo
 .bss.__malloc_max_sbrked_mem
                0x0000000000057eb8        0x8 c:/devkitpro/devkita64/bin/../lib/gcc/aarch64-none-elf/9.2.0/../../../../aarch64-none-elf/lib/pic\libg.a(lib_a-mallocr.o)
                0x0000000000057eb8                __malloc_max_sbrked_mem
 .bss.__malloc_max_total_mem
                0x0000000000057ec0        0x8 c:/devkitpro/devkita64/bin/../lib/gcc/aarch64-none-elf/9.2.0/../../../../aarch64-none-elf/lib/pic\libg.a(lib_a-mallocr.o)
                0x0000000000057ec0                __malloc_max_total_mem
 .bss.__malloc_top_pad
                0x0000000000057ec8        0x8 c:/devkitpro/devkita64/bin/../lib/gcc/aarch64-none-elf/9.2.0/../../../../aarch64-none-elf/lib/pic\libg.a(lib_a-mallocr.o)
                0x0000000000057ec8                __malloc_top_pad
 .bss.__malloc_recursive_mutex
                0x0000000000057ed0        0xc c:/devkitpro/devkita64/bin/../lib/gcc/aarch64-none-elf/9.2.0/../../../../aarch64-none-elf/lib/pic\libg.a(lib_a-mlock.o)
 .bss.alloced.4188
                0x0000000000057edc        0x4 c:/devkitpro/devkita64/bin/../lib/gcc/aarch64-none-elf/9.2.0/../../../../aarch64-none-elf/lib/pic\libg.a(lib_a-setenv_r.o)
 .bss.__atexit_recursive_mutex
                0x0000000000057ee0        0xc c:/devkitpro/devkita64/bin/../lib/gcc/aarch64-none-elf/9.2.0/../../../../aarch64-none-elf/lib/pic\libg.a(lib_a-__call_atexit.o)
                0x0000000000057ee0                __atexit_recursive_mutex
 *fill*         0x0000000000057eec        0x4 
 .bss.initial_env
                0x0000000000057ef0        0x8 c:/devkitpro/devkita64/bin/../lib/gcc/aarch64-none-elf/9.2.0/../../../../aarch64-none-elf/lib/pic\libg.a(lib_a-environ.o)
 .bss.__env_recursive_mutex
                0x0000000000057ef8        0xc c:/devkitpro/devkita64/bin/../lib/gcc/aarch64-none-elf/9.2.0/../../../../aarch64-none-elf/lib/pic\libg.a(lib_a-envlock.o)
 *fill*         0x0000000000057f04        0x4 
 .bss._PathLocale
                0x0000000000057f08        0x8 c:/devkitpro/devkita64/bin/../lib/gcc/aarch64-none-elf/9.2.0/../../../../aarch64-none-elf/lib/pic\libg.a(lib_a-locale.o)
                0x0000000000057f08                _PathLocale
 .bss.global_locale_string
                0x0000000000057f10       0xe7 c:/devkitpro/devkita64/bin/../lib/gcc/aarch64-none-elf/9.2.0/../../../../aarch64-none-elf/lib/pic\libg.a(lib_a-locale.o)
 *fill*         0x0000000000057ff7        0x1 
 .bss.new_categories.4670
                0x0000000000057ff8       0xe0 c:/devkitpro/devkita64/bin/../lib/gcc/aarch64-none-elf/9.2.0/../../../../aarch64-none-elf/lib/pic\libg.a(lib_a-locale.o)
 .bss.saved_categories.4671
                0x00000000000580d8       0xe0 c:/devkitpro/devkita64/bin/../lib/gcc/aarch64-none-elf/9.2.0/../../../../aarch64-none-elf/lib/pic\libg.a(lib_a-locale.o)
 .bss.heap_start.5367
                0x00000000000581b8        0x8 c:/devkitpro/devkita64/bin/../lib/gcc/aarch64-none-elf/9.2.0/../../../../aarch64-none-elf/lib/pic\libsysbase.a(sbrk.o)
 .bss.fake_heap_end
                0x00000000000581c0        0x8 c:/devkitpro/devkita64/bin/../lib/gcc/aarch64-none-elf/9.2.0/../../../../aarch64-none-elf/lib/pic\libsysbase.a(malloc_vars.o)
                0x00000000000581c0                fake_heap_end
 .bss.fake_heap_start
                0x00000000000581c8        0x8 c:/devkitpro/devkita64/bin/../lib/gcc/aarch64-none-elf/9.2.0/../../../../aarch64-none-elf/lib/pic\libsysbase.a(malloc_vars.o)
                0x00000000000581c8                fake_heap_start
 .bss.temp_cwd  0x00000000000581d0      0x400 c:/devkitpro/devkita64/bin/../lib/gcc/aarch64-none-elf/9.2.0/../../../../aarch64-none-elf/lib/pic\libsysbase.a(chdir.o)
 *(COMMON)
 COMMON         0x00000000000585d0        0xc C:/Users/oukeh/OneDrive/桌面/code-mod-example/code-mod-framework/lib/libnx_min/nx/lib\libnx_min.a(argv.o)
                0x00000000000585d0                __system_argv
                0x00000000000585d8                __system_argc
 *fill*         0x00000000000585dc        0x4 
 COMMON         0x00000000000585e0      0x348 C:/Users/oukeh/OneDrive/桌面/code-mod-example/code-mod-framework/lib/libnx_min/nx/lib\libnx_min.a(init.o)
                0x00000000000585e0                __nx_exceptiondump
                0x0000000000058920                __stack_top
                0x0000000000058928                . = ALIGN (0x8)
                0x0000000000058928                __tls_start = .
                0x000000000005cd30                . = (. + (SIZEOF (.tdata) + SIZEOF (.tbss)))
 *fill*         0x0000000000058928     0x4408 
                0x000000000005cd30                __tls_end = .
                0x000000000005cd30                __bss_end__ = .
                0x000000000005cd30                __end__ = ABSOLUTE (.)
                0x000000000005d000                . = ALIGN (0x1000)
                0x000000000005d000                __argdata__ = ABSOLUTE (.)

/DISCARD/
 *(.group .comment .note)

.stab
 *(.stab)

.stabstr
 *(.stabstr)

.stab.excl
 *(.stab.excl)

.stab.exclstr
 *(.stab.exclstr)

.stab.index
 *(.stab.index)

.stab.indexstr
 *(.stab.indexstr)

.debug
 *(.debug)

.line
 *(.line)

.debug_srcinfo
 *(.debug_srcinfo)

.debug_sfnames
 *(.debug_sfnames)

.debug_aranges
 *(.debug_aranges)

.debug_pubnames
 *(.debug_pubnames)

.debug_info
 *(.debug_info)

.debug_abbrev
 *(.debug_abbrev)

.debug_line
 *(.debug_line)

.debug_frame
 *(.debug_frame)

.debug_str
 *(.debug_str)

.debug_loc
 *(.debug_loc)

.debug_macinfo
 *(.debug_macinfo)
LOAD c:/devkitpro/devkita64/bin/../lib/gcc/aarch64-none-elf/9.2.0/pic/crti.o
LOAD c:/devkitpro/devkita64/bin/../lib/gcc/aarch64-none-elf/9.2.0/pic/crtbegin.o
LOAD main.o
LOAD acmd_wrapper.o
LOAD saltysd_helper.o
LOAD lua_bind_hash.o
LOAD l2c_imports.o
LOAD raygun_printer.o
LOAD C:/Users/oukeh/OneDrive/桌面/code-mod-example/code-mod-framework/lib/libnx_min/nx/lib\libnx_min.a
LOAD c:/devkitpro/devkita64/bin/../lib/gcc/aarch64-none-elf/9.2.0/../../../../aarch64-none-elf/lib/pic\libstdc++.a
LOAD c:/devkitpro/devkita64/bin/../lib/gcc/aarch64-none-elf/9.2.0/../../../../aarch64-none-elf/lib/pic\libm.a
START GROUP
LOAD c:/devkitpro/devkita64/bin/../lib/gcc/aarch64-none-elf/9.2.0/pic\libgcc.a
LOAD c:/devkitpro/devkita64/bin/../lib/gcc/aarch64-none-elf/9.2.0/../../../../aarch64-none-elf/lib/pic\libg.a
LOAD c:/devkitpro/devkita64/bin/../lib/gcc/aarch64-none-elf/9.2.0/../../../../aarch64-none-elf/lib/pic\libc.a
LOAD c:/devkitpro/devkita64/bin/../lib/gcc/aarch64-none-elf/9.2.0/../../../../aarch64-none-elf/lib/pic\libsysbase.a
END GROUP
LOAD c:/devkitpro/devkita64/bin/../lib/gcc/aarch64-none-elf/9.2.0/pic/crtend.o
LOAD c:/devkitpro/devkita64/bin/../lib/gcc/aarch64-none-elf/9.2.0/pic/crtn.o
OUTPUT(C:/Users/oukeh/OneDrive/桌面/code-mod-example/code-mod-example.elf elf64-littleaarch64)
