Archive member included to satisfy reference by file (symbol)

C:/Users/oukeh/OneDrive/桌面/code-mod-example/code-mod-framework/lib/libnx_min/nx/lib\libnx_min.a(switch_crt0.o)
                              (_start)
C:/Users/oukeh/OneDrive/桌面/code-mod-example/code-mod-framework/lib/libnx_min/nx/lib\libnx_min.a(exception.o)
                              C:/Users/oukeh/OneDrive/桌面/code-mod-example/code-mod-framework/lib/libnx_min/nx/lib\libnx_min.a(switch_crt0.o) (__libnx_exception_entry)
C:/Users/oukeh/OneDrive/桌面/code-mod-example/code-mod-framework/lib/libnx_min/nx/lib\libnx_min.a(argv.o)
                              C:/Users/oukeh/OneDrive/桌面/code-mod-example/code-mod-framework/lib/libnx_min/nx/lib\libnx_min.a(switch_crt0.o) (__system_argv)
C:/Users/oukeh/OneDrive/桌面/code-mod-example/code-mod-framework/lib/libnx_min/nx/lib\libnx_min.a(env.o)
                              C:/Users/oukeh/OneDrive/桌面/code-mod-example/code-mod-framework/lib/libnx_min/nx/lib\libnx_min.a(argv.o) (envIsNso)
C:/Users/oukeh/OneDrive/桌面/code-mod-example/code-mod-framework/lib/libnx_min/nx/lib\libnx_min.a(init.o)
                              C:/Users/oukeh/OneDrive/桌面/code-mod-example/code-mod-framework/lib/libnx_min/nx/lib\libnx_min.a(exception.o) (__nx_exceptiondump)
C:/Users/oukeh/OneDrive/桌面/code-mod-example/code-mod-framework/lib/libnx_min/nx/lib\libnx_min.a(hosversion.o)
                              C:/Users/oukeh/OneDrive/桌面/code-mod-example/code-mod-framework/lib/libnx_min/nx/lib\libnx_min.a(init.o) (hosversionSet)
C:/Users/oukeh/OneDrive/桌面/code-mod-example/code-mod-framework/lib/libnx_min/nx/lib\libnx_min.a(dynamic.o)
                              C:/Users/oukeh/OneDrive/桌面/code-mod-example/code-mod-framework/lib/libnx_min/nx/lib\libnx_min.a(switch_crt0.o) (__nx_dynamic)
C:/Users/oukeh/OneDrive/桌面/code-mod-example/code-mod-framework/lib/libnx_min/nx/lib\libnx_min.a(fs_dev.o)
                              C:/Users/oukeh/OneDrive/桌面/code-mod-example/code-mod-framework/lib/libnx_min/nx/lib\libnx_min.a(init.o) (fsdevMountSdmc)
C:/Users/oukeh/OneDrive/桌面/code-mod-example/code-mod-framework/lib/libnx_min/nx/lib\libnx_min.a(decode_utf8.o)
                              C:/Users/oukeh/OneDrive/桌面/code-mod-example/code-mod-framework/lib/libnx_min/nx/lib\libnx_min.a(fs_dev.o) (decode_utf8)
C:/Users/oukeh/OneDrive/桌面/code-mod-example/code-mod-framework/lib/libnx_min/nx/lib\libnx_min.a(svc.o)
                              C:/Users/oukeh/OneDrive/桌面/code-mod-example/code-mod-framework/lib/libnx_min/nx/lib\libnx_min.a(init.o) (svcSetHeapSize)
C:/Users/oukeh/OneDrive/桌面/code-mod-example/code-mod-framework/lib/libnx_min/nx/lib\libnx_min.a(readtp.o)
                              C:/Users/oukeh/OneDrive/桌面/code-mod-example/code-mod-framework/lib/libnx_min/nx/lib\libnx_min.a(fs_dev.o) (__aarch64_read_tp)
C:/Users/oukeh/OneDrive/桌面/code-mod-example/code-mod-framework/lib/libnx_min/nx/lib\libnx_min.a(virtmem.o)
                              C:/Users/oukeh/OneDrive/桌面/code-mod-example/code-mod-framework/lib/libnx_min/nx/lib\libnx_min.a(init.o) (virtmemSetup)
C:/Users/oukeh/OneDrive/桌面/code-mod-example/code-mod-framework/lib/libnx_min/nx/lib\libnx_min.a(mutex.o)
                              C:/Users/oukeh/OneDrive/桌面/code-mod-example/code-mod-framework/lib/libnx_min/nx/lib\libnx_min.a(virtmem.o) (mutexLock)
C:/Users/oukeh/OneDrive/桌面/code-mod-example/code-mod-framework/lib/libnx_min/nx/lib\libnx_min.a(fs.o)
                              C:/Users/oukeh/OneDrive/桌面/code-mod-example/code-mod-framework/lib/libnx_min/nx/lib\libnx_min.a(init.o) (fsInitialize)
C:/Users/oukeh/OneDrive/桌面/code-mod-example/code-mod-framework/lib/libnx_min/nx/lib\libnx_min.a(set.o)
                              C:/Users/oukeh/OneDrive/桌面/code-mod-example/code-mod-framework/lib/libnx_min/nx/lib\libnx_min.a(init.o) (setsysInitialize)
C:/Users/oukeh/OneDrive/桌面/code-mod-example/code-mod-framework/lib/libnx_min/nx/lib\libnx_min.a(fatal.o)
                              C:/Users/oukeh/OneDrive/桌面/code-mod-example/code-mod-framework/lib/libnx_min/nx/lib\libnx_min.a(env.o) (fatalSimple)
C:/Users/oukeh/OneDrive/桌面/code-mod-example/code-mod-framework/lib/libnx_min/nx/lib\libnx_min.a(sm.o)
                              C:/Users/oukeh/OneDrive/桌面/code-mod-example/code-mod-framework/lib/libnx_min/nx/lib\libnx_min.a(env.o) (smAddOverrideHandle)
C:/Users/oukeh/OneDrive/桌面/code-mod-example/code-mod-framework/lib/libnx_min/nx/lib\libnx_min.a(hid.o)
                              C:/Users/oukeh/OneDrive/桌面/code-mod-example/code-mod-framework/lib/libnx_min/nx/lib\libnx_min.a(init.o) (hidExit)
C:/Users/oukeh/OneDrive/桌面/code-mod-example/code-mod-framework/lib/libnx_min/nx/lib\libnx_min.a(time.o)
                              C:/Users/oukeh/OneDrive/桌面/code-mod-example/code-mod-framework/lib/libnx_min/nx/lib\libnx_min.a(init.o) (timeExit)
C:/Users/oukeh/OneDrive/桌面/code-mod-example/code-mod-framework/lib/libnx_min/nx/lib\libnx_min.a(applet.o)
                              C:/Users/oukeh/OneDrive/桌面/code-mod-example/code-mod-framework/lib/libnx_min/nx/lib\libnx_min.a(hid.o) (appletGetAppletResourceUserId)
C:/Users/oukeh/OneDrive/桌面/code-mod-example/code-mod-framework/lib/libnx_min/nx/lib\libnx_min.a(newlib.o)
                              C:/Users/oukeh/OneDrive/桌面/code-mod-example/code-mod-framework/lib/libnx_min/nx/lib\libnx_min.a(init.o) (__libnx_init_time)
C:/Users/oukeh/OneDrive/桌面/code-mod-example/code-mod-framework/lib/libnx_min/nx/lib\libnx_min.a(thread.o)
                              C:/Users/oukeh/OneDrive/桌面/code-mod-example/code-mod-framework/lib/libnx_min/nx/lib\libnx_min.a(newlib.o) (threadCreate)
C:/Users/oukeh/OneDrive/桌面/code-mod-example/code-mod-framework/lib/libnx_min/nx/lib\libnx_min.a(condvar.o)
                              C:/Users/oukeh/OneDrive/桌面/code-mod-example/code-mod-framework/lib/libnx_min/nx/lib\libnx_min.a(newlib.o) (condvarWaitTimeout)
C:/Users/oukeh/OneDrive/桌面/code-mod-example/code-mod-framework/lib/libnx_min/nx/lib\libnx_min.a(event.o)
                              C:/Users/oukeh/OneDrive/桌面/code-mod-example/code-mod-framework/lib/libnx_min/nx/lib\libnx_min.a(set.o) (eventLoadRemote)
C:/Users/oukeh/OneDrive/桌面/code-mod-example/code-mod-framework/lib/libnx_min/nx/lib\libnx_min.a(tmem.o)
                              C:/Users/oukeh/OneDrive/桌面/code-mod-example/code-mod-framework/lib/libnx_min/nx/lib\libnx_min.a(applet.o) (tmemCreate)
C:/Users/oukeh/OneDrive/桌面/code-mod-example/code-mod-framework/lib/libnx_min/nx/lib\libnx_min.a(rwlock.o)
                              C:/Users/oukeh/OneDrive/桌面/code-mod-example/code-mod-framework/lib/libnx_min/nx/lib\libnx_min.a(hid.o) (rwlockReadLock)
C:/Users/oukeh/OneDrive/桌面/code-mod-example/code-mod-framework/lib/libnx_min/nx/lib\libnx_min.a(wait.o)
                              C:/Users/oukeh/OneDrive/桌面/code-mod-example/code-mod-framework/lib/libnx_min/nx/lib\libnx_min.a(applet.o) (waitObjects)
C:/Users/oukeh/OneDrive/桌面/code-mod-example/code-mod-framework/lib/libnx_min/nx/lib\libnx_min.a(shmem.o)
                              C:/Users/oukeh/OneDrive/桌面/code-mod-example/code-mod-framework/lib/libnx_min/nx/lib\libnx_min.a(hid.o) (shmemLoadRemote)
C:/Users/oukeh/OneDrive/桌面/code-mod-example/code-mod-framework/lib/libnx_min/nx/lib\libnx_min.a(detect.o)
                              C:/Users/oukeh/OneDrive/桌面/code-mod-example/code-mod-framework/lib/libnx_min/nx/lib\libnx_min.a(fatal.o) (detectKernelVersion)
C:/Users/oukeh/OneDrive/桌面/code-mod-example/code-mod-framework/lib/libnx_min/nx/lib\libnx_min.a(apm.o)
                              C:/Users/oukeh/OneDrive/桌面/code-mod-example/code-mod-framework/lib/libnx_min/nx/lib\libnx_min.a(applet.o) (apmExit)
c:/devkitpro/devkita64/bin/../lib/gcc/aarch64-none-elf/9.2.0/../../../../aarch64-none-elf/lib/pic\libg.a(lib_a-bsearch.o)
                              C:/Users/oukeh/OneDrive/桌面/code-mod-example/code-mod-framework/lib/libnx_min/nx/lib\libnx_min.a(fs_dev.o) (bsearch)
c:/devkitpro/devkita64/bin/../lib/gcc/aarch64-none-elf/9.2.0/../../../../aarch64-none-elf/lib/pic\libg.a(lib_a-ctype_.o)
                              C:/Users/oukeh/OneDrive/桌面/code-mod-example/code-mod-framework/lib/libnx_min/nx/lib\libnx_min.a(argv.o) (_ctype_)
c:/devkitpro/devkita64/bin/../lib/gcc/aarch64-none-elf/9.2.0/../../../../aarch64-none-elf/lib/pic\libg.a(lib_a-errno.o)
                              C:/Users/oukeh/OneDrive/桌面/code-mod-example/code-mod-framework/lib/libnx_min/nx/lib\libnx_min.a(fs_dev.o) (__errno)
c:/devkitpro/devkita64/bin/../lib/gcc/aarch64-none-elf/9.2.0/../../../../aarch64-none-elf/lib/pic\libg.a(lib_a-exit.o)
                              C:/Users/oukeh/OneDrive/桌面/code-mod-example/code-mod-framework/lib/libnx_min/nx/lib\libnx_min.a(switch_crt0.o) (exit)
c:/devkitpro/devkita64/bin/../lib/gcc/aarch64-none-elf/9.2.0/../../../../aarch64-none-elf/lib/pic\libg.a(lib_a-fini.o)
                              main.o (__libc_fini_array)
c:/devkitpro/devkita64/bin/../lib/gcc/aarch64-none-elf/9.2.0/../../../../aarch64-none-elf/lib/pic\libg.a(lib_a-impure.o)
                              c:/devkitpro/devkita64/bin/../lib/gcc/aarch64-none-elf/9.2.0/../../../../aarch64-none-elf/lib/pic\libg.a(lib_a-exit.o) (_global_impure_ptr)
c:/devkitpro/devkita64/bin/../lib/gcc/aarch64-none-elf/9.2.0/../../../../aarch64-none-elf/lib/pic\libg.a(lib_a-init.o)
                              main.o (__libc_init_array)
c:/devkitpro/devkita64/bin/../lib/gcc/aarch64-none-elf/9.2.0/../../../../aarch64-none-elf/lib/pic\libg.a(lib_a-malign.o)
                              C:/Users/oukeh/OneDrive/桌面/code-mod-example/code-mod-framework/lib/libnx_min/nx/lib\libnx_min.a(hid.o) (memalign)
c:/devkitpro/devkita64/bin/../lib/gcc/aarch64-none-elf/9.2.0/../../../../aarch64-none-elf/lib/pic\libg.a(lib_a-malignr.o)
                              c:/devkitpro/devkita64/bin/../lib/gcc/aarch64-none-elf/9.2.0/../../../../aarch64-none-elf/lib/pic\libg.a(lib_a-malign.o) (_memalign_r)
c:/devkitpro/devkita64/bin/../lib/gcc/aarch64-none-elf/9.2.0/../../../../aarch64-none-elf/lib/pic\libg.a(lib_a-malloc.o)
                              C:/Users/oukeh/OneDrive/桌面/code-mod-example/code-mod-framework/lib/libnx_min/nx/lib\libnx_min.a(newlib.o) (malloc)
c:/devkitpro/devkita64/bin/../lib/gcc/aarch64-none-elf/9.2.0/../../../../aarch64-none-elf/lib/pic\libg.a(lib_a-mallocr.o)
                              c:/devkitpro/devkita64/bin/../lib/gcc/aarch64-none-elf/9.2.0/../../../../aarch64-none-elf/lib/pic\libg.a(lib_a-malignr.o) (_malloc_r)
c:/devkitpro/devkita64/bin/../lib/gcc/aarch64-none-elf/9.2.0/../../../../aarch64-none-elf/lib/pic\libg.a(lib_a-memcpy.o)
                              C:/Users/oukeh/OneDrive/桌面/code-mod-example/code-mod-framework/lib/libnx_min/nx/lib\libnx_min.a(fs_dev.o) (memcpy)
c:/devkitpro/devkita64/bin/../lib/gcc/aarch64-none-elf/9.2.0/../../../../aarch64-none-elf/lib/pic\libg.a(lib_a-memset.o)
                              C:/Users/oukeh/OneDrive/桌面/code-mod-example/code-mod-framework/lib/libnx_min/nx/lib\libnx_min.a(argv.o) (memset)
c:/devkitpro/devkita64/bin/../lib/gcc/aarch64-none-elf/9.2.0/../../../../aarch64-none-elf/lib/pic\libg.a(lib_a-mlock.o)
                              c:/devkitpro/devkita64/bin/../lib/gcc/aarch64-none-elf/9.2.0/../../../../aarch64-none-elf/lib/pic\libg.a(lib_a-malignr.o) (__malloc_lock)
c:/devkitpro/devkita64/bin/../lib/gcc/aarch64-none-elf/9.2.0/../../../../aarch64-none-elf/lib/pic\libg.a(lib_a-setenv.o)
                              C:/Users/oukeh/OneDrive/桌面/code-mod-example/code-mod-framework/lib/libnx_min/nx/lib\libnx_min.a(newlib.o) (setenv)
c:/devkitpro/devkita64/bin/../lib/gcc/aarch64-none-elf/9.2.0/../../../../aarch64-none-elf/lib/pic\libg.a(lib_a-setenv_r.o)
                              c:/devkitpro/devkita64/bin/../lib/gcc/aarch64-none-elf/9.2.0/../../../../aarch64-none-elf/lib/pic\libg.a(lib_a-setenv.o) (_setenv_r)
c:/devkitpro/devkita64/bin/../lib/gcc/aarch64-none-elf/9.2.0/../../../../aarch64-none-elf/lib/pic\libg.a(lib_a-strchr.o)
                              raygun_printer.o (strchr)
c:/devkitpro/devkita64/bin/../lib/gcc/aarch64-none-elf/9.2.0/../../../../aarch64-none-elf/lib/pic\libg.a(lib_a-strcpy.o)
                              C:/Users/oukeh/OneDrive/桌面/code-mod-example/code-mod-framework/lib/libnx_min/nx/lib\libnx_min.a(env.o) (strcpy)
c:/devkitpro/devkita64/bin/../lib/gcc/aarch64-none-elf/9.2.0/../../../../aarch64-none-elf/lib/pic\libg.a(lib_a-strlen.o)
                              acmd_wrapper.o (strlen)
c:/devkitpro/devkita64/bin/../lib/gcc/aarch64-none-elf/9.2.0/../../../../aarch64-none-elf/lib/pic\libg.a(lib_a-strncat.o)
                              C:/Users/oukeh/OneDrive/桌面/code-mod-example/code-mod-framework/lib/libnx_min/nx/lib\libnx_min.a(fs_dev.o) (strncat)
c:/devkitpro/devkita64/bin/../lib/gcc/aarch64-none-elf/9.2.0/../../../../aarch64-none-elf/lib/pic\libg.a(lib_a-strncmp.o)
                              saltysd_helper.o (strncmp)
c:/devkitpro/devkita64/bin/../lib/gcc/aarch64-none-elf/9.2.0/../../../../aarch64-none-elf/lib/pic\libg.a(lib_a-strncpy.o)
                              C:/Users/oukeh/OneDrive/桌面/code-mod-example/code-mod-framework/lib/libnx_min/nx/lib\libnx_min.a(argv.o) (strncpy)
c:/devkitpro/devkita64/bin/../lib/gcc/aarch64-none-elf/9.2.0/../../../../aarch64-none-elf/lib/pic\libg.a(lib_a-strnlen.o)
                              C:/Users/oukeh/OneDrive/桌面/code-mod-example/code-mod-framework/lib/libnx_min/nx/lib\libnx_min.a(fs_dev.o) (strnlen)
c:/devkitpro/devkita64/bin/../lib/gcc/aarch64-none-elf/9.2.0/../../../../aarch64-none-elf/lib/pic\libg.a(lib_a-toupper.o)
                              raygun_printer.o (toupper)
c:/devkitpro/devkita64/bin/../lib/gcc/aarch64-none-elf/9.2.0/../../../../aarch64-none-elf/lib/pic\libg.a(lib_a-vsnprintf.o)
                              raygun_printer.o (vsnprintf)
c:/devkitpro/devkita64/bin/../lib/gcc/aarch64-none-elf/9.2.0/../../../../aarch64-none-elf/lib/pic\libg.a(lib_a-__call_atexit.o)
                              c:/devkitpro/devkita64/bin/../lib/gcc/aarch64-none-elf/9.2.0/../../../../aarch64-none-elf/lib/pic\libg.a(lib_a-exit.o) (__call_exitprocs)
c:/devkitpro/devkita64/bin/../lib/gcc/aarch64-none-elf/9.2.0/../../../../aarch64-none-elf/lib/pic\libg.a(lib_a-environ.o)
                              c:/devkitpro/devkita64/bin/../lib/gcc/aarch64-none-elf/9.2.0/../../../../aarch64-none-elf/lib/pic\libg.a(lib_a-setenv_r.o) (environ)
c:/devkitpro/devkita64/bin/../lib/gcc/aarch64-none-elf/9.2.0/../../../../aarch64-none-elf/lib/pic\libg.a(lib_a-envlock.o)
                              c:/devkitpro/devkita64/bin/../lib/gcc/aarch64-none-elf/9.2.0/../../../../aarch64-none-elf/lib/pic\libg.a(lib_a-setenv_r.o) (__env_lock)
c:/devkitpro/devkita64/bin/../lib/gcc/aarch64-none-elf/9.2.0/../../../../aarch64-none-elf/lib/pic\libg.a(lib_a-freer.o)
                              c:/devkitpro/devkita64/bin/../lib/gcc/aarch64-none-elf/9.2.0/../../../../aarch64-none-elf/lib/pic\libg.a(lib_a-malignr.o) (_free_r)
c:/devkitpro/devkita64/bin/../lib/gcc/aarch64-none-elf/9.2.0/../../../../aarch64-none-elf/lib/pic\libg.a(lib_a-getenv_r.o)
                              c:/devkitpro/devkita64/bin/../lib/gcc/aarch64-none-elf/9.2.0/../../../../aarch64-none-elf/lib/pic\libg.a(lib_a-setenv_r.o) (_findenv_r)
c:/devkitpro/devkita64/bin/../lib/gcc/aarch64-none-elf/9.2.0/../../../../aarch64-none-elf/lib/pic\libg.a(lib_a-reallocr.o)
                              c:/devkitpro/devkita64/bin/../lib/gcc/aarch64-none-elf/9.2.0/../../../../aarch64-none-elf/lib/pic\libg.a(lib_a-setenv_r.o) (_realloc_r)
c:/devkitpro/devkita64/bin/../lib/gcc/aarch64-none-elf/9.2.0/../../../../aarch64-none-elf/lib/pic\libg.a(lib_a-svfprintf.o)
                              c:/devkitpro/devkita64/bin/../lib/gcc/aarch64-none-elf/9.2.0/../../../../aarch64-none-elf/lib/pic\libg.a(lib_a-vsnprintf.o) (_svfprintf_r)
c:/devkitpro/devkita64/bin/../lib/gcc/aarch64-none-elf/9.2.0/../../../../aarch64-none-elf/lib/pic\libg.a(lib_a-wcrtomb.o)
                              c:/devkitpro/devkita64/bin/../lib/gcc/aarch64-none-elf/9.2.0/../../../../aarch64-none-elf/lib/pic\libg.a(lib_a-svfprintf.o) (_wcrtomb_r)
c:/devkitpro/devkita64/bin/../lib/gcc/aarch64-none-elf/9.2.0/../../../../aarch64-none-elf/lib/pic\libg.a(lib_a-wcsrtombs.o)
                              c:/devkitpro/devkita64/bin/../lib/gcc/aarch64-none-elf/9.2.0/../../../../aarch64-none-elf/lib/pic\libg.a(lib_a-svfprintf.o) (_wcsrtombs_r)
c:/devkitpro/devkita64/bin/../lib/gcc/aarch64-none-elf/9.2.0/../../../../aarch64-none-elf/lib/pic\libg.a(lib_a-dtoa.o)
                              c:/devkitpro/devkita64/bin/../lib/gcc/aarch64-none-elf/9.2.0/../../../../aarch64-none-elf/lib/pic\libg.a(lib_a-svfprintf.o) (_dtoa_r)
c:/devkitpro/devkita64/bin/../lib/gcc/aarch64-none-elf/9.2.0/../../../../aarch64-none-elf/lib/pic\libg.a(lib_a-localeconv.o)
                              c:/devkitpro/devkita64/bin/../lib/gcc/aarch64-none-elf/9.2.0/../../../../aarch64-none-elf/lib/pic\libg.a(lib_a-svfprintf.o) (_localeconv_r)
c:/devkitpro/devkita64/bin/../lib/gcc/aarch64-none-elf/9.2.0/../../../../aarch64-none-elf/lib/pic\libg.a(lib_a-locale.o)
                              c:/devkitpro/devkita64/bin/../lib/gcc/aarch64-none-elf/9.2.0/../../../../aarch64-none-elf/lib/pic\libg.a(lib_a-svfprintf.o) (__global_locale)
c:/devkitpro/devkita64/bin/../lib/gcc/aarch64-none-elf/9.2.0/../../../../aarch64-none-elf/lib/pic\libg.a(lib_a-mbtowc_r.o)
                              c:/devkitpro/devkita64/bin/../lib/gcc/aarch64-none-elf/9.2.0/../../../../aarch64-none-elf/lib/pic\libg.a(lib_a-locale.o) (__ascii_mbtowc)
c:/devkitpro/devkita64/bin/../lib/gcc/aarch64-none-elf/9.2.0/../../../../aarch64-none-elf/lib/pic\libg.a(lib_a-memchr.o)
                              c:/devkitpro/devkita64/bin/../lib/gcc/aarch64-none-elf/9.2.0/../../../../aarch64-none-elf/lib/pic\libg.a(lib_a-svfprintf.o) (memchr)
c:/devkitpro/devkita64/bin/../lib/gcc/aarch64-none-elf/9.2.0/../../../../aarch64-none-elf/lib/pic\libg.a(lib_a-memmove.o)
                              c:/devkitpro/devkita64/bin/../lib/gcc/aarch64-none-elf/9.2.0/../../../../aarch64-none-elf/lib/pic\libg.a(lib_a-reallocr.o) (memmove)
c:/devkitpro/devkita64/bin/../lib/gcc/aarch64-none-elf/9.2.0/../../../../aarch64-none-elf/lib/pic\libg.a(lib_a-mprec.o)
                              c:/devkitpro/devkita64/bin/../lib/gcc/aarch64-none-elf/9.2.0/../../../../aarch64-none-elf/lib/pic\libg.a(lib_a-dtoa.o) (_Balloc)
c:/devkitpro/devkita64/bin/../lib/gcc/aarch64-none-elf/9.2.0/../../../../aarch64-none-elf/lib/pic\libg.a(lib_a-s_frexp.o)
                              c:/devkitpro/devkita64/bin/../lib/gcc/aarch64-none-elf/9.2.0/../../../../aarch64-none-elf/lib/pic\libg.a(lib_a-svfprintf.o) (frexp)
c:/devkitpro/devkita64/bin/../lib/gcc/aarch64-none-elf/9.2.0/../../../../aarch64-none-elf/lib/pic\libg.a(lib_a-strcasecmp.o)
                              c:/devkitpro/devkita64/bin/../lib/gcc/aarch64-none-elf/9.2.0/../../../../aarch64-none-elf/lib/pic\libg.a(lib_a-locale.o) (strcasecmp)
c:/devkitpro/devkita64/bin/../lib/gcc/aarch64-none-elf/9.2.0/../../../../aarch64-none-elf/lib/pic\libg.a(lib_a-strcat.o)
                              c:/devkitpro/devkita64/bin/../lib/gcc/aarch64-none-elf/9.2.0/../../../../aarch64-none-elf/lib/pic\libg.a(lib_a-locale.o) (strcat)
c:/devkitpro/devkita64/bin/../lib/gcc/aarch64-none-elf/9.2.0/../../../../aarch64-none-elf/lib/pic\libg.a(lib_a-strcmp.o)
                              c:/devkitpro/devkita64/bin/../lib/gcc/aarch64-none-elf/9.2.0/../../../../aarch64-none-elf/lib/pic\libg.a(lib_a-locale.o) (strcmp)
c:/devkitpro/devkita64/bin/../lib/gcc/aarch64-none-elf/9.2.0/../../../../aarch64-none-elf/lib/pic\libg.a(lib_a-strlcpy.o)
                              c:/devkitpro/devkita64/bin/../lib/gcc/aarch64-none-elf/9.2.0/../../../../aarch64-none-elf/lib/pic\libg.a(lib_a-locale.o) (strlcpy)
c:/devkitpro/devkita64/bin/../lib/gcc/aarch64-none-elf/9.2.0/../../../../aarch64-none-elf/lib/pic\libg.a(lib_a-strncasecmp.o)
                              c:/devkitpro/devkita64/bin/../lib/gcc/aarch64-none-elf/9.2.0/../../../../aarch64-none-elf/lib/pic\libg.a(lib_a-locale.o) (strncasecmp)
c:/devkitpro/devkita64/bin/../lib/gcc/aarch64-none-elf/9.2.0/../../../../aarch64-none-elf/lib/pic\libg.a(lib_a-strtol.o)
                              c:/devkitpro/devkita64/bin/../lib/gcc/aarch64-none-elf/9.2.0/../../../../aarch64-none-elf/lib/pic\libg.a(lib_a-locale.o) (strtol)
c:/devkitpro/devkita64/bin/../lib/gcc/aarch64-none-elf/9.2.0/../../../../aarch64-none-elf/lib/pic\libg.a(lib_a-svfiprintf.o)
                              c:/devkitpro/devkita64/bin/../lib/gcc/aarch64-none-elf/9.2.0/../../../../aarch64-none-elf/lib/pic\libg.a(lib_a-svfprintf.o) (__state_table)
c:/devkitpro/devkita64/bin/../lib/gcc/aarch64-none-elf/9.2.0/../../../../aarch64-none-elf/lib/pic\libg.a(lib_a-wcsnrtombs.o)
                              c:/devkitpro/devkita64/bin/../lib/gcc/aarch64-none-elf/9.2.0/../../../../aarch64-none-elf/lib/pic\libg.a(lib_a-wcsrtombs.o) (_wcsnrtombs_r)
c:/devkitpro/devkita64/bin/../lib/gcc/aarch64-none-elf/9.2.0/../../../../aarch64-none-elf/lib/pic\libg.a(lib_a-wctomb_r.o)
                              c:/devkitpro/devkita64/bin/../lib/gcc/aarch64-none-elf/9.2.0/../../../../aarch64-none-elf/lib/pic\libg.a(lib_a-locale.o) (__ascii_wctomb)
c:/devkitpro/devkita64/bin/../lib/gcc/aarch64-none-elf/9.2.0/../../../../aarch64-none-elf/lib/pic\libg.a(lib_a-callocr.o)
                              c:/devkitpro/devkita64/bin/../lib/gcc/aarch64-none-elf/9.2.0/../../../../aarch64-none-elf/lib/pic\libg.a(lib_a-mprec.o) (_calloc_r)
c:/devkitpro/devkita64/bin/../lib/gcc/aarch64-none-elf/9.2.0/../../../../aarch64-none-elf/lib/pic\libsysbase.a(iosupport.o)
                              C:/Users/oukeh/OneDrive/桌面/code-mod-example/code-mod-framework/lib/libnx_min/nx/lib\libnx_min.a(fs_dev.o) (setDefaultDevice)
c:/devkitpro/devkita64/bin/../lib/gcc/aarch64-none-elf/9.2.0/../../../../aarch64-none-elf/lib/pic\libsysbase.a(sbrk.o)
                              c:/devkitpro/devkita64/bin/../lib/gcc/aarch64-none-elf/9.2.0/../../../../aarch64-none-elf/lib/pic\libg.a(lib_a-mallocr.o) (_sbrk_r)
c:/devkitpro/devkita64/bin/../lib/gcc/aarch64-none-elf/9.2.0/../../../../aarch64-none-elf/lib/pic\libsysbase.a(_exit.o)
                              c:/devkitpro/devkita64/bin/../lib/gcc/aarch64-none-elf/9.2.0/../../../../aarch64-none-elf/lib/pic\libg.a(lib_a-exit.o) (_exit)
c:/devkitpro/devkita64/bin/../lib/gcc/aarch64-none-elf/9.2.0/../../../../aarch64-none-elf/lib/pic\libsysbase.a(malloc_vars.o)
                              main.o (fake_heap_start)
c:/devkitpro/devkita64/bin/../lib/gcc/aarch64-none-elf/9.2.0/../../../../aarch64-none-elf/lib/pic\libsysbase.a(chdir.o)
                              C:/Users/oukeh/OneDrive/桌面/code-mod-example/code-mod-framework/lib/libnx_min/nx/lib\libnx_min.a(fs_dev.o) (chdir)
c:/devkitpro/devkita64/bin/../lib/gcc/aarch64-none-elf/9.2.0/../../../../aarch64-none-elf/lib/pic\libsysbase.a(locks.o)
                              C:/Users/oukeh/OneDrive/桌面/code-mod-example/code-mod-framework/lib/libnx_min/nx/lib\libnx_min.a(newlib.o) (timespec2nsec)
c:/devkitpro/devkita64/bin/../lib/gcc/aarch64-none-elf/9.2.0/../../../../aarch64-none-elf/lib/pic\libsysbase.a(getreent.o)
                              C:/Users/oukeh/OneDrive/桌面/code-mod-example/code-mod-framework/lib/libnx_min/nx/lib\libnx_min.a(fs_dev.o) (__getreent)
c:/devkitpro/devkita64/bin/../lib/gcc/aarch64-none-elf/9.2.0/../../../../aarch64-none-elf/lib/pic\libsysbase.a(clocks.o)
                              c:/devkitpro/devkita64/bin/../lib/gcc/aarch64-none-elf/9.2.0/../../../../aarch64-none-elf/lib/pic\libsysbase.a(locks.o) (clock_gettime)
c:/devkitpro/devkita64/bin/../lib/gcc/aarch64-none-elf/9.2.0/pic\libgcc.a(trunctfdf2.o)
                              c:/devkitpro/devkita64/bin/../lib/gcc/aarch64-none-elf/9.2.0/../../../../aarch64-none-elf/lib/pic\libg.a(lib_a-svfprintf.o) (__trunctfdf2)
c:/devkitpro/devkita64/bin/../lib/gcc/aarch64-none-elf/9.2.0/pic\libgcc.a(sfp-exceptions.o)
                              c:/devkitpro/devkita64/bin/../lib/gcc/aarch64-none-elf/9.2.0/pic\libgcc.a(trunctfdf2.o) (__sfp_handle_exceptions)
c:/devkitpro/devkita64/bin/../lib/gcc/aarch64-none-elf/9.2.0/../../../../aarch64-none-elf/lib/pic\libg.a(lib_a-strrchr.o)
                              c:/devkitpro/devkita64/bin/../lib/gcc/aarch64-none-elf/9.2.0/../../../../aarch64-none-elf/lib/pic\libsysbase.a(chdir.o) (strrchr)

Allocating common symbols
Common symbol       size              file

__nx_exceptiondump  0x340             C:/Users/oukeh/OneDrive/桌面/code-mod-example/code-mod-framework/lib/libnx_min/nx/lib\libnx_min.a(init.o)
__system_argv       0x8               C:/Users/oukeh/OneDrive/桌面/code-mod-example/code-mod-framework/lib/libnx_min/nx/lib\libnx_min.a(argv.o)
__system_argc       0x4               C:/Users/oukeh/OneDrive/桌面/code-mod-example/code-mod-framework/lib/libnx_min/nx/lib\libnx_min.a(argv.o)
__stack_top         0x8               C:/Users/oukeh/OneDrive/桌面/code-mod-example/code-mod-framework/lib/libnx_min/nx/lib\libnx_min.a(init.o)

Discarded input sections

 .text          0x0000000000000000        0x0 c:/devkitpro/devkita64/bin/../lib/gcc/aarch64-none-elf/9.2.0/pic/crti.o
 .data          0x0000000000000000        0x0 c:/devkitpro/devkita64/bin/../lib/gcc/aarch64-none-elf/9.2.0/pic/crti.o
 .bss           0x0000000000000000        0x0 c:/devkitpro/devkita64/bin/../lib/gcc/aarch64-none-elf/9.2.0/pic/crti.o
 .text          0x0000000000000000        0x0 c:/devkitpro/devkita64/bin/../lib/gcc/aarch64-none-elf/9.2.0/pic/crtbegin.o
 .data          0x0000000000000000        0x0 c:/devkitpro/devkita64/bin/../lib/gcc/aarch64-none-elf/9.2.0/pic/crtbegin.o
 .bss           0x0000000000000000        0x0 c:/devkitpro/devkita64/bin/../lib/gcc/aarch64-none-elf/9.2.0/pic/crtbegin.o
 .data.__dso_handle
                0x0000000000000000        0x8 c:/devkitpro/devkita64/bin/../lib/gcc/aarch64-none-elf/9.2.0/pic/crtbegin.o
 .comment       0x0000000000000000       0x23 c:/devkitpro/devkita64/bin/../lib/gcc/aarch64-none-elf/9.2.0/pic/crtbegin.o
 .comment       0x0000000000000000       0x23 main.o
 .data          0x0000000000000000        0x0 acmd_wrapper.o
 .bss           0x0000000000000000        0x0 acmd_wrapper.o
 .comment       0x0000000000000000       0x23 acmd_wrapper.o
 .data          0x0000000000000000        0x0 saltysd_helper.o
 .comment       0x0000000000000000       0x23 saltysd_helper.o
 .data          0x0000000000000000        0x0 lua_bind_hash.o
 .bss           0x0000000000000000        0x0 lua_bind_hash.o
 .comment       0x0000000000000000       0x23 lua_bind_hash.o
 .data          0x0000000000000000        0x0 l2c_imports.o
 .bss           0x0000000000000000        0x0 l2c_imports.o
 .comment       0x0000000000000000       0x23 l2c_imports.o
 .data          0x0000000000000000        0x0 raygun_printer.o
 .bss           0x0000000000000000        0x0 raygun_printer.o
 .comment       0x0000000000000000       0x23 raygun_printer.o
 .text          0x0000000000000000        0x0 C:/Users/oukeh/OneDrive/桌面/code-mod-example/code-mod-framework/lib/libnx_min/nx/lib\libnx_min.a(switch_crt0.o)
 .data          0x0000000000000000        0x0 C:/Users/oukeh/OneDrive/桌面/code-mod-example/code-mod-framework/lib/libnx_min/nx/lib\libnx_min.a(switch_crt0.o)
 .bss           0x0000000000000000        0x0 C:/Users/oukeh/OneDrive/桌面/code-mod-example/code-mod-framework/lib/libnx_min/nx/lib\libnx_min.a(switch_crt0.o)
 .debug_line    0x0000000000000000       0xc3 C:/Users/oukeh/OneDrive/桌面/code-mod-example/code-mod-framework/lib/libnx_min/nx/lib\libnx_min.a(switch_crt0.o)
 .debug_info    0x0000000000000000       0x2e C:/Users/oukeh/OneDrive/桌面/code-mod-example/code-mod-framework/lib/libnx_min/nx/lib\libnx_min.a(switch_crt0.o)
 .debug_abbrev  0x0000000000000000       0x14 C:/Users/oukeh/OneDrive/桌面/code-mod-example/code-mod-framework/lib/libnx_min/nx/lib\libnx_min.a(switch_crt0.o)
 .debug_aranges
                0x0000000000000000       0x30 C:/Users/oukeh/OneDrive/桌面/code-mod-example/code-mod-framework/lib/libnx_min/nx/lib\libnx_min.a(switch_crt0.o)
 .debug_str     0x0000000000000000       0xc1 C:/Users/oukeh/OneDrive/桌面/code-mod-example/code-mod-framework/lib/libnx_min/nx/lib\libnx_min.a(switch_crt0.o)
 .text          0x0000000000000000        0x0 C:/Users/oukeh/OneDrive/桌面/code-mod-example/code-mod-framework/lib/libnx_min/nx/lib\libnx_min.a(exception.o)
 .data          0x0000000000000000        0x0 C:/Users/oukeh/OneDrive/桌面/code-mod-example/code-mod-framework/lib/libnx_min/nx/lib\libnx_min.a(exception.o)
 .bss           0x0000000000000000        0x0 C:/Users/oukeh/OneDrive/桌面/code-mod-example/code-mod-framework/lib/libnx_min/nx/lib\libnx_min.a(exception.o)
 .debug_line    0x0000000000000000      0x11e C:/Users/oukeh/OneDrive/桌面/code-mod-example/code-mod-framework/lib/libnx_min/nx/lib\libnx_min.a(exception.o)
 .debug_info    0x0000000000000000       0x22 C:/Users/oukeh/OneDrive/桌面/code-mod-example/code-mod-framework/lib/libnx_min/nx/lib\libnx_min.a(exception.o)
 .debug_abbrev  0x0000000000000000       0x12 C:/Users/oukeh/OneDrive/桌面/code-mod-example/code-mod-framework/lib/libnx_min/nx/lib\libnx_min.a(exception.o)
 .debug_aranges
                0x0000000000000000       0x40 C:/Users/oukeh/OneDrive/桌面/code-mod-example/code-mod-framework/lib/libnx_min/nx/lib\libnx_min.a(exception.o)
 .debug_str     0x0000000000000000       0xbf C:/Users/oukeh/OneDrive/桌面/code-mod-example/code-mod-framework/lib/libnx_min/nx/lib\libnx_min.a(exception.o)
 .debug_ranges  0x0000000000000000       0x40 C:/Users/oukeh/OneDrive/桌面/code-mod-example/code-mod-framework/lib/libnx_min/nx/lib\libnx_min.a(exception.o)
 .text          0x0000000000000000        0x0 C:/Users/oukeh/OneDrive/桌面/code-mod-example/code-mod-framework/lib/libnx_min/nx/lib\libnx_min.a(argv.o)
 .data          0x0000000000000000        0x0 C:/Users/oukeh/OneDrive/桌面/code-mod-example/code-mod-framework/lib/libnx_min/nx/lib\libnx_min.a(argv.o)
 .bss           0x0000000000000000        0x0 C:/Users/oukeh/OneDrive/桌面/code-mod-example/code-mod-framework/lib/libnx_min/nx/lib\libnx_min.a(argv.o)
 .debug_info    0x0000000000000000      0xe43 C:/Users/oukeh/OneDrive/桌面/code-mod-example/code-mod-framework/lib/libnx_min/nx/lib\libnx_min.a(argv.o)
 .debug_abbrev  0x0000000000000000      0x2de C:/Users/oukeh/OneDrive/桌面/code-mod-example/code-mod-framework/lib/libnx_min/nx/lib\libnx_min.a(argv.o)
 .debug_loc     0x0000000000000000      0x6a8 C:/Users/oukeh/OneDrive/桌面/code-mod-example/code-mod-framework/lib/libnx_min/nx/lib\libnx_min.a(argv.o)
 .debug_aranges
                0x0000000000000000       0x30 C:/Users/oukeh/OneDrive/桌面/code-mod-example/code-mod-framework/lib/libnx_min/nx/lib\libnx_min.a(argv.o)
 .debug_ranges  0x0000000000000000       0x20 C:/Users/oukeh/OneDrive/桌面/code-mod-example/code-mod-framework/lib/libnx_min/nx/lib\libnx_min.a(argv.o)
 .debug_line    0x0000000000000000      0x64d C:/Users/oukeh/OneDrive/桌面/code-mod-example/code-mod-framework/lib/libnx_min/nx/lib\libnx_min.a(argv.o)
 .debug_str     0x0000000000000000      0x874 C:/Users/oukeh/OneDrive/桌面/code-mod-example/code-mod-framework/lib/libnx_min/nx/lib\libnx_min.a(argv.o)
 .comment       0x0000000000000000       0x23 C:/Users/oukeh/OneDrive/桌面/code-mod-example/code-mod-framework/lib/libnx_min/nx/lib\libnx_min.a(argv.o)
 .text          0x0000000000000000        0x0 C:/Users/oukeh/OneDrive/桌面/code-mod-example/code-mod-framework/lib/libnx_min/nx/lib\libnx_min.a(env.o)
 .data          0x0000000000000000        0x0 C:/Users/oukeh/OneDrive/桌面/code-mod-example/code-mod-framework/lib/libnx_min/nx/lib\libnx_min.a(env.o)
 .bss           0x0000000000000000        0x0 C:/Users/oukeh/OneDrive/桌面/code-mod-example/code-mod-framework/lib/libnx_min/nx/lib\libnx_min.a(env.o)
 .debug_info    0x0000000000000000     0x111a C:/Users/oukeh/OneDrive/桌面/code-mod-example/code-mod-framework/lib/libnx_min/nx/lib\libnx_min.a(env.o)
 .debug_abbrev  0x0000000000000000      0x322 C:/Users/oukeh/OneDrive/桌面/code-mod-example/code-mod-framework/lib/libnx_min/nx/lib\libnx_min.a(env.o)
 .debug_loc     0x0000000000000000      0x362 C:/Users/oukeh/OneDrive/桌面/code-mod-example/code-mod-framework/lib/libnx_min/nx/lib\libnx_min.a(env.o)
 .debug_aranges
                0x0000000000000000      0x130 C:/Users/oukeh/OneDrive/桌面/code-mod-example/code-mod-framework/lib/libnx_min/nx/lib\libnx_min.a(env.o)
 .debug_ranges  0x0000000000000000      0x120 C:/Users/oukeh/OneDrive/桌面/code-mod-example/code-mod-framework/lib/libnx_min/nx/lib\libnx_min.a(env.o)
 .debug_line    0x0000000000000000      0x6fe C:/Users/oukeh/OneDrive/桌面/code-mod-example/code-mod-framework/lib/libnx_min/nx/lib\libnx_min.a(env.o)
 .debug_str     0x0000000000000000     0x107e C:/Users/oukeh/OneDrive/桌面/code-mod-example/code-mod-framework/lib/libnx_min/nx/lib\libnx_min.a(env.o)
 .comment       0x0000000000000000       0x23 C:/Users/oukeh/OneDrive/桌面/code-mod-example/code-mod-framework/lib/libnx_min/nx/lib\libnx_min.a(env.o)
 .text          0x0000000000000000        0x0 C:/Users/oukeh/OneDrive/桌面/code-mod-example/code-mod-framework/lib/libnx_min/nx/lib\libnx_min.a(init.o)
 .data          0x0000000000000000        0x0 C:/Users/oukeh/OneDrive/桌面/code-mod-example/code-mod-framework/lib/libnx_min/nx/lib\libnx_min.a(init.o)
 .bss           0x0000000000000000        0x0 C:/Users/oukeh/OneDrive/桌面/code-mod-example/code-mod-framework/lib/libnx_min/nx/lib\libnx_min.a(init.o)
 .text.__libnx_init
                0x0000000000000000       0x28 C:/Users/oukeh/OneDrive/桌面/code-mod-example/code-mod-framework/lib/libnx_min/nx/lib\libnx_min.a(init.o)
 .text.__libnx_exit
                0x0000000000000000       0x20 C:/Users/oukeh/OneDrive/桌面/code-mod-example/code-mod-framework/lib/libnx_min/nx/lib\libnx_min.a(init.o)
 .debug_info    0x0000000000000000      0xce2 C:/Users/oukeh/OneDrive/桌面/code-mod-example/code-mod-framework/lib/libnx_min/nx/lib\libnx_min.a(init.o)
 .debug_abbrev  0x0000000000000000      0x2a1 C:/Users/oukeh/OneDrive/桌面/code-mod-example/code-mod-framework/lib/libnx_min/nx/lib\libnx_min.a(init.o)
 .debug_loc     0x0000000000000000      0x34a C:/Users/oukeh/OneDrive/桌面/code-mod-example/code-mod-framework/lib/libnx_min/nx/lib\libnx_min.a(init.o)
 .debug_aranges
                0x0000000000000000       0x70 C:/Users/oukeh/OneDrive/桌面/code-mod-example/code-mod-framework/lib/libnx_min/nx/lib\libnx_min.a(init.o)
 .debug_ranges  0x0000000000000000       0xa0 C:/Users/oukeh/OneDrive/桌面/code-mod-example/code-mod-framework/lib/libnx_min/nx/lib\libnx_min.a(init.o)
 .debug_line    0x0000000000000000      0x685 C:/Users/oukeh/OneDrive/桌面/code-mod-example/code-mod-framework/lib/libnx_min/nx/lib\libnx_min.a(init.o)
 .debug_str     0x0000000000000000      0xf19 C:/Users/oukeh/OneDrive/桌面/code-mod-example/code-mod-framework/lib/libnx_min/nx/lib\libnx_min.a(init.o)
 .comment       0x0000000000000000       0x23 C:/Users/oukeh/OneDrive/桌面/code-mod-example/code-mod-framework/lib/libnx_min/nx/lib\libnx_min.a(init.o)
 .text          0x0000000000000000        0x0 C:/Users/oukeh/OneDrive/桌面/code-mod-example/code-mod-framework/lib/libnx_min/nx/lib\libnx_min.a(hosversion.o)
 .data          0x0000000000000000        0x0 C:/Users/oukeh/OneDrive/桌面/code-mod-example/code-mod-framework/lib/libnx_min/nx/lib\libnx_min.a(hosversion.o)
 .bss           0x0000000000000000        0x0 C:/Users/oukeh/OneDrive/桌面/code-mod-example/code-mod-framework/lib/libnx_min/nx/lib\libnx_min.a(hosversion.o)
 .debug_info    0x0000000000000000      0x103 C:/Users/oukeh/OneDrive/桌面/code-mod-example/code-mod-framework/lib/libnx_min/nx/lib\libnx_min.a(hosversion.o)
 .debug_abbrev  0x0000000000000000       0xa2 C:/Users/oukeh/OneDrive/桌面/code-mod-example/code-mod-framework/lib/libnx_min/nx/lib\libnx_min.a(hosversion.o)
 .debug_aranges
                0x0000000000000000       0x40 C:/Users/oukeh/OneDrive/桌面/code-mod-example/code-mod-framework/lib/libnx_min/nx/lib\libnx_min.a(hosversion.o)
 .debug_ranges  0x0000000000000000       0x30 C:/Users/oukeh/OneDrive/桌面/code-mod-example/code-mod-framework/lib/libnx_min/nx/lib\libnx_min.a(hosversion.o)
 .debug_line    0x0000000000000000      0x1b0 C:/Users/oukeh/OneDrive/桌面/code-mod-example/code-mod-framework/lib/libnx_min/nx/lib\libnx_min.a(hosversion.o)
 .debug_str     0x0000000000000000      0x234 C:/Users/oukeh/OneDrive/桌面/code-mod-example/code-mod-framework/lib/libnx_min/nx/lib\libnx_min.a(hosversion.o)
 .comment       0x0000000000000000       0x23 C:/Users/oukeh/OneDrive/桌面/code-mod-example/code-mod-framework/lib/libnx_min/nx/lib\libnx_min.a(hosversion.o)
 .text          0x0000000000000000        0x0 C:/Users/oukeh/OneDrive/桌面/code-mod-example/code-mod-framework/lib/libnx_min/nx/lib\libnx_min.a(dynamic.o)
 .data          0x0000000000000000        0x0 C:/Users/oukeh/OneDrive/桌面/code-mod-example/code-mod-framework/lib/libnx_min/nx/lib\libnx_min.a(dynamic.o)
 .bss           0x0000000000000000        0x0 C:/Users/oukeh/OneDrive/桌面/code-mod-example/code-mod-framework/lib/libnx_min/nx/lib\libnx_min.a(dynamic.o)
 .debug_info    0x0000000000000000      0x3c9 C:/Users/oukeh/OneDrive/桌面/code-mod-example/code-mod-framework/lib/libnx_min/nx/lib\libnx_min.a(dynamic.o)
 .debug_abbrev  0x0000000000000000      0x16b C:/Users/oukeh/OneDrive/桌面/code-mod-example/code-mod-framework/lib/libnx_min/nx/lib\libnx_min.a(dynamic.o)
 .debug_loc     0x0000000000000000      0x1b8 C:/Users/oukeh/OneDrive/桌面/code-mod-example/code-mod-framework/lib/libnx_min/nx/lib\libnx_min.a(dynamic.o)
 .debug_aranges
                0x0000000000000000       0x30 C:/Users/oukeh/OneDrive/桌面/code-mod-example/code-mod-framework/lib/libnx_min/nx/lib\libnx_min.a(dynamic.o)
 .debug_ranges  0x0000000000000000       0x20 C:/Users/oukeh/OneDrive/桌面/code-mod-example/code-mod-framework/lib/libnx_min/nx/lib\libnx_min.a(dynamic.o)
 .debug_line    0x0000000000000000      0x2df C:/Users/oukeh/OneDrive/桌面/code-mod-example/code-mod-framework/lib/libnx_min/nx/lib\libnx_min.a(dynamic.o)
 .debug_str     0x0000000000000000      0x837 C:/Users/oukeh/OneDrive/桌面/code-mod-example/code-mod-framework/lib/libnx_min/nx/lib\libnx_min.a(dynamic.o)
 .comment       0x0000000000000000       0x23 C:/Users/oukeh/OneDrive/桌面/code-mod-example/code-mod-framework/lib/libnx_min/nx/lib\libnx_min.a(dynamic.o)
 .text          0x0000000000000000        0x0 C:/Users/oukeh/OneDrive/桌面/code-mod-example/code-mod-framework/lib/libnx_min/nx/lib\libnx_min.a(fs_dev.o)
 .data          0x0000000000000000        0x0 C:/Users/oukeh/OneDrive/桌面/code-mod-example/code-mod-framework/lib/libnx_min/nx/lib\libnx_min.a(fs_dev.o)
 .bss           0x0000000000000000        0x0 C:/Users/oukeh/OneDrive/桌面/code-mod-example/code-mod-framework/lib/libnx_min/nx/lib\libnx_min.a(fs_dev.o)
 .debug_info    0x0000000000000000     0x411e C:/Users/oukeh/OneDrive/桌面/code-mod-example/code-mod-framework/lib/libnx_min/nx/lib\libnx_min.a(fs_dev.o)
 .debug_abbrev  0x0000000000000000      0x5b7 C:/Users/oukeh/OneDrive/桌面/code-mod-example/code-mod-framework/lib/libnx_min/nx/lib\libnx_min.a(fs_dev.o)
 .debug_loc     0x0000000000000000     0x4332 C:/Users/oukeh/OneDrive/桌面/code-mod-example/code-mod-framework/lib/libnx_min/nx/lib\libnx_min.a(fs_dev.o)
 .debug_aranges
                0x0000000000000000      0x2a0 C:/Users/oukeh/OneDrive/桌面/code-mod-example/code-mod-framework/lib/libnx_min/nx/lib\libnx_min.a(fs_dev.o)
 .debug_ranges  0x0000000000000000      0x670 C:/Users/oukeh/OneDrive/桌面/code-mod-example/code-mod-framework/lib/libnx_min/nx/lib\libnx_min.a(fs_dev.o)
 .debug_line    0x0000000000000000     0x1a73 C:/Users/oukeh/OneDrive/桌面/code-mod-example/code-mod-framework/lib/libnx_min/nx/lib\libnx_min.a(fs_dev.o)
 .debug_str     0x0000000000000000     0x1939 C:/Users/oukeh/OneDrive/桌面/code-mod-example/code-mod-framework/lib/libnx_min/nx/lib\libnx_min.a(fs_dev.o)
 .comment       0x0000000000000000       0x23 C:/Users/oukeh/OneDrive/桌面/code-mod-example/code-mod-framework/lib/libnx_min/nx/lib\libnx_min.a(fs_dev.o)
 .text          0x0000000000000000        0x0 C:/Users/oukeh/OneDrive/桌面/code-mod-example/code-mod-framework/lib/libnx_min/nx/lib\libnx_min.a(decode_utf8.o)
 .data          0x0000000000000000        0x0 C:/Users/oukeh/OneDrive/桌面/code-mod-example/code-mod-framework/lib/libnx_min/nx/lib\libnx_min.a(decode_utf8.o)
 .bss           0x0000000000000000        0x0 C:/Users/oukeh/OneDrive/桌面/code-mod-example/code-mod-framework/lib/libnx_min/nx/lib\libnx_min.a(decode_utf8.o)
 .debug_info    0x0000000000000000      0x170 C:/Users/oukeh/OneDrive/桌面/code-mod-example/code-mod-framework/lib/libnx_min/nx/lib\libnx_min.a(decode_utf8.o)
 .debug_abbrev  0x0000000000000000       0x9e C:/Users/oukeh/OneDrive/桌面/code-mod-example/code-mod-framework/lib/libnx_min/nx/lib\libnx_min.a(decode_utf8.o)
 .debug_loc     0x0000000000000000      0x334 C:/Users/oukeh/OneDrive/桌面/code-mod-example/code-mod-framework/lib/libnx_min/nx/lib\libnx_min.a(decode_utf8.o)
 .debug_aranges
                0x0000000000000000       0x30 C:/Users/oukeh/OneDrive/桌面/code-mod-example/code-mod-framework/lib/libnx_min/nx/lib\libnx_min.a(decode_utf8.o)
 .debug_ranges  0x0000000000000000       0x20 C:/Users/oukeh/OneDrive/桌面/code-mod-example/code-mod-framework/lib/libnx_min/nx/lib\libnx_min.a(decode_utf8.o)
 .debug_line    0x0000000000000000      0x28a C:/Users/oukeh/OneDrive/桌面/code-mod-example/code-mod-framework/lib/libnx_min/nx/lib\libnx_min.a(decode_utf8.o)
 .debug_str     0x0000000000000000      0x259 C:/Users/oukeh/OneDrive/桌面/code-mod-example/code-mod-framework/lib/libnx_min/nx/lib\libnx_min.a(decode_utf8.o)
 .comment       0x0000000000000000       0x23 C:/Users/oukeh/OneDrive/桌面/code-mod-example/code-mod-framework/lib/libnx_min/nx/lib\libnx_min.a(decode_utf8.o)
 .text          0x0000000000000000        0x0 C:/Users/oukeh/OneDrive/桌面/code-mod-example/code-mod-framework/lib/libnx_min/nx/lib\libnx_min.a(svc.o)
 .data          0x0000000000000000        0x0 C:/Users/oukeh/OneDrive/桌面/code-mod-example/code-mod-framework/lib/libnx_min/nx/lib\libnx_min.a(svc.o)
 .bss           0x0000000000000000        0x0 C:/Users/oukeh/OneDrive/桌面/code-mod-example/code-mod-framework/lib/libnx_min/nx/lib\libnx_min.a(svc.o)
 .debug_line    0x0000000000000000      0x92d C:/Users/oukeh/OneDrive/桌面/code-mod-example/code-mod-framework/lib/libnx_min/nx/lib\libnx_min.a(svc.o)
 .debug_info    0x0000000000000000       0x22 C:/Users/oukeh/OneDrive/桌面/code-mod-example/code-mod-framework/lib/libnx_min/nx/lib\libnx_min.a(svc.o)
 .debug_abbrev  0x0000000000000000       0x12 C:/Users/oukeh/OneDrive/桌面/code-mod-example/code-mod-framework/lib/libnx_min/nx/lib\libnx_min.a(svc.o)
 .debug_aranges
                0x0000000000000000      0x660 C:/Users/oukeh/OneDrive/桌面/code-mod-example/code-mod-framework/lib/libnx_min/nx/lib\libnx_min.a(svc.o)
 .debug_str     0x0000000000000000       0xb8 C:/Users/oukeh/OneDrive/桌面/code-mod-example/code-mod-framework/lib/libnx_min/nx/lib\libnx_min.a(svc.o)
 .debug_ranges  0x0000000000000000      0x660 C:/Users/oukeh/OneDrive/桌面/code-mod-example/code-mod-framework/lib/libnx_min/nx/lib\libnx_min.a(svc.o)
 .text          0x0000000000000000        0x0 C:/Users/oukeh/OneDrive/桌面/code-mod-example/code-mod-framework/lib/libnx_min/nx/lib\libnx_min.a(readtp.o)
 .data          0x0000000000000000        0x0 C:/Users/oukeh/OneDrive/桌面/code-mod-example/code-mod-framework/lib/libnx_min/nx/lib\libnx_min.a(readtp.o)
 .bss           0x0000000000000000        0x0 C:/Users/oukeh/OneDrive/桌面/code-mod-example/code-mod-framework/lib/libnx_min/nx/lib\libnx_min.a(readtp.o)
 .debug_line    0x0000000000000000       0x93 C:/Users/oukeh/OneDrive/桌面/code-mod-example/code-mod-framework/lib/libnx_min/nx/lib\libnx_min.a(readtp.o)
 .debug_info    0x0000000000000000       0x2e C:/Users/oukeh/OneDrive/桌面/code-mod-example/code-mod-framework/lib/libnx_min/nx/lib\libnx_min.a(readtp.o)
 .debug_abbrev  0x0000000000000000       0x14 C:/Users/oukeh/OneDrive/桌面/code-mod-example/code-mod-framework/lib/libnx_min/nx/lib\libnx_min.a(readtp.o)
 .debug_aranges
                0x0000000000000000       0x30 C:/Users/oukeh/OneDrive/桌面/code-mod-example/code-mod-framework/lib/libnx_min/nx/lib\libnx_min.a(readtp.o)
 .debug_str     0x0000000000000000       0xbc C:/Users/oukeh/OneDrive/桌面/code-mod-example/code-mod-framework/lib/libnx_min/nx/lib\libnx_min.a(readtp.o)
 .text          0x0000000000000000        0x0 C:/Users/oukeh/OneDrive/桌面/code-mod-example/code-mod-framework/lib/libnx_min/nx/lib\libnx_min.a(virtmem.o)
 .data          0x0000000000000000        0x0 C:/Users/oukeh/OneDrive/桌面/code-mod-example/code-mod-framework/lib/libnx_min/nx/lib\libnx_min.a(virtmem.o)
 .bss           0x0000000000000000        0x0 C:/Users/oukeh/OneDrive/桌面/code-mod-example/code-mod-framework/lib/libnx_min/nx/lib\libnx_min.a(virtmem.o)
 .debug_info    0x0000000000000000      0xb52 C:/Users/oukeh/OneDrive/桌面/code-mod-example/code-mod-framework/lib/libnx_min/nx/lib\libnx_min.a(virtmem.o)
 .debug_abbrev  0x0000000000000000      0x2cf C:/Users/oukeh/OneDrive/桌面/code-mod-example/code-mod-framework/lib/libnx_min/nx/lib\libnx_min.a(virtmem.o)
 .debug_loc     0x0000000000000000      0x668 C:/Users/oukeh/OneDrive/桌面/code-mod-example/code-mod-framework/lib/libnx_min/nx/lib\libnx_min.a(virtmem.o)
 .debug_aranges
                0x0000000000000000       0x70 C:/Users/oukeh/OneDrive/桌面/code-mod-example/code-mod-framework/lib/libnx_min/nx/lib\libnx_min.a(virtmem.o)
 .debug_ranges  0x0000000000000000      0x170 C:/Users/oukeh/OneDrive/桌面/code-mod-example/code-mod-framework/lib/libnx_min/nx/lib\libnx_min.a(virtmem.o)
 .debug_line    0x0000000000000000      0x60f C:/Users/oukeh/OneDrive/桌面/code-mod-example/code-mod-framework/lib/libnx_min/nx/lib\libnx_min.a(virtmem.o)
 .debug_str     0x0000000000000000      0xbfa C:/Users/oukeh/OneDrive/桌面/code-mod-example/code-mod-framework/lib/libnx_min/nx/lib\libnx_min.a(virtmem.o)
 .comment       0x0000000000000000       0x23 C:/Users/oukeh/OneDrive/桌面/code-mod-example/code-mod-framework/lib/libnx_min/nx/lib\libnx_min.a(virtmem.o)
 .text          0x0000000000000000        0x0 C:/Users/oukeh/OneDrive/桌面/code-mod-example/code-mod-framework/lib/libnx_min/nx/lib\libnx_min.a(mutex.o)
 .data          0x0000000000000000        0x0 C:/Users/oukeh/OneDrive/桌面/code-mod-example/code-mod-framework/lib/libnx_min/nx/lib\libnx_min.a(mutex.o)
 .bss           0x0000000000000000        0x0 C:/Users/oukeh/OneDrive/桌面/code-mod-example/code-mod-framework/lib/libnx_min/nx/lib\libnx_min.a(mutex.o)
 .debug_info    0x0000000000000000      0x782 C:/Users/oukeh/OneDrive/桌面/code-mod-example/code-mod-framework/lib/libnx_min/nx/lib\libnx_min.a(mutex.o)
 .debug_abbrev  0x0000000000000000      0x1fe C:/Users/oukeh/OneDrive/桌面/code-mod-example/code-mod-framework/lib/libnx_min/nx/lib\libnx_min.a(mutex.o)
 .debug_loc     0x0000000000000000      0x3d1 C:/Users/oukeh/OneDrive/桌面/code-mod-example/code-mod-framework/lib/libnx_min/nx/lib\libnx_min.a(mutex.o)
 .debug_aranges
                0x0000000000000000       0x80 C:/Users/oukeh/OneDrive/桌面/code-mod-example/code-mod-framework/lib/libnx_min/nx/lib\libnx_min.a(mutex.o)
 .debug_ranges  0x0000000000000000      0x470 C:/Users/oukeh/OneDrive/桌面/code-mod-example/code-mod-framework/lib/libnx_min/nx/lib\libnx_min.a(mutex.o)
 .debug_line    0x0000000000000000      0x5e6 C:/Users/oukeh/OneDrive/桌面/code-mod-example/code-mod-framework/lib/libnx_min/nx/lib\libnx_min.a(mutex.o)
 .debug_str     0x0000000000000000      0x3a4 C:/Users/oukeh/OneDrive/桌面/code-mod-example/code-mod-framework/lib/libnx_min/nx/lib\libnx_min.a(mutex.o)
 .comment       0x0000000000000000       0x23 C:/Users/oukeh/OneDrive/桌面/code-mod-example/code-mod-framework/lib/libnx_min/nx/lib\libnx_min.a(mutex.o)
 .text          0x0000000000000000        0x0 C:/Users/oukeh/OneDrive/桌面/code-mod-example/code-mod-framework/lib/libnx_min/nx/lib\libnx_min.a(fs.o)
 .data          0x0000000000000000        0x0 C:/Users/oukeh/OneDrive/桌面/code-mod-example/code-mod-framework/lib/libnx_min/nx/lib\libnx_min.a(fs.o)
 .bss           0x0000000000000000        0x0 C:/Users/oukeh/OneDrive/桌面/code-mod-example/code-mod-framework/lib/libnx_min/nx/lib\libnx_min.a(fs.o)
 .debug_info    0x0000000000000000    0x148db C:/Users/oukeh/OneDrive/桌面/code-mod-example/code-mod-framework/lib/libnx_min/nx/lib\libnx_min.a(fs.o)
 .debug_abbrev  0x0000000000000000      0x6cd C:/Users/oukeh/OneDrive/桌面/code-mod-example/code-mod-framework/lib/libnx_min/nx/lib\libnx_min.a(fs.o)
 .debug_loc     0x0000000000000000    0x23e9b C:/Users/oukeh/OneDrive/桌面/code-mod-example/code-mod-framework/lib/libnx_min/nx/lib\libnx_min.a(fs.o)
 .debug_aranges
                0x0000000000000000      0x4a0 C:/Users/oukeh/OneDrive/桌面/code-mod-example/code-mod-framework/lib/libnx_min/nx/lib\libnx_min.a(fs.o)
 .debug_ranges  0x0000000000000000     0xb5b0 C:/Users/oukeh/OneDrive/桌面/code-mod-example/code-mod-framework/lib/libnx_min/nx/lib\libnx_min.a(fs.o)
 .debug_line    0x0000000000000000     0xb1b2 C:/Users/oukeh/OneDrive/桌面/code-mod-example/code-mod-framework/lib/libnx_min/nx/lib\libnx_min.a(fs.o)
 .debug_str     0x0000000000000000     0x23e6 C:/Users/oukeh/OneDrive/桌面/code-mod-example/code-mod-framework/lib/libnx_min/nx/lib\libnx_min.a(fs.o)
 .comment       0x0000000000000000       0x23 C:/Users/oukeh/OneDrive/桌面/code-mod-example/code-mod-framework/lib/libnx_min/nx/lib\libnx_min.a(fs.o)
 .text          0x0000000000000000        0x0 C:/Users/oukeh/OneDrive/桌面/code-mod-example/code-mod-framework/lib/libnx_min/nx/lib\libnx_min.a(set.o)
 .data          0x0000000000000000        0x0 C:/Users/oukeh/OneDrive/桌面/code-mod-example/code-mod-framework/lib/libnx_min/nx/lib\libnx_min.a(set.o)
 .bss           0x0000000000000000        0x0 C:/Users/oukeh/OneDrive/桌面/code-mod-example/code-mod-framework/lib/libnx_min/nx/lib\libnx_min.a(set.o)
 .debug_info    0x0000000000000000     0x692b C:/Users/oukeh/OneDrive/桌面/code-mod-example/code-mod-framework/lib/libnx_min/nx/lib\libnx_min.a(set.o)
 .debug_abbrev  0x0000000000000000      0x5eb C:/Users/oukeh/OneDrive/桌面/code-mod-example/code-mod-framework/lib/libnx_min/nx/lib\libnx_min.a(set.o)
 .debug_loc     0x0000000000000000     0xc88f C:/Users/oukeh/OneDrive/桌面/code-mod-example/code-mod-framework/lib/libnx_min/nx/lib\libnx_min.a(set.o)
 .debug_aranges
                0x0000000000000000      0x1d0 C:/Users/oukeh/OneDrive/桌面/code-mod-example/code-mod-framework/lib/libnx_min/nx/lib\libnx_min.a(set.o)
 .debug_ranges  0x0000000000000000     0x25f0 C:/Users/oukeh/OneDrive/桌面/code-mod-example/code-mod-framework/lib/libnx_min/nx/lib\libnx_min.a(set.o)
 .debug_line    0x0000000000000000     0x3101 C:/Users/oukeh/OneDrive/桌面/code-mod-example/code-mod-framework/lib/libnx_min/nx/lib\libnx_min.a(set.o)
 .debug_str     0x0000000000000000     0x1b23 C:/Users/oukeh/OneDrive/桌面/code-mod-example/code-mod-framework/lib/libnx_min/nx/lib\libnx_min.a(set.o)
 .comment       0x0000000000000000       0x23 C:/Users/oukeh/OneDrive/桌面/code-mod-example/code-mod-framework/lib/libnx_min/nx/lib\libnx_min.a(set.o)
 .text          0x0000000000000000        0x0 C:/Users/oukeh/OneDrive/桌面/code-mod-example/code-mod-framework/lib/libnx_min/nx/lib\libnx_min.a(fatal.o)
 .data          0x0000000000000000        0x0 C:/Users/oukeh/OneDrive/桌面/code-mod-example/code-mod-framework/lib/libnx_min/nx/lib\libnx_min.a(fatal.o)
 .bss           0x0000000000000000        0x0 C:/Users/oukeh/OneDrive/桌面/code-mod-example/code-mod-framework/lib/libnx_min/nx/lib\libnx_min.a(fatal.o)
 .debug_info    0x0000000000000000      0xd6e C:/Users/oukeh/OneDrive/桌面/code-mod-example/code-mod-framework/lib/libnx_min/nx/lib\libnx_min.a(fatal.o)
 .debug_abbrev  0x0000000000000000      0x393 C:/Users/oukeh/OneDrive/桌面/code-mod-example/code-mod-framework/lib/libnx_min/nx/lib\libnx_min.a(fatal.o)
 .debug_loc     0x0000000000000000      0x895 C:/Users/oukeh/OneDrive/桌面/code-mod-example/code-mod-framework/lib/libnx_min/nx/lib\libnx_min.a(fatal.o)
 .debug_aranges
                0x0000000000000000       0x60 C:/Users/oukeh/OneDrive/桌面/code-mod-example/code-mod-framework/lib/libnx_min/nx/lib\libnx_min.a(fatal.o)
 .debug_ranges  0x0000000000000000      0x240 C:/Users/oukeh/OneDrive/桌面/code-mod-example/code-mod-framework/lib/libnx_min/nx/lib\libnx_min.a(fatal.o)
 .debug_line    0x0000000000000000      0x5c9 C:/Users/oukeh/OneDrive/桌面/code-mod-example/code-mod-framework/lib/libnx_min/nx/lib\libnx_min.a(fatal.o)
 .debug_str     0x0000000000000000      0x763 C:/Users/oukeh/OneDrive/桌面/code-mod-example/code-mod-framework/lib/libnx_min/nx/lib\libnx_min.a(fatal.o)
 .comment       0x0000000000000000       0x23 C:/Users/oukeh/OneDrive/桌面/code-mod-example/code-mod-framework/lib/libnx_min/nx/lib\libnx_min.a(fatal.o)
 .text          0x0000000000000000        0x0 C:/Users/oukeh/OneDrive/桌面/code-mod-example/code-mod-framework/lib/libnx_min/nx/lib\libnx_min.a(sm.o)
 .data          0x0000000000000000        0x0 C:/Users/oukeh/OneDrive/桌面/code-mod-example/code-mod-framework/lib/libnx_min/nx/lib\libnx_min.a(sm.o)
 .bss           0x0000000000000000        0x0 C:/Users/oukeh/OneDrive/桌面/code-mod-example/code-mod-framework/lib/libnx_min/nx/lib\libnx_min.a(sm.o)
 .debug_info    0x0000000000000000     0x34eb C:/Users/oukeh/OneDrive/桌面/code-mod-example/code-mod-framework/lib/libnx_min/nx/lib\libnx_min.a(sm.o)
 .debug_abbrev  0x0000000000000000      0x4c4 C:/Users/oukeh/OneDrive/桌面/code-mod-example/code-mod-framework/lib/libnx_min/nx/lib\libnx_min.a(sm.o)
 .debug_loc     0x0000000000000000     0x5a55 C:/Users/oukeh/OneDrive/桌面/code-mod-example/code-mod-framework/lib/libnx_min/nx/lib\libnx_min.a(sm.o)
 .debug_aranges
                0x0000000000000000       0xe0 C:/Users/oukeh/OneDrive/桌面/code-mod-example/code-mod-framework/lib/libnx_min/nx/lib\libnx_min.a(sm.o)
 .debug_ranges  0x0000000000000000     0x1160 C:/Users/oukeh/OneDrive/桌面/code-mod-example/code-mod-framework/lib/libnx_min/nx/lib\libnx_min.a(sm.o)
 .debug_line    0x0000000000000000     0x175a C:/Users/oukeh/OneDrive/桌面/code-mod-example/code-mod-framework/lib/libnx_min/nx/lib\libnx_min.a(sm.o)
 .debug_str     0x0000000000000000     0x150b C:/Users/oukeh/OneDrive/桌面/code-mod-example/code-mod-framework/lib/libnx_min/nx/lib\libnx_min.a(sm.o)
 .comment       0x0000000000000000       0x23 C:/Users/oukeh/OneDrive/桌面/code-mod-example/code-mod-framework/lib/libnx_min/nx/lib\libnx_min.a(sm.o)
 .text          0x0000000000000000        0x0 C:/Users/oukeh/OneDrive/桌面/code-mod-example/code-mod-framework/lib/libnx_min/nx/lib\libnx_min.a(hid.o)
 .data          0x0000000000000000        0x0 C:/Users/oukeh/OneDrive/桌面/code-mod-example/code-mod-framework/lib/libnx_min/nx/lib\libnx_min.a(hid.o)
 .bss           0x0000000000000000        0x0 C:/Users/oukeh/OneDrive/桌面/code-mod-example/code-mod-framework/lib/libnx_min/nx/lib\libnx_min.a(hid.o)
 .debug_info    0x0000000000000000     0xb19f C:/Users/oukeh/OneDrive/桌面/code-mod-example/code-mod-framework/lib/libnx_min/nx/lib\libnx_min.a(hid.o)
 .debug_abbrev  0x0000000000000000      0x743 C:/Users/oukeh/OneDrive/桌面/code-mod-example/code-mod-framework/lib/libnx_min/nx/lib\libnx_min.a(hid.o)
 .debug_loc     0x0000000000000000    0x1192e C:/Users/oukeh/OneDrive/桌面/code-mod-example/code-mod-framework/lib/libnx_min/nx/lib\libnx_min.a(hid.o)
 .debug_aranges
                0x0000000000000000      0x450 C:/Users/oukeh/OneDrive/桌面/code-mod-example/code-mod-framework/lib/libnx_min/nx/lib\libnx_min.a(hid.o)
 .debug_ranges  0x0000000000000000     0x3140 C:/Users/oukeh/OneDrive/桌面/code-mod-example/code-mod-framework/lib/libnx_min/nx/lib\libnx_min.a(hid.o)
 .debug_line    0x0000000000000000     0x5037 C:/Users/oukeh/OneDrive/桌面/code-mod-example/code-mod-framework/lib/libnx_min/nx/lib\libnx_min.a(hid.o)
 .debug_str     0x0000000000000000     0x338c C:/Users/oukeh/OneDrive/桌面/code-mod-example/code-mod-framework/lib/libnx_min/nx/lib\libnx_min.a(hid.o)
 .comment       0x0000000000000000       0x23 C:/Users/oukeh/OneDrive/桌面/code-mod-example/code-mod-framework/lib/libnx_min/nx/lib\libnx_min.a(hid.o)
 .text          0x0000000000000000        0x0 C:/Users/oukeh/OneDrive/桌面/code-mod-example/code-mod-framework/lib/libnx_min/nx/lib\libnx_min.a(time.o)
 .data          0x0000000000000000        0x0 C:/Users/oukeh/OneDrive/桌面/code-mod-example/code-mod-framework/lib/libnx_min/nx/lib\libnx_min.a(time.o)
 .bss           0x0000000000000000        0x0 C:/Users/oukeh/OneDrive/桌面/code-mod-example/code-mod-framework/lib/libnx_min/nx/lib\libnx_min.a(time.o)
 .debug_info    0x0000000000000000     0x2f93 C:/Users/oukeh/OneDrive/桌面/code-mod-example/code-mod-framework/lib/libnx_min/nx/lib\libnx_min.a(time.o)
 .debug_abbrev  0x0000000000000000      0x544 C:/Users/oukeh/OneDrive/桌面/code-mod-example/code-mod-framework/lib/libnx_min/nx/lib\libnx_min.a(time.o)
 .debug_loc     0x0000000000000000     0x36b5 C:/Users/oukeh/OneDrive/桌面/code-mod-example/code-mod-framework/lib/libnx_min/nx/lib\libnx_min.a(time.o)
 .debug_aranges
                0x0000000000000000       0xa0 C:/Users/oukeh/OneDrive/桌面/code-mod-example/code-mod-framework/lib/libnx_min/nx/lib\libnx_min.a(time.o)
 .debug_ranges  0x0000000000000000      0xa70 C:/Users/oukeh/OneDrive/桌面/code-mod-example/code-mod-framework/lib/libnx_min/nx/lib\libnx_min.a(time.o)
 .debug_line    0x0000000000000000     0x10ba C:/Users/oukeh/OneDrive/桌面/code-mod-example/code-mod-framework/lib/libnx_min/nx/lib\libnx_min.a(time.o)
 .debug_str     0x0000000000000000     0x151b C:/Users/oukeh/OneDrive/桌面/code-mod-example/code-mod-framework/lib/libnx_min/nx/lib\libnx_min.a(time.o)
 .comment       0x0000000000000000       0x23 C:/Users/oukeh/OneDrive/桌面/code-mod-example/code-mod-framework/lib/libnx_min/nx/lib\libnx_min.a(time.o)
 .text          0x0000000000000000        0x0 C:/Users/oukeh/OneDrive/桌面/code-mod-example/code-mod-framework/lib/libnx_min/nx/lib\libnx_min.a(applet.o)
 .data          0x0000000000000000        0x0 C:/Users/oukeh/OneDrive/桌面/code-mod-example/code-mod-framework/lib/libnx_min/nx/lib\libnx_min.a(applet.o)
 .bss           0x0000000000000000        0x0 C:/Users/oukeh/OneDrive/桌面/code-mod-example/code-mod-framework/lib/libnx_min/nx/lib\libnx_min.a(applet.o)
 .data.__nx_applet_type
                0x0000000000000000        0x4 C:/Users/oukeh/OneDrive/桌面/code-mod-example/code-mod-framework/lib/libnx_min/nx/lib\libnx_min.a(applet.o)
 .debug_info    0x0000000000000000    0x1572b C:/Users/oukeh/OneDrive/桌面/code-mod-example/code-mod-framework/lib/libnx_min/nx/lib\libnx_min.a(applet.o)
 .debug_abbrev  0x0000000000000000      0x76e C:/Users/oukeh/OneDrive/桌面/code-mod-example/code-mod-framework/lib/libnx_min/nx/lib\libnx_min.a(applet.o)
 .debug_loc     0x0000000000000000    0x20f04 C:/Users/oukeh/OneDrive/桌面/code-mod-example/code-mod-framework/lib/libnx_min/nx/lib\libnx_min.a(applet.o)
 .debug_aranges
                0x0000000000000000      0x730 C:/Users/oukeh/OneDrive/桌面/code-mod-example/code-mod-framework/lib/libnx_min/nx/lib\libnx_min.a(applet.o)
 .debug_ranges  0x0000000000000000     0x8b40 C:/Users/oukeh/OneDrive/桌面/code-mod-example/code-mod-framework/lib/libnx_min/nx/lib\libnx_min.a(applet.o)
 .debug_line    0x0000000000000000     0xadb0 C:/Users/oukeh/OneDrive/桌面/code-mod-example/code-mod-framework/lib/libnx_min/nx/lib\libnx_min.a(applet.o)
 .debug_str     0x0000000000000000     0x30c0 C:/Users/oukeh/OneDrive/桌面/code-mod-example/code-mod-framework/lib/libnx_min/nx/lib\libnx_min.a(applet.o)
 .comment       0x0000000000000000       0x23 C:/Users/oukeh/OneDrive/桌面/code-mod-example/code-mod-framework/lib/libnx_min/nx/lib\libnx_min.a(applet.o)
 .text          0x0000000000000000        0x0 C:/Users/oukeh/OneDrive/桌面/code-mod-example/code-mod-framework/lib/libnx_min/nx/lib\libnx_min.a(newlib.o)
 .data          0x0000000000000000        0x0 C:/Users/oukeh/OneDrive/桌面/code-mod-example/code-mod-framework/lib/libnx_min/nx/lib\libnx_min.a(newlib.o)
 .bss           0x0000000000000000        0x0 C:/Users/oukeh/OneDrive/桌面/code-mod-example/code-mod-framework/lib/libnx_min/nx/lib\libnx_min.a(newlib.o)
 .debug_info    0x0000000000000000     0x2bc2 C:/Users/oukeh/OneDrive/桌面/code-mod-example/code-mod-framework/lib/libnx_min/nx/lib\libnx_min.a(newlib.o)
 .debug_abbrev  0x0000000000000000      0x571 C:/Users/oukeh/OneDrive/桌面/code-mod-example/code-mod-framework/lib/libnx_min/nx/lib\libnx_min.a(newlib.o)
 .debug_loc     0x0000000000000000     0x192e C:/Users/oukeh/OneDrive/桌面/code-mod-example/code-mod-framework/lib/libnx_min/nx/lib\libnx_min.a(newlib.o)
 .debug_aranges
                0x0000000000000000      0x1f0 C:/Users/oukeh/OneDrive/桌面/code-mod-example/code-mod-framework/lib/libnx_min/nx/lib\libnx_min.a(newlib.o)
 .debug_ranges  0x0000000000000000      0x4e0 C:/Users/oukeh/OneDrive/桌面/code-mod-example/code-mod-framework/lib/libnx_min/nx/lib\libnx_min.a(newlib.o)
 .debug_line    0x0000000000000000     0x10e9 C:/Users/oukeh/OneDrive/桌面/code-mod-example/code-mod-framework/lib/libnx_min/nx/lib\libnx_min.a(newlib.o)
 .debug_str     0x0000000000000000     0x18ae C:/Users/oukeh/OneDrive/桌面/code-mod-example/code-mod-framework/lib/libnx_min/nx/lib\libnx_min.a(newlib.o)
 .comment       0x0000000000000000       0x23 C:/Users/oukeh/OneDrive/桌面/code-mod-example/code-mod-framework/lib/libnx_min/nx/lib\libnx_min.a(newlib.o)
 .text          0x0000000000000000        0x0 C:/Users/oukeh/OneDrive/桌面/code-mod-example/code-mod-framework/lib/libnx_min/nx/lib\libnx_min.a(thread.o)
 .data          0x0000000000000000        0x0 C:/Users/oukeh/OneDrive/桌面/code-mod-example/code-mod-framework/lib/libnx_min/nx/lib\libnx_min.a(thread.o)
 .bss           0x0000000000000000        0x0 C:/Users/oukeh/OneDrive/桌面/code-mod-example/code-mod-framework/lib/libnx_min/nx/lib\libnx_min.a(thread.o)
 .debug_info    0x0000000000000000     0x1a68 C:/Users/oukeh/OneDrive/桌面/code-mod-example/code-mod-framework/lib/libnx_min/nx/lib\libnx_min.a(thread.o)
 .debug_abbrev  0x0000000000000000      0x492 C:/Users/oukeh/OneDrive/桌面/code-mod-example/code-mod-framework/lib/libnx_min/nx/lib\libnx_min.a(thread.o)
 .debug_loc     0x0000000000000000      0xbd2 C:/Users/oukeh/OneDrive/桌面/code-mod-example/code-mod-framework/lib/libnx_min/nx/lib\libnx_min.a(thread.o)
 .debug_aranges
                0x0000000000000000      0x100 C:/Users/oukeh/OneDrive/桌面/code-mod-example/code-mod-framework/lib/libnx_min/nx/lib\libnx_min.a(thread.o)
 .debug_ranges  0x0000000000000000      0x320 C:/Users/oukeh/OneDrive/桌面/code-mod-example/code-mod-framework/lib/libnx_min/nx/lib\libnx_min.a(thread.o)
 .debug_line    0x0000000000000000      0xa2c C:/Users/oukeh/OneDrive/桌面/code-mod-example/code-mod-framework/lib/libnx_min/nx/lib\libnx_min.a(thread.o)
 .debug_str     0x0000000000000000      0xfee C:/Users/oukeh/OneDrive/桌面/code-mod-example/code-mod-framework/lib/libnx_min/nx/lib\libnx_min.a(thread.o)
 .comment       0x0000000000000000       0x23 C:/Users/oukeh/OneDrive/桌面/code-mod-example/code-mod-framework/lib/libnx_min/nx/lib\libnx_min.a(thread.o)
 .text          0x0000000000000000        0x0 C:/Users/oukeh/OneDrive/桌面/code-mod-example/code-mod-framework/lib/libnx_min/nx/lib\libnx_min.a(condvar.o)
 .data          0x0000000000000000        0x0 C:/Users/oukeh/OneDrive/桌面/code-mod-example/code-mod-framework/lib/libnx_min/nx/lib\libnx_min.a(condvar.o)
 .bss           0x0000000000000000        0x0 C:/Users/oukeh/OneDrive/桌面/code-mod-example/code-mod-framework/lib/libnx_min/nx/lib\libnx_min.a(condvar.o)
 .debug_info    0x0000000000000000      0x396 C:/Users/oukeh/OneDrive/桌面/code-mod-example/code-mod-framework/lib/libnx_min/nx/lib\libnx_min.a(condvar.o)
 .debug_abbrev  0x0000000000000000      0x1aa C:/Users/oukeh/OneDrive/桌面/code-mod-example/code-mod-framework/lib/libnx_min/nx/lib\libnx_min.a(condvar.o)
 .debug_loc     0x0000000000000000      0x1c1 C:/Users/oukeh/OneDrive/桌面/code-mod-example/code-mod-framework/lib/libnx_min/nx/lib\libnx_min.a(condvar.o)
 .debug_aranges
                0x0000000000000000       0x30 C:/Users/oukeh/OneDrive/桌面/code-mod-example/code-mod-framework/lib/libnx_min/nx/lib\libnx_min.a(condvar.o)
 .debug_ranges  0x0000000000000000       0x60 C:/Users/oukeh/OneDrive/桌面/code-mod-example/code-mod-framework/lib/libnx_min/nx/lib\libnx_min.a(condvar.o)
 .debug_line    0x0000000000000000      0x398 C:/Users/oukeh/OneDrive/桌面/code-mod-example/code-mod-framework/lib/libnx_min/nx/lib\libnx_min.a(condvar.o)
 .debug_str     0x0000000000000000      0x350 C:/Users/oukeh/OneDrive/桌面/code-mod-example/code-mod-framework/lib/libnx_min/nx/lib\libnx_min.a(condvar.o)
 .comment       0x0000000000000000       0x23 C:/Users/oukeh/OneDrive/桌面/code-mod-example/code-mod-framework/lib/libnx_min/nx/lib\libnx_min.a(condvar.o)
 .text          0x0000000000000000        0x0 C:/Users/oukeh/OneDrive/桌面/code-mod-example/code-mod-framework/lib/libnx_min/nx/lib\libnx_min.a(event.o)
 .data          0x0000000000000000        0x0 C:/Users/oukeh/OneDrive/桌面/code-mod-example/code-mod-framework/lib/libnx_min/nx/lib\libnx_min.a(event.o)
 .bss           0x0000000000000000        0x0 C:/Users/oukeh/OneDrive/桌面/code-mod-example/code-mod-framework/lib/libnx_min/nx/lib\libnx_min.a(event.o)
 .debug_info    0x0000000000000000      0x702 C:/Users/oukeh/OneDrive/桌面/code-mod-example/code-mod-framework/lib/libnx_min/nx/lib\libnx_min.a(event.o)
 .debug_abbrev  0x0000000000000000      0x28b C:/Users/oukeh/OneDrive/桌面/code-mod-example/code-mod-framework/lib/libnx_min/nx/lib\libnx_min.a(event.o)
 .debug_loc     0x0000000000000000      0x2e3 C:/Users/oukeh/OneDrive/桌面/code-mod-example/code-mod-framework/lib/libnx_min/nx/lib\libnx_min.a(event.o)
 .debug_aranges
                0x0000000000000000       0x80 C:/Users/oukeh/OneDrive/桌面/code-mod-example/code-mod-framework/lib/libnx_min/nx/lib\libnx_min.a(event.o)
 .debug_ranges  0x0000000000000000       0xe0 C:/Users/oukeh/OneDrive/桌面/code-mod-example/code-mod-framework/lib/libnx_min/nx/lib\libnx_min.a(event.o)
 .debug_line    0x0000000000000000      0x3a9 C:/Users/oukeh/OneDrive/桌面/code-mod-example/code-mod-framework/lib/libnx_min/nx/lib\libnx_min.a(event.o)
 .debug_str     0x0000000000000000      0x950 C:/Users/oukeh/OneDrive/桌面/code-mod-example/code-mod-framework/lib/libnx_min/nx/lib\libnx_min.a(event.o)
 .comment       0x0000000000000000       0x23 C:/Users/oukeh/OneDrive/桌面/code-mod-example/code-mod-framework/lib/libnx_min/nx/lib\libnx_min.a(event.o)
 .text          0x0000000000000000        0x0 C:/Users/oukeh/OneDrive/桌面/code-mod-example/code-mod-framework/lib/libnx_min/nx/lib\libnx_min.a(tmem.o)
 .data          0x0000000000000000        0x0 C:/Users/oukeh/OneDrive/桌面/code-mod-example/code-mod-framework/lib/libnx_min/nx/lib\libnx_min.a(tmem.o)
 .bss           0x0000000000000000        0x0 C:/Users/oukeh/OneDrive/桌面/code-mod-example/code-mod-framework/lib/libnx_min/nx/lib\libnx_min.a(tmem.o)
 .debug_info    0x0000000000000000     0x100a C:/Users/oukeh/OneDrive/桌面/code-mod-example/code-mod-framework/lib/libnx_min/nx/lib\libnx_min.a(tmem.o)
 .debug_abbrev  0x0000000000000000      0x3a2 C:/Users/oukeh/OneDrive/桌面/code-mod-example/code-mod-framework/lib/libnx_min/nx/lib\libnx_min.a(tmem.o)
 .debug_loc     0x0000000000000000      0x6e2 C:/Users/oukeh/OneDrive/桌面/code-mod-example/code-mod-framework/lib/libnx_min/nx/lib\libnx_min.a(tmem.o)
 .debug_aranges
                0x0000000000000000       0x80 C:/Users/oukeh/OneDrive/桌面/code-mod-example/code-mod-framework/lib/libnx_min/nx/lib\libnx_min.a(tmem.o)
 .debug_ranges  0x0000000000000000       0xf0 C:/Users/oukeh/OneDrive/桌面/code-mod-example/code-mod-framework/lib/libnx_min/nx/lib\libnx_min.a(tmem.o)
 .debug_line    0x0000000000000000      0x507 C:/Users/oukeh/OneDrive/桌面/code-mod-example/code-mod-framework/lib/libnx_min/nx/lib\libnx_min.a(tmem.o)
 .debug_str     0x0000000000000000      0xd4f C:/Users/oukeh/OneDrive/桌面/code-mod-example/code-mod-framework/lib/libnx_min/nx/lib\libnx_min.a(tmem.o)
 .comment       0x0000000000000000       0x23 C:/Users/oukeh/OneDrive/桌面/code-mod-example/code-mod-framework/lib/libnx_min/nx/lib\libnx_min.a(tmem.o)
 .text          0x0000000000000000        0x0 C:/Users/oukeh/OneDrive/桌面/code-mod-example/code-mod-framework/lib/libnx_min/nx/lib\libnx_min.a(rwlock.o)
 .data          0x0000000000000000        0x0 C:/Users/oukeh/OneDrive/桌面/code-mod-example/code-mod-framework/lib/libnx_min/nx/lib\libnx_min.a(rwlock.o)
 .bss           0x0000000000000000        0x0 C:/Users/oukeh/OneDrive/桌面/code-mod-example/code-mod-framework/lib/libnx_min/nx/lib\libnx_min.a(rwlock.o)
 .debug_info    0x0000000000000000      0x659 C:/Users/oukeh/OneDrive/桌面/code-mod-example/code-mod-framework/lib/libnx_min/nx/lib\libnx_min.a(rwlock.o)
 .debug_abbrev  0x0000000000000000      0x1cc C:/Users/oukeh/OneDrive/桌面/code-mod-example/code-mod-framework/lib/libnx_min/nx/lib\libnx_min.a(rwlock.o)
 .debug_loc     0x0000000000000000      0x4ab C:/Users/oukeh/OneDrive/桌面/code-mod-example/code-mod-framework/lib/libnx_min/nx/lib\libnx_min.a(rwlock.o)
 .debug_aranges
                0x0000000000000000       0x70 C:/Users/oukeh/OneDrive/桌面/code-mod-example/code-mod-framework/lib/libnx_min/nx/lib\libnx_min.a(rwlock.o)
 .debug_ranges  0x0000000000000000      0x130 C:/Users/oukeh/OneDrive/桌面/code-mod-example/code-mod-framework/lib/libnx_min/nx/lib\libnx_min.a(rwlock.o)
 .debug_line    0x0000000000000000      0x3eb C:/Users/oukeh/OneDrive/桌面/code-mod-example/code-mod-framework/lib/libnx_min/nx/lib\libnx_min.a(rwlock.o)
 .debug_str     0x0000000000000000      0x346 C:/Users/oukeh/OneDrive/桌面/code-mod-example/code-mod-framework/lib/libnx_min/nx/lib\libnx_min.a(rwlock.o)
 .comment       0x0000000000000000       0x23 C:/Users/oukeh/OneDrive/桌面/code-mod-example/code-mod-framework/lib/libnx_min/nx/lib\libnx_min.a(rwlock.o)
 .text          0x0000000000000000        0x0 C:/Users/oukeh/OneDrive/桌面/code-mod-example/code-mod-framework/lib/libnx_min/nx/lib\libnx_min.a(wait.o)
 .data          0x0000000000000000        0x0 C:/Users/oukeh/OneDrive/桌面/code-mod-example/code-mod-framework/lib/libnx_min/nx/lib\libnx_min.a(wait.o)
 .bss           0x0000000000000000        0x0 C:/Users/oukeh/OneDrive/桌面/code-mod-example/code-mod-framework/lib/libnx_min/nx/lib\libnx_min.a(wait.o)
 .debug_info    0x0000000000000000      0xe46 C:/Users/oukeh/OneDrive/桌面/code-mod-example/code-mod-framework/lib/libnx_min/nx/lib\libnx_min.a(wait.o)
 .debug_abbrev  0x0000000000000000      0x35d C:/Users/oukeh/OneDrive/桌面/code-mod-example/code-mod-framework/lib/libnx_min/nx/lib\libnx_min.a(wait.o)
 .debug_loc     0x0000000000000000      0xeb6 C:/Users/oukeh/OneDrive/桌面/code-mod-example/code-mod-framework/lib/libnx_min/nx/lib\libnx_min.a(wait.o)
 .debug_aranges
                0x0000000000000000       0x60 C:/Users/oukeh/OneDrive/桌面/code-mod-example/code-mod-framework/lib/libnx_min/nx/lib\libnx_min.a(wait.o)
 .debug_ranges  0x0000000000000000      0x290 C:/Users/oukeh/OneDrive/桌面/code-mod-example/code-mod-framework/lib/libnx_min/nx/lib\libnx_min.a(wait.o)
 .debug_line    0x0000000000000000      0x7bb C:/Users/oukeh/OneDrive/桌面/code-mod-example/code-mod-framework/lib/libnx_min/nx/lib\libnx_min.a(wait.o)
 .debug_str     0x0000000000000000      0xa07 C:/Users/oukeh/OneDrive/桌面/code-mod-example/code-mod-framework/lib/libnx_min/nx/lib\libnx_min.a(wait.o)
 .comment       0x0000000000000000       0x23 C:/Users/oukeh/OneDrive/桌面/code-mod-example/code-mod-framework/lib/libnx_min/nx/lib\libnx_min.a(wait.o)
 .text          0x0000000000000000        0x0 C:/Users/oukeh/OneDrive/桌面/code-mod-example/code-mod-framework/lib/libnx_min/nx/lib\libnx_min.a(shmem.o)
 .data          0x0000000000000000        0x0 C:/Users/oukeh/OneDrive/桌面/code-mod-example/code-mod-framework/lib/libnx_min/nx/lib\libnx_min.a(shmem.o)
 .bss           0x0000000000000000        0x0 C:/Users/oukeh/OneDrive/桌面/code-mod-example/code-mod-framework/lib/libnx_min/nx/lib\libnx_min.a(shmem.o)
 .debug_info    0x0000000000000000      0xe91 C:/Users/oukeh/OneDrive/桌面/code-mod-example/code-mod-framework/lib/libnx_min/nx/lib\libnx_min.a(shmem.o)
 .debug_abbrev  0x0000000000000000      0x377 C:/Users/oukeh/OneDrive/桌面/code-mod-example/code-mod-framework/lib/libnx_min/nx/lib\libnx_min.a(shmem.o)
 .debug_loc     0x0000000000000000      0x442 C:/Users/oukeh/OneDrive/桌面/code-mod-example/code-mod-framework/lib/libnx_min/nx/lib\libnx_min.a(shmem.o)
 .debug_aranges
                0x0000000000000000       0x70 C:/Users/oukeh/OneDrive/桌面/code-mod-example/code-mod-framework/lib/libnx_min/nx/lib\libnx_min.a(shmem.o)
 .debug_ranges  0x0000000000000000       0xe0 C:/Users/oukeh/OneDrive/桌面/code-mod-example/code-mod-framework/lib/libnx_min/nx/lib\libnx_min.a(shmem.o)
 .debug_line    0x0000000000000000      0x401 C:/Users/oukeh/OneDrive/桌面/code-mod-example/code-mod-framework/lib/libnx_min/nx/lib\libnx_min.a(shmem.o)
 .debug_str     0x0000000000000000      0xc9a C:/Users/oukeh/OneDrive/桌面/code-mod-example/code-mod-framework/lib/libnx_min/nx/lib\libnx_min.a(shmem.o)
 .comment       0x0000000000000000       0x23 C:/Users/oukeh/OneDrive/桌面/code-mod-example/code-mod-framework/lib/libnx_min/nx/lib\libnx_min.a(shmem.o)
 .text          0x0000000000000000        0x0 C:/Users/oukeh/OneDrive/桌面/code-mod-example/code-mod-framework/lib/libnx_min/nx/lib\libnx_min.a(detect.o)
 .data          0x0000000000000000        0x0 C:/Users/oukeh/OneDrive/桌面/code-mod-example/code-mod-framework/lib/libnx_min/nx/lib\libnx_min.a(detect.o)
 .bss           0x0000000000000000        0x0 C:/Users/oukeh/OneDrive/桌面/code-mod-example/code-mod-framework/lib/libnx_min/nx/lib\libnx_min.a(detect.o)
 .debug_info    0x0000000000000000     0x103a C:/Users/oukeh/OneDrive/桌面/code-mod-example/code-mod-framework/lib/libnx_min/nx/lib\libnx_min.a(detect.o)
 .debug_abbrev  0x0000000000000000      0x31e C:/Users/oukeh/OneDrive/桌面/code-mod-example/code-mod-framework/lib/libnx_min/nx/lib\libnx_min.a(detect.o)
 .debug_loc     0x0000000000000000       0xb3 C:/Users/oukeh/OneDrive/桌面/code-mod-example/code-mod-framework/lib/libnx_min/nx/lib\libnx_min.a(detect.o)
 .debug_aranges
                0x0000000000000000       0x60 C:/Users/oukeh/OneDrive/桌面/code-mod-example/code-mod-framework/lib/libnx_min/nx/lib\libnx_min.a(detect.o)
 .debug_ranges  0x0000000000000000      0x130 C:/Users/oukeh/OneDrive/桌面/code-mod-example/code-mod-framework/lib/libnx_min/nx/lib\libnx_min.a(detect.o)
 .debug_line    0x0000000000000000      0x48e C:/Users/oukeh/OneDrive/桌面/code-mod-example/code-mod-framework/lib/libnx_min/nx/lib\libnx_min.a(detect.o)
 .debug_str     0x0000000000000000      0xea7 C:/Users/oukeh/OneDrive/桌面/code-mod-example/code-mod-framework/lib/libnx_min/nx/lib\libnx_min.a(detect.o)
 .comment       0x0000000000000000       0x23 C:/Users/oukeh/OneDrive/桌面/code-mod-example/code-mod-framework/lib/libnx_min/nx/lib\libnx_min.a(detect.o)
 .text          0x0000000000000000        0x0 C:/Users/oukeh/OneDrive/桌面/code-mod-example/code-mod-framework/lib/libnx_min/nx/lib\libnx_min.a(apm.o)
 .data          0x0000000000000000        0x0 C:/Users/oukeh/OneDrive/桌面/code-mod-example/code-mod-framework/lib/libnx_min/nx/lib\libnx_min.a(apm.o)
 .bss           0x0000000000000000        0x0 C:/Users/oukeh/OneDrive/桌面/code-mod-example/code-mod-framework/lib/libnx_min/nx/lib\libnx_min.a(apm.o)
 .debug_info    0x0000000000000000     0x1b13 C:/Users/oukeh/OneDrive/桌面/code-mod-example/code-mod-framework/lib/libnx_min/nx/lib\libnx_min.a(apm.o)
 .debug_abbrev  0x0000000000000000      0x442 C:/Users/oukeh/OneDrive/桌面/code-mod-example/code-mod-framework/lib/libnx_min/nx/lib\libnx_min.a(apm.o)
 .debug_loc     0x0000000000000000     0x239a C:/Users/oukeh/OneDrive/桌面/code-mod-example/code-mod-framework/lib/libnx_min/nx/lib\libnx_min.a(apm.o)
 .debug_aranges
                0x0000000000000000       0x80 C:/Users/oukeh/OneDrive/桌面/code-mod-example/code-mod-framework/lib/libnx_min/nx/lib\libnx_min.a(apm.o)
 .debug_ranges  0x0000000000000000      0x630 C:/Users/oukeh/OneDrive/桌面/code-mod-example/code-mod-framework/lib/libnx_min/nx/lib\libnx_min.a(apm.o)
 .debug_line    0x0000000000000000      0xbdc C:/Users/oukeh/OneDrive/桌面/code-mod-example/code-mod-framework/lib/libnx_min/nx/lib\libnx_min.a(apm.o)
 .debug_str     0x0000000000000000      0xa22 C:/Users/oukeh/OneDrive/桌面/code-mod-example/code-mod-framework/lib/libnx_min/nx/lib\libnx_min.a(apm.o)
 .comment       0x0000000000000000       0x23 C:/Users/oukeh/OneDrive/桌面/code-mod-example/code-mod-framework/lib/libnx_min/nx/lib\libnx_min.a(apm.o)
 .text          0x0000000000000000        0x0 c:/devkitpro/devkita64/bin/../lib/gcc/aarch64-none-elf/9.2.0/../../../../aarch64-none-elf/lib/pic\libg.a(lib_a-bsearch.o)
 .data          0x0000000000000000        0x0 c:/devkitpro/devkita64/bin/../lib/gcc/aarch64-none-elf/9.2.0/../../../../aarch64-none-elf/lib/pic\libg.a(lib_a-bsearch.o)
 .bss           0x0000000000000000        0x0 c:/devkitpro/devkita64/bin/../lib/gcc/aarch64-none-elf/9.2.0/../../../../aarch64-none-elf/lib/pic\libg.a(lib_a-bsearch.o)
 .comment       0x0000000000000000       0x23 c:/devkitpro/devkita64/bin/../lib/gcc/aarch64-none-elf/9.2.0/../../../../aarch64-none-elf/lib/pic\libg.a(lib_a-bsearch.o)
 .text          0x0000000000000000        0x0 c:/devkitpro/devkita64/bin/../lib/gcc/aarch64-none-elf/9.2.0/../../../../aarch64-none-elf/lib/pic\libg.a(lib_a-ctype_.o)
 .data          0x0000000000000000        0x0 c:/devkitpro/devkita64/bin/../lib/gcc/aarch64-none-elf/9.2.0/../../../../aarch64-none-elf/lib/pic\libg.a(lib_a-ctype_.o)
 .bss           0x0000000000000000        0x0 c:/devkitpro/devkita64/bin/../lib/gcc/aarch64-none-elf/9.2.0/../../../../aarch64-none-elf/lib/pic\libg.a(lib_a-ctype_.o)
 .comment       0x0000000000000000       0x23 c:/devkitpro/devkita64/bin/../lib/gcc/aarch64-none-elf/9.2.0/../../../../aarch64-none-elf/lib/pic\libg.a(lib_a-ctype_.o)
 .text          0x0000000000000000        0x0 c:/devkitpro/devkita64/bin/../lib/gcc/aarch64-none-elf/9.2.0/../../../../aarch64-none-elf/lib/pic\libg.a(lib_a-errno.o)
 .data          0x0000000000000000        0x0 c:/devkitpro/devkita64/bin/../lib/gcc/aarch64-none-elf/9.2.0/../../../../aarch64-none-elf/lib/pic\libg.a(lib_a-errno.o)
 .bss           0x0000000000000000        0x0 c:/devkitpro/devkita64/bin/../lib/gcc/aarch64-none-elf/9.2.0/../../../../aarch64-none-elf/lib/pic\libg.a(lib_a-errno.o)
 .comment       0x0000000000000000       0x23 c:/devkitpro/devkita64/bin/../lib/gcc/aarch64-none-elf/9.2.0/../../../../aarch64-none-elf/lib/pic\libg.a(lib_a-errno.o)
 .text          0x0000000000000000        0x0 c:/devkitpro/devkita64/bin/../lib/gcc/aarch64-none-elf/9.2.0/../../../../aarch64-none-elf/lib/pic\libg.a(lib_a-exit.o)
 .data          0x0000000000000000        0x0 c:/devkitpro/devkita64/bin/../lib/gcc/aarch64-none-elf/9.2.0/../../../../aarch64-none-elf/lib/pic\libg.a(lib_a-exit.o)
 .bss           0x0000000000000000        0x0 c:/devkitpro/devkita64/bin/../lib/gcc/aarch64-none-elf/9.2.0/../../../../aarch64-none-elf/lib/pic\libg.a(lib_a-exit.o)
 .comment       0x0000000000000000       0x23 c:/devkitpro/devkita64/bin/../lib/gcc/aarch64-none-elf/9.2.0/../../../../aarch64-none-elf/lib/pic\libg.a(lib_a-exit.o)
 .text          0x0000000000000000        0x0 c:/devkitpro/devkita64/bin/../lib/gcc/aarch64-none-elf/9.2.0/../../../../aarch64-none-elf/lib/pic\libg.a(lib_a-fini.o)
 .data          0x0000000000000000        0x0 c:/devkitpro/devkita64/bin/../lib/gcc/aarch64-none-elf/9.2.0/../../../../aarch64-none-elf/lib/pic\libg.a(lib_a-fini.o)
 .bss           0x0000000000000000        0x0 c:/devkitpro/devkita64/bin/../lib/gcc/aarch64-none-elf/9.2.0/../../../../aarch64-none-elf/lib/pic\libg.a(lib_a-fini.o)
 .comment       0x0000000000000000       0x23 c:/devkitpro/devkita64/bin/../lib/gcc/aarch64-none-elf/9.2.0/../../../../aarch64-none-elf/lib/pic\libg.a(lib_a-fini.o)
 .text          0x0000000000000000        0x0 c:/devkitpro/devkita64/bin/../lib/gcc/aarch64-none-elf/9.2.0/../../../../aarch64-none-elf/lib/pic\libg.a(lib_a-impure.o)
 .data          0x0000000000000000        0x0 c:/devkitpro/devkita64/bin/../lib/gcc/aarch64-none-elf/9.2.0/../../../../aarch64-none-elf/lib/pic\libg.a(lib_a-impure.o)
 .bss           0x0000000000000000        0x0 c:/devkitpro/devkita64/bin/../lib/gcc/aarch64-none-elf/9.2.0/../../../../aarch64-none-elf/lib/pic\libg.a(lib_a-impure.o)
 .comment       0x0000000000000000       0x23 c:/devkitpro/devkita64/bin/../lib/gcc/aarch64-none-elf/9.2.0/../../../../aarch64-none-elf/lib/pic\libg.a(lib_a-impure.o)
 .text          0x0000000000000000        0x0 c:/devkitpro/devkita64/bin/../lib/gcc/aarch64-none-elf/9.2.0/../../../../aarch64-none-elf/lib/pic\libg.a(lib_a-init.o)
 .data          0x0000000000000000        0x0 c:/devkitpro/devkita64/bin/../lib/gcc/aarch64-none-elf/9.2.0/../../../../aarch64-none-elf/lib/pic\libg.a(lib_a-init.o)
 .bss           0x0000000000000000        0x0 c:/devkitpro/devkita64/bin/../lib/gcc/aarch64-none-elf/9.2.0/../../../../aarch64-none-elf/lib/pic\libg.a(lib_a-init.o)
 .comment       0x0000000000000000       0x23 c:/devkitpro/devkita64/bin/../lib/gcc/aarch64-none-elf/9.2.0/../../../../aarch64-none-elf/lib/pic\libg.a(lib_a-init.o)
 .text          0x0000000000000000        0x0 c:/devkitpro/devkita64/bin/../lib/gcc/aarch64-none-elf/9.2.0/../../../../aarch64-none-elf/lib/pic\libg.a(lib_a-malign.o)
 .data          0x0000000000000000        0x0 c:/devkitpro/devkita64/bin/../lib/gcc/aarch64-none-elf/9.2.0/../../../../aarch64-none-elf/lib/pic\libg.a(lib_a-malign.o)
 .bss           0x0000000000000000        0x0 c:/devkitpro/devkita64/bin/../lib/gcc/aarch64-none-elf/9.2.0/../../../../aarch64-none-elf/lib/pic\libg.a(lib_a-malign.o)
 .comment       0x0000000000000000       0x23 c:/devkitpro/devkita64/bin/../lib/gcc/aarch64-none-elf/9.2.0/../../../../aarch64-none-elf/lib/pic\libg.a(lib_a-malign.o)
 .text          0x0000000000000000        0x0 c:/devkitpro/devkita64/bin/../lib/gcc/aarch64-none-elf/9.2.0/../../../../aarch64-none-elf/lib/pic\libg.a(lib_a-malignr.o)
 .data          0x0000000000000000        0x0 c:/devkitpro/devkita64/bin/../lib/gcc/aarch64-none-elf/9.2.0/../../../../aarch64-none-elf/lib/pic\libg.a(lib_a-malignr.o)
 .bss           0x0000000000000000        0x0 c:/devkitpro/devkita64/bin/../lib/gcc/aarch64-none-elf/9.2.0/../../../../aarch64-none-elf/lib/pic\libg.a(lib_a-malignr.o)
 .comment       0x0000000000000000       0x23 c:/devkitpro/devkita64/bin/../lib/gcc/aarch64-none-elf/9.2.0/../../../../aarch64-none-elf/lib/pic\libg.a(lib_a-malignr.o)
 .text          0x0000000000000000        0x0 c:/devkitpro/devkita64/bin/../lib/gcc/aarch64-none-elf/9.2.0/../../../../aarch64-none-elf/lib/pic\libg.a(lib_a-malloc.o)
 .data          0x0000000000000000        0x0 c:/devkitpro/devkita64/bin/../lib/gcc/aarch64-none-elf/9.2.0/../../../../aarch64-none-elf/lib/pic\libg.a(lib_a-malloc.o)
 .bss           0x0000000000000000        0x0 c:/devkitpro/devkita64/bin/../lib/gcc/aarch64-none-elf/9.2.0/../../../../aarch64-none-elf/lib/pic\libg.a(lib_a-malloc.o)
 .comment       0x0000000000000000       0x23 c:/devkitpro/devkita64/bin/../lib/gcc/aarch64-none-elf/9.2.0/../../../../aarch64-none-elf/lib/pic\libg.a(lib_a-malloc.o)
 .text          0x0000000000000000        0x0 c:/devkitpro/devkita64/bin/../lib/gcc/aarch64-none-elf/9.2.0/../../../../aarch64-none-elf/lib/pic\libg.a(lib_a-mallocr.o)
 .data          0x0000000000000000        0x0 c:/devkitpro/devkita64/bin/../lib/gcc/aarch64-none-elf/9.2.0/../../../../aarch64-none-elf/lib/pic\libg.a(lib_a-mallocr.o)
 .bss           0x0000000000000000        0x0 c:/devkitpro/devkita64/bin/../lib/gcc/aarch64-none-elf/9.2.0/../../../../aarch64-none-elf/lib/pic\libg.a(lib_a-mallocr.o)
 .comment       0x0000000000000000       0x23 c:/devkitpro/devkita64/bin/../lib/gcc/aarch64-none-elf/9.2.0/../../../../aarch64-none-elf/lib/pic\libg.a(lib_a-mallocr.o)
 .data          0x0000000000000000        0x0 c:/devkitpro/devkita64/bin/../lib/gcc/aarch64-none-elf/9.2.0/../../../../aarch64-none-elf/lib/pic\libg.a(lib_a-memcpy.o)
 .bss           0x0000000000000000        0x0 c:/devkitpro/devkita64/bin/../lib/gcc/aarch64-none-elf/9.2.0/../../../../aarch64-none-elf/lib/pic\libg.a(lib_a-memcpy.o)
 .data          0x0000000000000000        0x0 c:/devkitpro/devkita64/bin/../lib/gcc/aarch64-none-elf/9.2.0/../../../../aarch64-none-elf/lib/pic\libg.a(lib_a-memset.o)
 .bss           0x0000000000000000        0x0 c:/devkitpro/devkita64/bin/../lib/gcc/aarch64-none-elf/9.2.0/../../../../aarch64-none-elf/lib/pic\libg.a(lib_a-memset.o)
 .text          0x0000000000000000        0x0 c:/devkitpro/devkita64/bin/../lib/gcc/aarch64-none-elf/9.2.0/../../../../aarch64-none-elf/lib/pic\libg.a(lib_a-mlock.o)
 .data          0x0000000000000000        0x0 c:/devkitpro/devkita64/bin/../lib/gcc/aarch64-none-elf/9.2.0/../../../../aarch64-none-elf/lib/pic\libg.a(lib_a-mlock.o)
 .bss           0x0000000000000000        0x0 c:/devkitpro/devkita64/bin/../lib/gcc/aarch64-none-elf/9.2.0/../../../../aarch64-none-elf/lib/pic\libg.a(lib_a-mlock.o)
 .comment       0x0000000000000000       0x23 c:/devkitpro/devkita64/bin/../lib/gcc/aarch64-none-elf/9.2.0/../../../../aarch64-none-elf/lib/pic\libg.a(lib_a-mlock.o)
 .text          0x0000000000000000        0x0 c:/devkitpro/devkita64/bin/../lib/gcc/aarch64-none-elf/9.2.0/../../../../aarch64-none-elf/lib/pic\libg.a(lib_a-setenv.o)
 .data          0x0000000000000000        0x0 c:/devkitpro/devkita64/bin/../lib/gcc/aarch64-none-elf/9.2.0/../../../../aarch64-none-elf/lib/pic\libg.a(lib_a-setenv.o)
 .bss           0x0000000000000000        0x0 c:/devkitpro/devkita64/bin/../lib/gcc/aarch64-none-elf/9.2.0/../../../../aarch64-none-elf/lib/pic\libg.a(lib_a-setenv.o)
 .comment       0x0000000000000000       0x23 c:/devkitpro/devkita64/bin/../lib/gcc/aarch64-none-elf/9.2.0/../../../../aarch64-none-elf/lib/pic\libg.a(lib_a-setenv.o)
 .text          0x0000000000000000        0x0 c:/devkitpro/devkita64/bin/../lib/gcc/aarch64-none-elf/9.2.0/../../../../aarch64-none-elf/lib/pic\libg.a(lib_a-setenv_r.o)
 .data          0x0000000000000000        0x0 c:/devkitpro/devkita64/bin/../lib/gcc/aarch64-none-elf/9.2.0/../../../../aarch64-none-elf/lib/pic\libg.a(lib_a-setenv_r.o)
 .bss           0x0000000000000000        0x0 c:/devkitpro/devkita64/bin/../lib/gcc/aarch64-none-elf/9.2.0/../../../../aarch64-none-elf/lib/pic\libg.a(lib_a-setenv_r.o)
 .comment       0x0000000000000000       0x23 c:/devkitpro/devkita64/bin/../lib/gcc/aarch64-none-elf/9.2.0/../../../../aarch64-none-elf/lib/pic\libg.a(lib_a-setenv_r.o)
 .data          0x0000000000000000        0x0 c:/devkitpro/devkita64/bin/../lib/gcc/aarch64-none-elf/9.2.0/../../../../aarch64-none-elf/lib/pic\libg.a(lib_a-strchr.o)
 .bss           0x0000000000000000        0x0 c:/devkitpro/devkita64/bin/../lib/gcc/aarch64-none-elf/9.2.0/../../../../aarch64-none-elf/lib/pic\libg.a(lib_a-strchr.o)
 .data          0x0000000000000000        0x0 c:/devkitpro/devkita64/bin/../lib/gcc/aarch64-none-elf/9.2.0/../../../../aarch64-none-elf/lib/pic\libg.a(lib_a-strcpy.o)
 .bss           0x0000000000000000        0x0 c:/devkitpro/devkita64/bin/../lib/gcc/aarch64-none-elf/9.2.0/../../../../aarch64-none-elf/lib/pic\libg.a(lib_a-strcpy.o)
 .data          0x0000000000000000        0x0 c:/devkitpro/devkita64/bin/../lib/gcc/aarch64-none-elf/9.2.0/../../../../aarch64-none-elf/lib/pic\libg.a(lib_a-strlen.o)
 .bss           0x0000000000000000        0x0 c:/devkitpro/devkita64/bin/../lib/gcc/aarch64-none-elf/9.2.0/../../../../aarch64-none-elf/lib/pic\libg.a(lib_a-strlen.o)
 .text          0x0000000000000000        0x0 c:/devkitpro/devkita64/bin/../lib/gcc/aarch64-none-elf/9.2.0/../../../../aarch64-none-elf/lib/pic\libg.a(lib_a-strncat.o)
 .data          0x0000000000000000        0x0 c:/devkitpro/devkita64/bin/../lib/gcc/aarch64-none-elf/9.2.0/../../../../aarch64-none-elf/lib/pic\libg.a(lib_a-strncat.o)
 .bss           0x0000000000000000        0x0 c:/devkitpro/devkita64/bin/../lib/gcc/aarch64-none-elf/9.2.0/../../../../aarch64-none-elf/lib/pic\libg.a(lib_a-strncat.o)
 .comment       0x0000000000000000       0x23 c:/devkitpro/devkita64/bin/../lib/gcc/aarch64-none-elf/9.2.0/../../../../aarch64-none-elf/lib/pic\libg.a(lib_a-strncat.o)
 .data          0x0000000000000000        0x0 c:/devkitpro/devkita64/bin/../lib/gcc/aarch64-none-elf/9.2.0/../../../../aarch64-none-elf/lib/pic\libg.a(lib_a-strncmp.o)
 .bss           0x0000000000000000        0x0 c:/devkitpro/devkita64/bin/../lib/gcc/aarch64-none-elf/9.2.0/../../../../aarch64-none-elf/lib/pic\libg.a(lib_a-strncmp.o)
 .text          0x0000000000000000        0x0 c:/devkitpro/devkita64/bin/../lib/gcc/aarch64-none-elf/9.2.0/../../../../aarch64-none-elf/lib/pic\libg.a(lib_a-strncpy.o)
 .data          0x0000000000000000        0x0 c:/devkitpro/devkita64/bin/../lib/gcc/aarch64-none-elf/9.2.0/../../../../aarch64-none-elf/lib/pic\libg.a(lib_a-strncpy.o)
 .bss           0x0000000000000000        0x0 c:/devkitpro/devkita64/bin/../lib/gcc/aarch64-none-elf/9.2.0/../../../../aarch64-none-elf/lib/pic\libg.a(lib_a-strncpy.o)
 .comment       0x0000000000000000       0x23 c:/devkitpro/devkita64/bin/../lib/gcc/aarch64-none-elf/9.2.0/../../../../aarch64-none-elf/lib/pic\libg.a(lib_a-strncpy.o)
 .data          0x0000000000000000        0x0 c:/devkitpro/devkita64/bin/../lib/gcc/aarch64-none-elf/9.2.0/../../../../aarch64-none-elf/lib/pic\libg.a(lib_a-strnlen.o)
 .bss           0x0000000000000000        0x0 c:/devkitpro/devkita64/bin/../lib/gcc/aarch64-none-elf/9.2.0/../../../../aarch64-none-elf/lib/pic\libg.a(lib_a-strnlen.o)
 .text          0x0000000000000000        0x0 c:/devkitpro/devkita64/bin/../lib/gcc/aarch64-none-elf/9.2.0/../../../../aarch64-none-elf/lib/pic\libg.a(lib_a-toupper.o)
 .data          0x0000000000000000        0x0 c:/devkitpro/devkita64/bin/../lib/gcc/aarch64-none-elf/9.2.0/../../../../aarch64-none-elf/lib/pic\libg.a(lib_a-toupper.o)
 .bss           0x0000000000000000        0x0 c:/devkitpro/devkita64/bin/../lib/gcc/aarch64-none-elf/9.2.0/../../../../aarch64-none-elf/lib/pic\libg.a(lib_a-toupper.o)
 .comment       0x0000000000000000       0x23 c:/devkitpro/devkita64/bin/../lib/gcc/aarch64-none-elf/9.2.0/../../../../aarch64-none-elf/lib/pic\libg.a(lib_a-toupper.o)
 .text          0x0000000000000000        0x0 c:/devkitpro/devkita64/bin/../lib/gcc/aarch64-none-elf/9.2.0/../../../../aarch64-none-elf/lib/pic\libg.a(lib_a-vsnprintf.o)
 .data          0x0000000000000000        0x0 c:/devkitpro/devkita64/bin/../lib/gcc/aarch64-none-elf/9.2.0/../../../../aarch64-none-elf/lib/pic\libg.a(lib_a-vsnprintf.o)
 .bss           0x0000000000000000        0x0 c:/devkitpro/devkita64/bin/../lib/gcc/aarch64-none-elf/9.2.0/../../../../aarch64-none-elf/lib/pic\libg.a(lib_a-vsnprintf.o)
 .comment       0x0000000000000000       0x23 c:/devkitpro/devkita64/bin/../lib/gcc/aarch64-none-elf/9.2.0/../../../../aarch64-none-elf/lib/pic\libg.a(lib_a-vsnprintf.o)
 .text          0x0000000000000000        0x0 c:/devkitpro/devkita64/bin/../lib/gcc/aarch64-none-elf/9.2.0/../../../../aarch64-none-elf/lib/pic\libg.a(lib_a-__call_atexit.o)
 .data          0x0000000000000000        0x0 c:/devkitpro/devkita64/bin/../lib/gcc/aarch64-none-elf/9.2.0/../../../../aarch64-none-elf/lib/pic\libg.a(lib_a-__call_atexit.o)
 .bss           0x0000000000000000        0x0 c:/devkitpro/devkita64/bin/../lib/gcc/aarch64-none-elf/9.2.0/../../../../aarch64-none-elf/lib/pic\libg.a(lib_a-__call_atexit.o)
 .comment       0x0000000000000000       0x23 c:/devkitpro/devkita64/bin/../lib/gcc/aarch64-none-elf/9.2.0/../../../../aarch64-none-elf/lib/pic\libg.a(lib_a-__call_atexit.o)
 .text          0x0000000000000000        0x0 c:/devkitpro/devkita64/bin/../lib/gcc/aarch64-none-elf/9.2.0/../../../../aarch64-none-elf/lib/pic\libg.a(lib_a-environ.o)
 .data          0x0000000000000000        0x0 c:/devkitpro/devkita64/bin/../lib/gcc/aarch64-none-elf/9.2.0/../../../../aarch64-none-elf/lib/pic\libg.a(lib_a-environ.o)
 .bss           0x0000000000000000        0x0 c:/devkitpro/devkita64/bin/../lib/gcc/aarch64-none-elf/9.2.0/../../../../aarch64-none-elf/lib/pic\libg.a(lib_a-environ.o)
 .comment       0x0000000000000000       0x23 c:/devkitpro/devkita64/bin/../lib/gcc/aarch64-none-elf/9.2.0/../../../../aarch64-none-elf/lib/pic\libg.a(lib_a-environ.o)
 .text          0x0000000000000000        0x0 c:/devkitpro/devkita64/bin/../lib/gcc/aarch64-none-elf/9.2.0/../../../../aarch64-none-elf/lib/pic\libg.a(lib_a-envlock.o)
 .data          0x0000000000000000        0x0 c:/devkitpro/devkita64/bin/../lib/gcc/aarch64-none-elf/9.2.0/../../../../aarch64-none-elf/lib/pic\libg.a(lib_a-envlock.o)
 .bss           0x0000000000000000        0x0 c:/devkitpro/devkita64/bin/../lib/gcc/aarch64-none-elf/9.2.0/../../../../aarch64-none-elf/lib/pic\libg.a(lib_a-envlock.o)
 .comment       0x0000000000000000       0x23 c:/devkitpro/devkita64/bin/../lib/gcc/aarch64-none-elf/9.2.0/../../../../aarch64-none-elf/lib/pic\libg.a(lib_a-envlock.o)
 .text          0x0000000000000000        0x0 c:/devkitpro/devkita64/bin/../lib/gcc/aarch64-none-elf/9.2.0/../../../../aarch64-none-elf/lib/pic\libg.a(lib_a-freer.o)
 .data          0x0000000000000000        0x0 c:/devkitpro/devkita64/bin/../lib/gcc/aarch64-none-elf/9.2.0/../../../../aarch64-none-elf/lib/pic\libg.a(lib_a-freer.o)
 .bss           0x0000000000000000        0x0 c:/devkitpro/devkita64/bin/../lib/gcc/aarch64-none-elf/9.2.0/../../../../aarch64-none-elf/lib/pic\libg.a(lib_a-freer.o)
 .comment       0x0000000000000000       0x23 c:/devkitpro/devkita64/bin/../lib/gcc/aarch64-none-elf/9.2.0/../../../../aarch64-none-elf/lib/pic\libg.a(lib_a-freer.o)
 .text          0x0000000000000000        0x0 c:/devkitpro/devkita64/bin/../lib/gcc/aarch64-none-elf/9.2.0/../../../../aarch64-none-elf/lib/pic\libg.a(lib_a-getenv_r.o)
 .data          0x0000000000000000        0x0 c:/devkitpro/devkita64/bin/../lib/gcc/aarch64-none-elf/9.2.0/../../../../aarch64-none-elf/lib/pic\libg.a(lib_a-getenv_r.o)
 .bss           0x0000000000000000        0x0 c:/devkitpro/devkita64/bin/../lib/gcc/aarch64-none-elf/9.2.0/../../../../aarch64-none-elf/lib/pic\libg.a(lib_a-getenv_r.o)
 .comment       0x0000000000000000       0x23 c:/devkitpro/devkita64/bin/../lib/gcc/aarch64-none-elf/9.2.0/../../../../aarch64-none-elf/lib/pic\libg.a(lib_a-getenv_r.o)
 .text          0x0000000000000000        0x0 c:/devkitpro/devkita64/bin/../lib/gcc/aarch64-none-elf/9.2.0/../../../../aarch64-none-elf/lib/pic\libg.a(lib_a-reallocr.o)
 .data          0x0000000000000000        0x0 c:/devkitpro/devkita64/bin/../lib/gcc/aarch64-none-elf/9.2.0/../../../../aarch64-none-elf/lib/pic\libg.a(lib_a-reallocr.o)
 .bss           0x0000000000000000        0x0 c:/devkitpro/devkita64/bin/../lib/gcc/aarch64-none-elf/9.2.0/../../../../aarch64-none-elf/lib/pic\libg.a(lib_a-reallocr.o)
 .comment       0x0000000000000000       0x23 c:/devkitpro/devkita64/bin/../lib/gcc/aarch64-none-elf/9.2.0/../../../../aarch64-none-elf/lib/pic\libg.a(lib_a-reallocr.o)
 .text          0x0000000000000000        0x0 c:/devkitpro/devkita64/bin/../lib/gcc/aarch64-none-elf/9.2.0/../../../../aarch64-none-elf/lib/pic\libg.a(lib_a-svfprintf.o)
 .data          0x0000000000000000        0x0 c:/devkitpro/devkita64/bin/../lib/gcc/aarch64-none-elf/9.2.0/../../../../aarch64-none-elf/lib/pic\libg.a(lib_a-svfprintf.o)
 .bss           0x0000000000000000        0x0 c:/devkitpro/devkita64/bin/../lib/gcc/aarch64-none-elf/9.2.0/../../../../aarch64-none-elf/lib/pic\libg.a(lib_a-svfprintf.o)
 .comment       0x0000000000000000       0x23 c:/devkitpro/devkita64/bin/../lib/gcc/aarch64-none-elf/9.2.0/../../../../aarch64-none-elf/lib/pic\libg.a(lib_a-svfprintf.o)
 .text          0x0000000000000000        0x0 c:/devkitpro/devkita64/bin/../lib/gcc/aarch64-none-elf/9.2.0/../../../../aarch64-none-elf/lib/pic\libg.a(lib_a-wcrtomb.o)
 .data          0x0000000000000000        0x0 c:/devkitpro/devkita64/bin/../lib/gcc/aarch64-none-elf/9.2.0/../../../../aarch64-none-elf/lib/pic\libg.a(lib_a-wcrtomb.o)
 .bss           0x0000000000000000        0x0 c:/devkitpro/devkita64/bin/../lib/gcc/aarch64-none-elf/9.2.0/../../../../aarch64-none-elf/lib/pic\libg.a(lib_a-wcrtomb.o)
 .comment       0x0000000000000000       0x23 c:/devkitpro/devkita64/bin/../lib/gcc/aarch64-none-elf/9.2.0/../../../../aarch64-none-elf/lib/pic\libg.a(lib_a-wcrtomb.o)
 .text          0x0000000000000000        0x0 c:/devkitpro/devkita64/bin/../lib/gcc/aarch64-none-elf/9.2.0/../../../../aarch64-none-elf/lib/pic\libg.a(lib_a-wcsrtombs.o)
 .data          0x0000000000000000        0x0 c:/devkitpro/devkita64/bin/../lib/gcc/aarch64-none-elf/9.2.0/../../../../aarch64-none-elf/lib/pic\libg.a(lib_a-wcsrtombs.o)
 .bss           0x0000000000000000        0x0 c:/devkitpro/devkita64/bin/../lib/gcc/aarch64-none-elf/9.2.0/../../../../aarch64-none-elf/lib/pic\libg.a(lib_a-wcsrtombs.o)
 .comment       0x0000000000000000       0x23 c:/devkitpro/devkita64/bin/../lib/gcc/aarch64-none-elf/9.2.0/../../../../aarch64-none-elf/lib/pic\libg.a(lib_a-wcsrtombs.o)
 .text          0x0000000000000000        0x0 c:/devkitpro/devkita64/bin/../lib/gcc/aarch64-none-elf/9.2.0/../../../../aarch64-none-elf/lib/pic\libg.a(lib_a-dtoa.o)
 .data          0x0000000000000000        0x0 c:/devkitpro/devkita64/bin/../lib/gcc/aarch64-none-elf/9.2.0/../../../../aarch64-none-elf/lib/pic\libg.a(lib_a-dtoa.o)
 .bss           0x0000000000000000        0x0 c:/devkitpro/devkita64/bin/../lib/gcc/aarch64-none-elf/9.2.0/../../../../aarch64-none-elf/lib/pic\libg.a(lib_a-dtoa.o)
 .comment       0x0000000000000000       0x23 c:/devkitpro/devkita64/bin/../lib/gcc/aarch64-none-elf/9.2.0/../../../../aarch64-none-elf/lib/pic\libg.a(lib_a-dtoa.o)
 .text          0x0000000000000000        0x0 c:/devkitpro/devkita64/bin/../lib/gcc/aarch64-none-elf/9.2.0/../../../../aarch64-none-elf/lib/pic\libg.a(lib_a-localeconv.o)
 .data          0x0000000000000000        0x0 c:/devkitpro/devkita64/bin/../lib/gcc/aarch64-none-elf/9.2.0/../../../../aarch64-none-elf/lib/pic\libg.a(lib_a-localeconv.o)
 .bss           0x0000000000000000        0x0 c:/devkitpro/devkita64/bin/../lib/gcc/aarch64-none-elf/9.2.0/../../../../aarch64-none-elf/lib/pic\libg.a(lib_a-localeconv.o)
 .comment       0x0000000000000000       0x23 c:/devkitpro/devkita64/bin/../lib/gcc/aarch64-none-elf/9.2.0/../../../../aarch64-none-elf/lib/pic\libg.a(lib_a-localeconv.o)
 .text          0x0000000000000000        0x0 c:/devkitpro/devkita64/bin/../lib/gcc/aarch64-none-elf/9.2.0/../../../../aarch64-none-elf/lib/pic\libg.a(lib_a-locale.o)
 .data          0x0000000000000000        0x0 c:/devkitpro/devkita64/bin/../lib/gcc/aarch64-none-elf/9.2.0/../../../../aarch64-none-elf/lib/pic\libg.a(lib_a-locale.o)
 .bss           0x0000000000000000        0x0 c:/devkitpro/devkita64/bin/../lib/gcc/aarch64-none-elf/9.2.0/../../../../aarch64-none-elf/lib/pic\libg.a(lib_a-locale.o)
 .comment       0x0000000000000000       0x23 c:/devkitpro/devkita64/bin/../lib/gcc/aarch64-none-elf/9.2.0/../../../../aarch64-none-elf/lib/pic\libg.a(lib_a-locale.o)
 .text          0x0000000000000000        0x0 c:/devkitpro/devkita64/bin/../lib/gcc/aarch64-none-elf/9.2.0/../../../../aarch64-none-elf/lib/pic\libg.a(lib_a-mbtowc_r.o)
 .data          0x0000000000000000        0x0 c:/devkitpro/devkita64/bin/../lib/gcc/aarch64-none-elf/9.2.0/../../../../aarch64-none-elf/lib/pic\libg.a(lib_a-mbtowc_r.o)
 .bss           0x0000000000000000        0x0 c:/devkitpro/devkita64/bin/../lib/gcc/aarch64-none-elf/9.2.0/../../../../aarch64-none-elf/lib/pic\libg.a(lib_a-mbtowc_r.o)
 .comment       0x0000000000000000       0x23 c:/devkitpro/devkita64/bin/../lib/gcc/aarch64-none-elf/9.2.0/../../../../aarch64-none-elf/lib/pic\libg.a(lib_a-mbtowc_r.o)
 .data          0x0000000000000000        0x0 c:/devkitpro/devkita64/bin/../lib/gcc/aarch64-none-elf/9.2.0/../../../../aarch64-none-elf/lib/pic\libg.a(lib_a-memchr.o)
 .bss           0x0000000000000000        0x0 c:/devkitpro/devkita64/bin/../lib/gcc/aarch64-none-elf/9.2.0/../../../../aarch64-none-elf/lib/pic\libg.a(lib_a-memchr.o)
 .data          0x0000000000000000        0x0 c:/devkitpro/devkita64/bin/../lib/gcc/aarch64-none-elf/9.2.0/../../../../aarch64-none-elf/lib/pic\libg.a(lib_a-memmove.o)
 .bss           0x0000000000000000        0x0 c:/devkitpro/devkita64/bin/../lib/gcc/aarch64-none-elf/9.2.0/../../../../aarch64-none-elf/lib/pic\libg.a(lib_a-memmove.o)
 .text          0x0000000000000000        0x0 c:/devkitpro/devkita64/bin/../lib/gcc/aarch64-none-elf/9.2.0/../../../../aarch64-none-elf/lib/pic\libg.a(lib_a-mprec.o)
 .data          0x0000000000000000        0x0 c:/devkitpro/devkita64/bin/../lib/gcc/aarch64-none-elf/9.2.0/../../../../aarch64-none-elf/lib/pic\libg.a(lib_a-mprec.o)
 .bss           0x0000000000000000        0x0 c:/devkitpro/devkita64/bin/../lib/gcc/aarch64-none-elf/9.2.0/../../../../aarch64-none-elf/lib/pic\libg.a(lib_a-mprec.o)
 .comment       0x0000000000000000       0x23 c:/devkitpro/devkita64/bin/../lib/gcc/aarch64-none-elf/9.2.0/../../../../aarch64-none-elf/lib/pic\libg.a(lib_a-mprec.o)
 .text          0x0000000000000000        0x0 c:/devkitpro/devkita64/bin/../lib/gcc/aarch64-none-elf/9.2.0/../../../../aarch64-none-elf/lib/pic\libg.a(lib_a-s_frexp.o)
 .data          0x0000000000000000        0x0 c:/devkitpro/devkita64/bin/../lib/gcc/aarch64-none-elf/9.2.0/../../../../aarch64-none-elf/lib/pic\libg.a(lib_a-s_frexp.o)
 .bss           0x0000000000000000        0x0 c:/devkitpro/devkita64/bin/../lib/gcc/aarch64-none-elf/9.2.0/../../../../aarch64-none-elf/lib/pic\libg.a(lib_a-s_frexp.o)
 .comment       0x0000000000000000       0x23 c:/devkitpro/devkita64/bin/../lib/gcc/aarch64-none-elf/9.2.0/../../../../aarch64-none-elf/lib/pic\libg.a(lib_a-s_frexp.o)
 .text          0x0000000000000000        0x0 c:/devkitpro/devkita64/bin/../lib/gcc/aarch64-none-elf/9.2.0/../../../../aarch64-none-elf/lib/pic\libg.a(lib_a-strcasecmp.o)
 .data          0x0000000000000000        0x0 c:/devkitpro/devkita64/bin/../lib/gcc/aarch64-none-elf/9.2.0/../../../../aarch64-none-elf/lib/pic\libg.a(lib_a-strcasecmp.o)
 .bss           0x0000000000000000        0x0 c:/devkitpro/devkita64/bin/../lib/gcc/aarch64-none-elf/9.2.0/../../../../aarch64-none-elf/lib/pic\libg.a(lib_a-strcasecmp.o)
 .comment       0x0000000000000000       0x23 c:/devkitpro/devkita64/bin/../lib/gcc/aarch64-none-elf/9.2.0/../../../../aarch64-none-elf/lib/pic\libg.a(lib_a-strcasecmp.o)
 .text          0x0000000000000000        0x0 c:/devkitpro/devkita64/bin/../lib/gcc/aarch64-none-elf/9.2.0/../../../../aarch64-none-elf/lib/pic\libg.a(lib_a-strcat.o)
 .data          0x0000000000000000        0x0 c:/devkitpro/devkita64/bin/../lib/gcc/aarch64-none-elf/9.2.0/../../../../aarch64-none-elf/lib/pic\libg.a(lib_a-strcat.o)
 .bss           0x0000000000000000        0x0 c:/devkitpro/devkita64/bin/../lib/gcc/aarch64-none-elf/9.2.0/../../../../aarch64-none-elf/lib/pic\libg.a(lib_a-strcat.o)
 .comment       0x0000000000000000       0x23 c:/devkitpro/devkita64/bin/../lib/gcc/aarch64-none-elf/9.2.0/../../../../aarch64-none-elf/lib/pic\libg.a(lib_a-strcat.o)
 .data          0x0000000000000000        0x0 c:/devkitpro/devkita64/bin/../lib/gcc/aarch64-none-elf/9.2.0/../../../../aarch64-none-elf/lib/pic\libg.a(lib_a-strcmp.o)
 .bss           0x0000000000000000        0x0 c:/devkitpro/devkita64/bin/../lib/gcc/aarch64-none-elf/9.2.0/../../../../aarch64-none-elf/lib/pic\libg.a(lib_a-strcmp.o)
 .text          0x0000000000000000        0x0 c:/devkitpro/devkita64/bin/../lib/gcc/aarch64-none-elf/9.2.0/../../../../aarch64-none-elf/lib/pic\libg.a(lib_a-strlcpy.o)
 .data          0x0000000000000000        0x0 c:/devkitpro/devkita64/bin/../lib/gcc/aarch64-none-elf/9.2.0/../../../../aarch64-none-elf/lib/pic\libg.a(lib_a-strlcpy.o)
 .bss           0x0000000000000000        0x0 c:/devkitpro/devkita64/bin/../lib/gcc/aarch64-none-elf/9.2.0/../../../../aarch64-none-elf/lib/pic\libg.a(lib_a-strlcpy.o)
 .comment       0x0000000000000000       0x23 c:/devkitpro/devkita64/bin/../lib/gcc/aarch64-none-elf/9.2.0/../../../../aarch64-none-elf/lib/pic\libg.a(lib_a-strlcpy.o)
 .text          0x0000000000000000        0x0 c:/devkitpro/devkita64/bin/../lib/gcc/aarch64-none-elf/9.2.0/../../../../aarch64-none-elf/lib/pic\libg.a(lib_a-strncasecmp.o)
 .data          0x0000000000000000        0x0 c:/devkitpro/devkita64/bin/../lib/gcc/aarch64-none-elf/9.2.0/../../../../aarch64-none-elf/lib/pic\libg.a(lib_a-strncasecmp.o)
 .bss           0x0000000000000000        0x0 c:/devkitpro/devkita64/bin/../lib/gcc/aarch64-none-elf/9.2.0/../../../../aarch64-none-elf/lib/pic\libg.a(lib_a-strncasecmp.o)
 .comment       0x0000000000000000       0x23 c:/devkitpro/devkita64/bin/../lib/gcc/aarch64-none-elf/9.2.0/../../../../aarch64-none-elf/lib/pic\libg.a(lib_a-strncasecmp.o)
 .text          0x0000000000000000        0x0 c:/devkitpro/devkita64/bin/../lib/gcc/aarch64-none-elf/9.2.0/../../../../aarch64-none-elf/lib/pic\libg.a(lib_a-strtol.o)
 .data          0x0000000000000000        0x0 c:/devkitpro/devkita64/bin/../lib/gcc/aarch64-none-elf/9.2.0/../../../../aarch64-none-elf/lib/pic\libg.a(lib_a-strtol.o)
 .bss           0x0000000000000000        0x0 c:/devkitpro/devkita64/bin/../lib/gcc/aarch64-none-elf/9.2.0/../../../../aarch64-none-elf/lib/pic\libg.a(lib_a-strtol.o)
 .comment       0x0000000000000000       0x23 c:/devkitpro/devkita64/bin/../lib/gcc/aarch64-none-elf/9.2.0/../../../../aarch64-none-elf/lib/pic\libg.a(lib_a-strtol.o)
 .text          0x0000000000000000        0x0 c:/devkitpro/devkita64/bin/../lib/gcc/aarch64-none-elf/9.2.0/../../../../aarch64-none-elf/lib/pic\libg.a(lib_a-svfiprintf.o)
 .data          0x0000000000000000        0x0 c:/devkitpro/devkita64/bin/../lib/gcc/aarch64-none-elf/9.2.0/../../../../aarch64-none-elf/lib/pic\libg.a(lib_a-svfiprintf.o)
 .bss           0x0000000000000000        0x0 c:/devkitpro/devkita64/bin/../lib/gcc/aarch64-none-elf/9.2.0/../../../../aarch64-none-elf/lib/pic\libg.a(lib_a-svfiprintf.o)
 .comment       0x0000000000000000       0x23 c:/devkitpro/devkita64/bin/../lib/gcc/aarch64-none-elf/9.2.0/../../../../aarch64-none-elf/lib/pic\libg.a(lib_a-svfiprintf.o)
 .text          0x0000000000000000        0x0 c:/devkitpro/devkita64/bin/../lib/gcc/aarch64-none-elf/9.2.0/../../../../aarch64-none-elf/lib/pic\libg.a(lib_a-wcsnrtombs.o)
 .data          0x0000000000000000        0x0 c:/devkitpro/devkita64/bin/../lib/gcc/aarch64-none-elf/9.2.0/../../../../aarch64-none-elf/lib/pic\libg.a(lib_a-wcsnrtombs.o)
 .bss           0x0000000000000000        0x0 c:/devkitpro/devkita64/bin/../lib/gcc/aarch64-none-elf/9.2.0/../../../../aarch64-none-elf/lib/pic\libg.a(lib_a-wcsnrtombs.o)
 .comment       0x0000000000000000       0x23 c:/devkitpro/devkita64/bin/../lib/gcc/aarch64-none-elf/9.2.0/../../../../aarch64-none-elf/lib/pic\libg.a(lib_a-wcsnrtombs.o)
 .text          0x0000000000000000        0x0 c:/devkitpro/devkita64/bin/../lib/gcc/aarch64-none-elf/9.2.0/../../../../aarch64-none-elf/lib/pic\libg.a(lib_a-wctomb_r.o)
 .data          0x0000000000000000        0x0 c:/devkitpro/devkita64/bin/../lib/gcc/aarch64-none-elf/9.2.0/../../../../aarch64-none-elf/lib/pic\libg.a(lib_a-wctomb_r.o)
 .bss           0x0000000000000000        0x0 c:/devkitpro/devkita64/bin/../lib/gcc/aarch64-none-elf/9.2.0/../../../../aarch64-none-elf/lib/pic\libg.a(lib_a-wctomb_r.o)
 .comment       0x0000000000000000       0x23 c:/devkitpro/devkita64/bin/../lib/gcc/aarch64-none-elf/9.2.0/../../../../aarch64-none-elf/lib/pic\libg.a(lib_a-wctomb_r.o)
 .text          0x0000000000000000        0x0 c:/devkitpro/devkita64/bin/../lib/gcc/aarch64-none-elf/9.2.0/../../../../aarch64-none-elf/lib/pic\libg.a(lib_a-callocr.o)
 .data          0x0000000000000000        0x0 c:/devkitpro/devkita64/bin/../lib/gcc/aarch64-none-elf/9.2.0/../../../../aarch64-none-elf/lib/pic\libg.a(lib_a-callocr.o)
 .bss           0x0000000000000000        0x0 c:/devkitpro/devkita64/bin/../lib/gcc/aarch64-none-elf/9.2.0/../../../../aarch64-none-elf/lib/pic\libg.a(lib_a-callocr.o)
 .comment       0x0000000000000000       0x23 c:/devkitpro/devkita64/bin/../lib/gcc/aarch64-none-elf/9.2.0/../../../../aarch64-none-elf/lib/pic\libg.a(lib_a-callocr.o)
 .text          0x0000000000000000        0x0 c:/devkitpro/devkita64/bin/../lib/gcc/aarch64-none-elf/9.2.0/../../../../aarch64-none-elf/lib/pic\libsysbase.a(iosupport.o)
 .data          0x0000000000000000        0x0 c:/devkitpro/devkita64/bin/../lib/gcc/aarch64-none-elf/9.2.0/../../../../aarch64-none-elf/lib/pic\libsysbase.a(iosupport.o)
 .bss           0x0000000000000000        0x0 c:/devkitpro/devkita64/bin/../lib/gcc/aarch64-none-elf/9.2.0/../../../../aarch64-none-elf/lib/pic\libsysbase.a(iosupport.o)
 .comment       0x0000000000000000       0x23 c:/devkitpro/devkita64/bin/../lib/gcc/aarch64-none-elf/9.2.0/../../../../aarch64-none-elf/lib/pic\libsysbase.a(iosupport.o)
 .text          0x0000000000000000        0x0 c:/devkitpro/devkita64/bin/../lib/gcc/aarch64-none-elf/9.2.0/../../../../aarch64-none-elf/lib/pic\libsysbase.a(sbrk.o)
 .data          0x0000000000000000        0x0 c:/devkitpro/devkita64/bin/../lib/gcc/aarch64-none-elf/9.2.0/../../../../aarch64-none-elf/lib/pic\libsysbase.a(sbrk.o)
 .bss           0x0000000000000000        0x0 c:/devkitpro/devkita64/bin/../lib/gcc/aarch64-none-elf/9.2.0/../../../../aarch64-none-elf/lib/pic\libsysbase.a(sbrk.o)
 .comment       0x0000000000000000       0x23 c:/devkitpro/devkita64/bin/../lib/gcc/aarch64-none-elf/9.2.0/../../../../aarch64-none-elf/lib/pic\libsysbase.a(sbrk.o)
 .text          0x0000000000000000        0x0 c:/devkitpro/devkita64/bin/../lib/gcc/aarch64-none-elf/9.2.0/../../../../aarch64-none-elf/lib/pic\libsysbase.a(_exit.o)
 .data          0x0000000000000000        0x0 c:/devkitpro/devkita64/bin/../lib/gcc/aarch64-none-elf/9.2.0/../../../../aarch64-none-elf/lib/pic\libsysbase.a(_exit.o)
 .bss           0x0000000000000000        0x0 c:/devkitpro/devkita64/bin/../lib/gcc/aarch64-none-elf/9.2.0/../../../../aarch64-none-elf/lib/pic\libsysbase.a(_exit.o)
 .comment       0x0000000000000000       0x23 c:/devkitpro/devkita64/bin/../lib/gcc/aarch64-none-elf/9.2.0/../../../../aarch64-none-elf/lib/pic\libsysbase.a(_exit.o)
 .text          0x0000000000000000        0x0 c:/devkitpro/devkita64/bin/../lib/gcc/aarch64-none-elf/9.2.0/../../../../aarch64-none-elf/lib/pic\libsysbase.a(malloc_vars.o)
 .data          0x0000000000000000        0x0 c:/devkitpro/devkita64/bin/../lib/gcc/aarch64-none-elf/9.2.0/../../../../aarch64-none-elf/lib/pic\libsysbase.a(malloc_vars.o)
 .bss           0x0000000000000000        0x0 c:/devkitpro/devkita64/bin/../lib/gcc/aarch64-none-elf/9.2.0/../../../../aarch64-none-elf/lib/pic\libsysbase.a(malloc_vars.o)
 .comment       0x0000000000000000       0x23 c:/devkitpro/devkita64/bin/../lib/gcc/aarch64-none-elf/9.2.0/../../../../aarch64-none-elf/lib/pic\libsysbase.a(malloc_vars.o)
 .text          0x0000000000000000        0x0 c:/devkitpro/devkita64/bin/../lib/gcc/aarch64-none-elf/9.2.0/../../../../aarch64-none-elf/lib/pic\libsysbase.a(chdir.o)
 .data          0x0000000000000000        0x0 c:/devkitpro/devkita64/bin/../lib/gcc/aarch64-none-elf/9.2.0/../../../../aarch64-none-elf/lib/pic\libsysbase.a(chdir.o)
 .bss           0x0000000000000000        0x0 c:/devkitpro/devkita64/bin/../lib/gcc/aarch64-none-elf/9.2.0/../../../../aarch64-none-elf/lib/pic\libsysbase.a(chdir.o)
 .comment       0x0000000000000000       0x23 c:/devkitpro/devkita64/bin/../lib/gcc/aarch64-none-elf/9.2.0/../../../../aarch64-none-elf/lib/pic\libsysbase.a(chdir.o)
 .text          0x0000000000000000        0x0 c:/devkitpro/devkita64/bin/../lib/gcc/aarch64-none-elf/9.2.0/../../../../aarch64-none-elf/lib/pic\libsysbase.a(locks.o)
 .data          0x0000000000000000        0x0 c:/devkitpro/devkita64/bin/../lib/gcc/aarch64-none-elf/9.2.0/../../../../aarch64-none-elf/lib/pic\libsysbase.a(locks.o)
 .bss           0x0000000000000000        0x0 c:/devkitpro/devkita64/bin/../lib/gcc/aarch64-none-elf/9.2.0/../../../../aarch64-none-elf/lib/pic\libsysbase.a(locks.o)
 .comment       0x0000000000000000       0x23 c:/devkitpro/devkita64/bin/../lib/gcc/aarch64-none-elf/9.2.0/../../../../aarch64-none-elf/lib/pic\libsysbase.a(locks.o)
 .text          0x0000000000000000        0x0 c:/devkitpro/devkita64/bin/../lib/gcc/aarch64-none-elf/9.2.0/../../../../aarch64-none-elf/lib/pic\libsysbase.a(getreent.o)
 .data          0x0000000000000000        0x0 c:/devkitpro/devkita64/bin/../lib/gcc/aarch64-none-elf/9.2.0/../../../../aarch64-none-elf/lib/pic\libsysbase.a(getreent.o)
 .bss           0x0000000000000000        0x0 c:/devkitpro/devkita64/bin/../lib/gcc/aarch64-none-elf/9.2.0/../../../../aarch64-none-elf/lib/pic\libsysbase.a(getreent.o)
 .comment       0x0000000000000000       0x23 c:/devkitpro/devkita64/bin/../lib/gcc/aarch64-none-elf/9.2.0/../../../../aarch64-none-elf/lib/pic\libsysbase.a(getreent.o)
 .text          0x0000000000000000        0x0 c:/devkitpro/devkita64/bin/../lib/gcc/aarch64-none-elf/9.2.0/../../../../aarch64-none-elf/lib/pic\libsysbase.a(clocks.o)
 .data          0x0000000000000000        0x0 c:/devkitpro/devkita64/bin/../lib/gcc/aarch64-none-elf/9.2.0/../../../../aarch64-none-elf/lib/pic\libsysbase.a(clocks.o)
 .bss           0x0000000000000000        0x0 c:/devkitpro/devkita64/bin/../lib/gcc/aarch64-none-elf/9.2.0/../../../../aarch64-none-elf/lib/pic\libsysbase.a(clocks.o)
 .comment       0x0000000000000000       0x23 c:/devkitpro/devkita64/bin/../lib/gcc/aarch64-none-elf/9.2.0/../../../../aarch64-none-elf/lib/pic\libsysbase.a(clocks.o)
 .text          0x0000000000000000        0x0 c:/devkitpro/devkita64/bin/../lib/gcc/aarch64-none-elf/9.2.0/pic\libgcc.a(trunctfdf2.o)
 .data          0x0000000000000000        0x0 c:/devkitpro/devkita64/bin/../lib/gcc/aarch64-none-elf/9.2.0/pic\libgcc.a(trunctfdf2.o)
 .bss           0x0000000000000000        0x0 c:/devkitpro/devkita64/bin/../lib/gcc/aarch64-none-elf/9.2.0/pic\libgcc.a(trunctfdf2.o)
 .comment       0x0000000000000000       0x23 c:/devkitpro/devkita64/bin/../lib/gcc/aarch64-none-elf/9.2.0/pic\libgcc.a(trunctfdf2.o)
 .text          0x0000000000000000        0x0 c:/devkitpro/devkita64/bin/../lib/gcc/aarch64-none-elf/9.2.0/pic\libgcc.a(sfp-exceptions.o)
 .data          0x0000000000000000        0x0 c:/devkitpro/devkita64/bin/../lib/gcc/aarch64-none-elf/9.2.0/pic\libgcc.a(sfp-exceptions.o)
 .bss           0x0000000000000000        0x0 c:/devkitpro/devkita64/bin/../lib/gcc/aarch64-none-elf/9.2.0/pic\libgcc.a(sfp-exceptions.o)
 .comment       0x0000000000000000       0x23 c:/devkitpro/devkita64/bin/../lib/gcc/aarch64-none-elf/9.2.0/pic\libgcc.a(sfp-exceptions.o)
 .data          0x0000000000000000        0x0 c:/devkitpro/devkita64/bin/../lib/gcc/aarch64-none-elf/9.2.0/../../../../aarch64-none-elf/lib/pic\libg.a(lib_a-strrchr.o)
 .bss           0x0000000000000000        0x0 c:/devkitpro/devkita64/bin/../lib/gcc/aarch64-none-elf/9.2.0/../../../../aarch64-none-elf/lib/pic\libg.a(lib_a-strrchr.o)
 .text          0x0000000000000000        0x0 c:/devkitpro/devkita64/bin/../lib/gcc/aarch64-none-elf/9.2.0/pic/crtend.o
 .data          0x0000000000000000        0x0 c:/devkitpro/devkita64/bin/../lib/gcc/aarch64-none-elf/9.2.0/pic/crtend.o
 .bss           0x0000000000000000        0x0 c:/devkitpro/devkita64/bin/../lib/gcc/aarch64-none-elf/9.2.0/pic/crtend.o
 .comment       0x0000000000000000       0x23 c:/devkitpro/devkita64/bin/../lib/gcc/aarch64-none-elf/9.2.0/pic/crtend.o
 .text          0x0000000000000000        0x0 c:/devkitpro/devkita64/bin/../lib/gcc/aarch64-none-elf/9.2.0/pic/crtn.o
 .data          0x0000000000000000        0x0 c:/devkitpro/devkita64/bin/../lib/gcc/aarch64-none-elf/9.2.0/pic/crtn.o
 .bss           0x0000000000000000        0x0 c:/devkitpro/devkita64/bin/../lib/gcc/aarch64-none-elf/9.2.0/pic/crtn.o

Memory Configuration

Name             Origin             Length             Attributes
*default*        0x0000000000000000 0xffffffffffffffff

Linker script and memory map

                0x0000000000000000                PROVIDE (__start__ = 0x0)
                0x0000000000000000                . = __start__

.crt0           0x0000000000000000      0x158
 *(.crt0)
 .crt0          0x0000000000000000      0x158 C:/Users/oukeh/OneDrive/桌面/code-mod-example/code-mod-framework/lib/libnx_min/nx/lib\libnx_min.a(switch_crt0.o)
                0x0000000000000000                _start
                0x0000000000000120                __nx_exit
                0x0000000000000130                __nx_mod0
                0x0000000000000158                . = ALIGN (0x8)

.init           0x0000000000000158       0x38
 *(.init)
 .init          0x0000000000000158       0x18 c:/devkitpro/devkita64/bin/../lib/gcc/aarch64-none-elf/9.2.0/pic/crti.o
                0x0000000000000158                _init
 .init          0x0000000000000170       0x1c c:/devkitpro/devkita64/bin/../lib/gcc/aarch64-none-elf/9.2.0/pic/crtn.o
                0x0000000000000190                . = ALIGN (0x8)
 *fill*         0x000000000000018c        0x4 

.plt            0x0000000000000190       0xa0
 *(.plt)
 .plt           0x0000000000000190       0xa0 c:/devkitpro/devkita64/bin/../lib/gcc/aarch64-none-elf/9.2.0/pic/crti.o
 *(.iplt)
                0x0000000000000230                . = ALIGN (0x8)

.text           0x0000000000000240    0x2d110
 *(.text.unlikely .text.*_unlikely .text.unlikely.*)
 *(.text.exit .text.exit.*)
 .text.exit     0x0000000000000240       0x38 c:/devkitpro/devkita64/bin/../lib/gcc/aarch64-none-elf/9.2.0/../../../../aarch64-none-elf/lib/pic\libg.a(lib_a-exit.o)
                0x0000000000000240                exit
 *(.text.startup .text.startup.*)
 *fill*         0x0000000000000278        0x8 
 .text.startup  0x0000000000000280      0x16c main.o
                0x0000000000000280                main
 *(.text.hot .text.hot.*)
 *(.text .stub .text.* .gnu.linkonce.t.*)
 *fill*         0x00000000000003ec        0x4 
 .text.deregister_tm_clones
                0x00000000000003f0       0x30 c:/devkitpro/devkita64/bin/../lib/gcc/aarch64-none-elf/9.2.0/pic/crtbegin.o
 .text.register_tm_clones
                0x0000000000000420       0x40 c:/devkitpro/devkita64/bin/../lib/gcc/aarch64-none-elf/9.2.0/pic/crtbegin.o
 .text.__do_global_dtors_aux
                0x0000000000000460       0x48 c:/devkitpro/devkita64/bin/../lib/gcc/aarch64-none-elf/9.2.0/pic/crtbegin.o
 .text.frame_dummy
                0x00000000000004a8       0x34 c:/devkitpro/devkita64/bin/../lib/gcc/aarch64-none-elf/9.2.0/pic/crtbegin.o
 *fill*         0x00000000000004dc        0x4 
 .text          0x00000000000004e0     0x3bf0 main.o
                0x00000000000004e0                get_command_flag_cat_replace(unsigned long, int)
                0x00000000000006b0                clear_lua_stack_replace(lib::L2CAgent*)
                0x0000000000003ef0                replace_scripts(lib::L2CAgent*, unsigned char, int)
                0x0000000000003f40                sv_get_status_func(unsigned long, int, unsigned long)
                0x0000000000003f90                sv_replace_status_func(unsigned long, int, unsigned long, void*)
                0x0000000000003fd0                script_replacement()
                0x0000000000004030                __libnx_init
                0x0000000000004080                __libnx_exit
 .text          0x00000000000040d0      0xbd4 acmd_wrapper.o
                0x00000000000040d0                is_before_frame(unsigned long, float)
                0x0000000000004100                null_acmd_func(lib::L2CAgent*, void*)
                0x0000000000004110                load_module(unsigned long, unsigned long)
                0x0000000000004120                load_module_impl(unsigned long, unsigned long)
                0x0000000000004130                ACMD::ACMD()
                0x0000000000004130                ACMD::ACMD()
                0x0000000000004140                ACMD::ACMD(char const*, char const*, char const*, char const*, void (*)(ACMD*))
                0x0000000000004140                ACMD::ACMD(char const*, char const*, char const*, char const*, void (*)(ACMD*))
                0x0000000000004160                ACMD::match()
                0x00000000000041e0                ACMD::nullify_original(lib::L2CAgent*)
                0x00000000000042b0                ACMD::run(lib::L2CAgent*)
                0x00000000000043a0                ACMD::frame(float)
                0x00000000000043c0                ACMD::wait(float)
                0x00000000000043d0                ACMD::is_excute()
                0x0000000000004450                ACMD::_frame(float)
                0x00000000000044e0                ACMD::_frame_reimpl(float)
                0x00000000000045d0                ACMD::_wait(float)
                0x0000000000004660                ACMD::_is_excute()
                0x0000000000004700                ACMD::wrap(void (*)(unsigned long), std::initializer_list<lib::L2CValue>)
                0x00000000000047a0                ACMD::ATTACK(unsigned long, unsigned long, unsigned long, float, unsigned long, unsigned long, unsigned long, unsigned long, float, float, float, float, float, float, unsigned long, unsigned long, unsigned long, unsigned long, float, unsigned long, unsigned long, unsigned long, unsigned long, unsigned long, unsigned long, unsigned long, unsigned long, unsigned long, unsigned long, unsigned long, unsigned long, unsigned long, unsigned long)
                0x0000000000004a30                ACMD::ATTACK(unsigned long, unsigned long, unsigned long, float, unsigned long, unsigned long, unsigned long, unsigned long, float, float, float, float, float, float, float, float, float, unsigned long, unsigned long, unsigned long, unsigned long, float, unsigned long, unsigned long, unsigned long, unsigned long, unsigned long, unsigned long, unsigned long, unsigned long, unsigned long, unsigned long, unsigned long, unsigned long, unsigned long, unsigned long)
 *fill*         0x0000000000004ca4        0xc 
 .text          0x0000000000004cb0      0x120 saltysd_helper.o
                0x0000000000004cb0                SaltySD_function_replace(unsigned long, unsigned long)
                0x0000000000004d20                SaltySD_function_replace_sym(char*, unsigned long)
                0x0000000000004d50                SaltySD_function_replace_sym_check_prev(char*, unsigned long, unsigned long&)
 .text          0x0000000000004dd0      0x370 lua_bind_hash.o
                0x0000000000004dd0                lua_bind_hash(void const*, unsigned long)
                0x0000000000005110                lua_bind_hash_str(char const*)
 .text          0x0000000000005140      0x12c l2c_imports.o
                0x0000000000005140                lib::lua_const(char const*)
                0x0000000000005180                lib::L2CValue::L2CValue()
                0x0000000000005180                lib::L2CValue::L2CValue()
                0x0000000000005190                lib::L2CValue::L2CValue(bool)
                0x0000000000005190                lib::L2CValue::L2CValue(bool)
                0x00000000000051b0                lib::L2CValue::L2CValue(int)
                0x00000000000051b0                lib::L2CValue::L2CValue(int)
                0x00000000000051d0                lib::L2CValue::L2CValue(unsigned long)
                0x00000000000051d0                lib::L2CValue::L2CValue(unsigned long)
                0x00000000000051e0                lib::L2CValue::L2CValue(float)
                0x00000000000051e0                lib::L2CValue::L2CValue(float)
                0x00000000000051f0                lib::L2CValue::L2CValue(double)
                0x00000000000051f0                lib::L2CValue::L2CValue(double)
                0x0000000000005210                lib::L2CValue::L2CValue(char const*)
                0x0000000000005210                lib::L2CValue::L2CValue(char const*)
                0x0000000000005220                lib::L2CAgent::get_lua_stack(int, lib::L2CValue*)
                0x0000000000005230                lib::L2CAgent::_clear_lua_stack()
 *fill*         0x000000000000526c        0x4 
 .text          0x0000000000005270      0x4fc raygun_printer.o
                0x0000000000005270                show_segment(unsigned long, float, float, float, float, float)
                0x0000000000005340                alphabet_index(char)
                0x00000000000053b0                print_char(unsigned long, char, int, float, float)
                0x0000000000005510                print_string(unsigned long, char const*, ...)
 .text.__libnx_exception_entry
                0x000000000000576c      0x1c0 C:/Users/oukeh/OneDrive/桌面/code-mod-example/code-mod-framework/lib/libnx_min/nx/lib\libnx_min.a(exception.o)
                0x000000000000576c                __libnx_exception_entry
 .text.__libnx_exception_returnentry
                0x000000000000592c       0x18 C:/Users/oukeh/OneDrive/桌面/code-mod-example/code-mod-framework/lib/libnx_min/nx/lib\libnx_min.a(exception.o)
                0x000000000000592c                __libnx_exception_returnentry
 *fill*         0x0000000000005944        0xc 
 .text.argvSetup
                0x0000000000005950      0x318 C:/Users/oukeh/OneDrive/桌面/code-mod-example/code-mod-framework/lib/libnx_min/nx/lib\libnx_min.a(argv.o)
                0x0000000000005950                argvSetup
 *fill*         0x0000000000005c68        0x8 
 .text.envSetup
                0x0000000000005c70      0x208 C:/Users/oukeh/OneDrive/桌面/code-mod-example/code-mod-framework/lib/libnx_min/nx/lib\libnx_min.a(env.o)
                0x0000000000005c70                envSetup
 *fill*         0x0000000000005e78        0x8 
 .text.envGetMainThreadHandle
                0x0000000000005e80       0x20 C:/Users/oukeh/OneDrive/桌面/code-mod-example/code-mod-framework/lib/libnx_min/nx/lib\libnx_min.a(env.o)
                0x0000000000005e80                envGetMainThreadHandle
 .text.envIsNso
                0x0000000000005ea0        0xc C:/Users/oukeh/OneDrive/桌面/code-mod-example/code-mod-framework/lib/libnx_min/nx/lib\libnx_min.a(env.o)
                0x0000000000005ea0                envIsNso
 *fill*         0x0000000000005eac        0x4 
 .text.envHasHeapOverride
                0x0000000000005eb0       0x14 C:/Users/oukeh/OneDrive/桌面/code-mod-example/code-mod-framework/lib/libnx_min/nx/lib\libnx_min.a(env.o)
                0x0000000000005eb0                envHasHeapOverride
 *fill*         0x0000000000005ec4        0xc 
 .text.envGetHeapOverrideAddr
                0x0000000000005ed0        0xc C:/Users/oukeh/OneDrive/桌面/code-mod-example/code-mod-framework/lib/libnx_min/nx/lib\libnx_min.a(env.o)
                0x0000000000005ed0                envGetHeapOverrideAddr
 *fill*         0x0000000000005edc        0x4 
 .text.envGetHeapOverrideSize
                0x0000000000005ee0        0xc C:/Users/oukeh/OneDrive/桌面/code-mod-example/code-mod-framework/lib/libnx_min/nx/lib\libnx_min.a(env.o)
                0x0000000000005ee0                envGetHeapOverrideSize
 *fill*         0x0000000000005eec        0x4 
 .text.envHasArgv
                0x0000000000005ef0       0x14 C:/Users/oukeh/OneDrive/桌面/code-mod-example/code-mod-framework/lib/libnx_min/nx/lib\libnx_min.a(env.o)
                0x0000000000005ef0                envHasArgv
 *fill*         0x0000000000005f04        0xc 
 .text.envGetArgv
                0x0000000000005f10        0xc C:/Users/oukeh/OneDrive/桌面/code-mod-example/code-mod-framework/lib/libnx_min/nx/lib\libnx_min.a(env.o)
                0x0000000000005f10                envGetArgv
 *fill*         0x0000000000005f1c        0x4 
 .text.envIsSyscallHinted
                0x0000000000005f20       0x20 C:/Users/oukeh/OneDrive/桌面/code-mod-example/code-mod-framework/lib/libnx_min/nx/lib\libnx_min.a(env.o)
                0x0000000000005f20                envIsSyscallHinted
 .text.envGetOwnProcessHandle
                0x0000000000005f40        0xc C:/Users/oukeh/OneDrive/桌面/code-mod-example/code-mod-framework/lib/libnx_min/nx/lib\libnx_min.a(env.o)
                0x0000000000005f40                envGetOwnProcessHandle
 *fill*         0x0000000000005f4c        0x4 
 .text.envGetExitFuncPtr
                0x0000000000005f50        0xc C:/Users/oukeh/OneDrive/桌面/code-mod-example/code-mod-framework/lib/libnx_min/nx/lib\libnx_min.a(env.o)
                0x0000000000005f50                envGetExitFuncPtr
 *fill*         0x0000000000005f5c        0x4 
 .text.envSetExitFuncPtr
                0x0000000000005f60        0xc C:/Users/oukeh/OneDrive/桌面/code-mod-example/code-mod-framework/lib/libnx_min/nx/lib\libnx_min.a(env.o)
                0x0000000000005f60                envSetExitFuncPtr
 *fill*         0x0000000000005f6c        0x4 
 .text.envSetNextLoad
                0x0000000000005f70       0x7c C:/Users/oukeh/OneDrive/桌面/code-mod-example/code-mod-framework/lib/libnx_min/nx/lib\libnx_min.a(env.o)
                0x0000000000005f70                envSetNextLoad
 *fill*         0x0000000000005fec        0x4 
 .text.envHasNextLoad
                0x0000000000005ff0       0x14 C:/Users/oukeh/OneDrive/桌面/code-mod-example/code-mod-framework/lib/libnx_min/nx/lib\libnx_min.a(env.o)
                0x0000000000005ff0                envHasNextLoad
 *fill*         0x0000000000006004        0xc 
 .text.envGetLastLoadResult
                0x0000000000006010        0xc C:/Users/oukeh/OneDrive/桌面/code-mod-example/code-mod-framework/lib/libnx_min/nx/lib\libnx_min.a(env.o)
                0x0000000000006010                envGetLastLoadResult
 *fill*         0x000000000000601c        0x4 
 .text.envHasRandomSeed
                0x0000000000006020        0xc C:/Users/oukeh/OneDrive/桌面/code-mod-example/code-mod-framework/lib/libnx_min/nx/lib\libnx_min.a(env.o)
                0x0000000000006020                envHasRandomSeed
 *fill*         0x000000000000602c        0x4 
 .text.envGetRandomSeed
                0x0000000000006030       0x18 C:/Users/oukeh/OneDrive/桌面/code-mod-example/code-mod-framework/lib/libnx_min/nx/lib\libnx_min.a(env.o)
                0x0000000000006030                envGetRandomSeed
 *fill*         0x0000000000006048        0x8 
 .text.__libnx_initheap
                0x0000000000006050       0xd8 C:/Users/oukeh/OneDrive/桌面/code-mod-example/code-mod-framework/lib/libnx_min/nx/lib\libnx_min.a(init.o)
                0x0000000000006050                __libnx_initheap
 *fill*         0x0000000000006128        0x8 
 .text.__appInit
                0x0000000000006130       0xdc C:/Users/oukeh/OneDrive/桌面/code-mod-example/code-mod-framework/lib/libnx_min/nx/lib\libnx_min.a(init.o)
                0x0000000000006130                __appInit
 *fill*         0x000000000000620c        0x4 
 .text.__appExit
                0x0000000000006210       0x44 C:/Users/oukeh/OneDrive/桌面/code-mod-example/code-mod-framework/lib/libnx_min/nx/lib\libnx_min.a(init.o)
                0x0000000000006210                __appExit
 *fill*         0x0000000000006254        0xc 
 .text.hosversionGet
                0x0000000000006260       0x10 C:/Users/oukeh/OneDrive/桌面/code-mod-example/code-mod-framework/lib/libnx_min/nx/lib\libnx_min.a(hosversion.o)
                0x0000000000006260                hosversionGet
 .text.hosversionSet
                0x0000000000006270       0x10 C:/Users/oukeh/OneDrive/桌面/code-mod-example/code-mod-framework/lib/libnx_min/nx/lib\libnx_min.a(hosversion.o)
                0x0000000000006270                hosversionSet
 .text.__nx_dynamic
                0x0000000000006280       0xa0 C:/Users/oukeh/OneDrive/桌面/code-mod-example/code-mod-framework/lib/libnx_min/nx/lib\libnx_min.a(dynamic.o)
                0x0000000000006280                __nx_dynamic
 .text.fsdev_link
                0x0000000000006320       0x10 C:/Users/oukeh/OneDrive/桌面/code-mod-example/code-mod-framework/lib/libnx_min/nx/lib\libnx_min.a(fs_dev.o)
 .text.fsdev_dirreset
                0x0000000000006330       0x10 C:/Users/oukeh/OneDrive/桌面/code-mod-example/code-mod-framework/lib/libnx_min/nx/lib\libnx_min.a(fs_dev.o)
 .text.fsdev_chmod
                0x0000000000006340       0x10 C:/Users/oukeh/OneDrive/桌面/code-mod-example/code-mod-framework/lib/libnx_min/nx/lib\libnx_min.a(fs_dev.o)
 .text.error_cmp
                0x0000000000006350       0x1c C:/Users/oukeh/OneDrive/桌面/code-mod-example/code-mod-framework/lib/libnx_min/nx/lib\libnx_min.a(fs_dev.o)
 *fill*         0x000000000000636c        0x4 
 .text.fsdev_translate_error
                0x0000000000006370       0x5c C:/Users/oukeh/OneDrive/桌面/code-mod-example/code-mod-framework/lib/libnx_min/nx/lib\libnx_min.a(fs_dev.o)
 *fill*         0x00000000000063cc        0x4 
 .text.fsdev_fsync
                0x00000000000063d0       0x40 C:/Users/oukeh/OneDrive/桌面/code-mod-example/code-mod-framework/lib/libnx_min/nx/lib\libnx_min.a(fs_dev.o)
 .text.fsdev_ftruncate
                0x0000000000006410       0x60 C:/Users/oukeh/OneDrive/桌面/code-mod-example/code-mod-framework/lib/libnx_min/nx/lib\libnx_min.a(fs_dev.o)
 .text.fsdev_dirclose
                0x0000000000006470       0x20 C:/Users/oukeh/OneDrive/桌面/code-mod-example/code-mod-framework/lib/libnx_min/nx/lib\libnx_min.a(fs_dev.o)
 .text.fsdev_dirnext
                0x0000000000006490      0x16c C:/Users/oukeh/OneDrive/桌面/code-mod-example/code-mod-framework/lib/libnx_min/nx/lib\libnx_min.a(fs_dev.o)
 *fill*         0x00000000000065fc        0x4 
 .text.fsdev_close
                0x0000000000006600       0x1c C:/Users/oukeh/OneDrive/桌面/code-mod-example/code-mod-framework/lib/libnx_min/nx/lib\libnx_min.a(fs_dev.o)
 *fill*         0x000000000000661c        0x4 
 .text.fsdev_fstat
                0x0000000000006620       0xa4 C:/Users/oukeh/OneDrive/桌面/code-mod-example/code-mod-framework/lib/libnx_min/nx/lib\libnx_min.a(fs_dev.o)
 *fill*         0x00000000000066c4        0xc 
 .text.fsdev_seek
                0x00000000000066d0       0xb0 C:/Users/oukeh/OneDrive/桌面/code-mod-example/code-mod-framework/lib/libnx_min/nx/lib\libnx_min.a(fs_dev.o)
 .text.fsdev_read
                0x0000000000006780      0x1a0 C:/Users/oukeh/OneDrive/桌面/code-mod-example/code-mod-framework/lib/libnx_min/nx/lib\libnx_min.a(fs_dev.o)
 .text.fsdev_write
                0x0000000000006920      0x1a8 C:/Users/oukeh/OneDrive/桌面/code-mod-example/code-mod-framework/lib/libnx_min/nx/lib\libnx_min.a(fs_dev.o)
 *fill*         0x0000000000006ac8        0x8 
 .text.fsdevFindDevice
                0x0000000000006ad0      0x120 C:/Users/oukeh/OneDrive/桌面/code-mod-example/code-mod-framework/lib/libnx_min/nx/lib\libnx_min.a(fs_dev.o)
 .text._fsdevMountDevice
                0x0000000000006bf0      0x140 C:/Users/oukeh/OneDrive/桌面/code-mod-example/code-mod-framework/lib/libnx_min/nx/lib\libnx_min.a(fs_dev.o)
 .text.fsdev_getfspath
                0x0000000000006d30      0x1fc C:/Users/oukeh/OneDrive/桌面/code-mod-example/code-mod-framework/lib/libnx_min/nx/lib\libnx_min.a(fs_dev.o)
 *fill*         0x0000000000006f2c        0x4 
 .text.fsdev_rmdir
                0x0000000000006f30       0x70 C:/Users/oukeh/OneDrive/桌面/code-mod-example/code-mod-framework/lib/libnx_min/nx/lib\libnx_min.a(fs_dev.o)
 .text.fsdev_statvfs
                0x0000000000006fa0       0xd4 C:/Users/oukeh/OneDrive/桌面/code-mod-example/code-mod-framework/lib/libnx_min/nx/lib\libnx_min.a(fs_dev.o)
 *fill*         0x0000000000007074        0xc 
 .text.fsdev_diropen
                0x0000000000007080       0xec C:/Users/oukeh/OneDrive/桌面/code-mod-example/code-mod-framework/lib/libnx_min/nx/lib\libnx_min.a(fs_dev.o)
 *fill*         0x000000000000716c        0x4 
 .text.fsdev_mkdir
                0x0000000000007170       0x70 C:/Users/oukeh/OneDrive/桌面/code-mod-example/code-mod-framework/lib/libnx_min/nx/lib\libnx_min.a(fs_dev.o)
 .text.fsdev_rename
                0x00000000000071e0      0x114 C:/Users/oukeh/OneDrive/桌面/code-mod-example/code-mod-framework/lib/libnx_min/nx/lib\libnx_min.a(fs_dev.o)
 *fill*         0x00000000000072f4        0xc 
 .text.fsdev_chdir
                0x0000000000007300       0xe8 C:/Users/oukeh/OneDrive/桌面/code-mod-example/code-mod-framework/lib/libnx_min/nx/lib\libnx_min.a(fs_dev.o)
 *fill*         0x00000000000073e8        0x8 
 .text.fsdev_unlink
                0x00000000000073f0       0x70 C:/Users/oukeh/OneDrive/桌面/code-mod-example/code-mod-framework/lib/libnx_min/nx/lib\libnx_min.a(fs_dev.o)
 .text.fsdev_stat
                0x0000000000007460      0x1bc C:/Users/oukeh/OneDrive/桌面/code-mod-example/code-mod-framework/lib/libnx_min/nx/lib\libnx_min.a(fs_dev.o)
 *fill*         0x000000000000761c        0x4 
 .text.fsdev_open
                0x0000000000007620      0x19c C:/Users/oukeh/OneDrive/桌面/code-mod-example/code-mod-framework/lib/libnx_min/nx/lib\libnx_min.a(fs_dev.o)
 *fill*         0x00000000000077bc        0x4 
 .text._fsdevUnmountDeviceStruct.part.4
                0x00000000000077c0       0xb8 C:/Users/oukeh/OneDrive/桌面/code-mod-example/code-mod-framework/lib/libnx_min/nx/lib\libnx_min.a(fs_dev.o)
 *fill*         0x0000000000007878        0x8 
 .text.fsdev_fchmod
                0x0000000000007880       0x10 C:/Users/oukeh/OneDrive/桌面/code-mod-example/code-mod-framework/lib/libnx_min/nx/lib\libnx_min.a(fs_dev.o)
 .text.fsdevMountDevice
                0x0000000000007890       0x14 C:/Users/oukeh/OneDrive/桌面/code-mod-example/code-mod-framework/lib/libnx_min/nx/lib\libnx_min.a(fs_dev.o)
                0x0000000000007890                fsdevMountDevice
 *fill*         0x00000000000078a4        0xc 
 .text.fsdevUnmountDevice
                0x00000000000078b0       0x3c C:/Users/oukeh/OneDrive/桌面/code-mod-example/code-mod-framework/lib/libnx_min/nx/lib\libnx_min.a(fs_dev.o)
                0x00000000000078b0                fsdevUnmountDevice
 *fill*         0x00000000000078ec        0x4 
 .text.fsdevCommitDevice
                0x00000000000078f0       0x28 C:/Users/oukeh/OneDrive/桌面/code-mod-example/code-mod-framework/lib/libnx_min/nx/lib\libnx_min.a(fs_dev.o)
                0x00000000000078f0                fsdevCommitDevice
 *fill*         0x0000000000007918        0x8 
 .text.fsdevSetArchiveBit
                0x0000000000007920       0x68 C:/Users/oukeh/OneDrive/桌面/code-mod-example/code-mod-framework/lib/libnx_min/nx/lib\libnx_min.a(fs_dev.o)
                0x0000000000007920                fsdevSetArchiveBit
 *fill*         0x0000000000007988        0x8 
 .text.fsdevCreateFile
                0x0000000000007990       0x88 C:/Users/oukeh/OneDrive/桌面/code-mod-example/code-mod-framework/lib/libnx_min/nx/lib\libnx_min.a(fs_dev.o)
                0x0000000000007990                fsdevCreateFile
 *fill*         0x0000000000007a18        0x8 
 .text.fsdevDeleteDirectoryRecursively
                0x0000000000007a20       0x68 C:/Users/oukeh/OneDrive/桌面/code-mod-example/code-mod-framework/lib/libnx_min/nx/lib\libnx_min.a(fs_dev.o)
                0x0000000000007a20                fsdevDeleteDirectoryRecursively
 *fill*         0x0000000000007a88        0x8 
 .text.fsdevMountSdmc
                0x0000000000007a90      0x170 C:/Users/oukeh/OneDrive/桌面/code-mod-example/code-mod-framework/lib/libnx_min/nx/lib\libnx_min.a(fs_dev.o)
                0x0000000000007a90                fsdevMountSdmc
 .text.fsdevUnmountAll
                0x0000000000007c00       0x64 C:/Users/oukeh/OneDrive/桌面/code-mod-example/code-mod-framework/lib/libnx_min/nx/lib\libnx_min.a(fs_dev.o)
                0x0000000000007c00                fsdevUnmountAll
 *fill*         0x0000000000007c64        0xc 
 .text.fsdevGetDeviceFileSystem
                0x0000000000007c70       0x20 C:/Users/oukeh/OneDrive/桌面/code-mod-example/code-mod-framework/lib/libnx_min/nx/lib\libnx_min.a(fs_dev.o)
                0x0000000000007c70                fsdevGetDeviceFileSystem
 .text.fsdevGetDefaultFileSystem
                0x0000000000007c90       0x40 C:/Users/oukeh/OneDrive/桌面/code-mod-example/code-mod-framework/lib/libnx_min/nx/lib\libnx_min.a(fs_dev.o)
                0x0000000000007c90                fsdevGetDefaultFileSystem
 .text.fsdevTranslatePath
                0x0000000000007cd0       0x58 C:/Users/oukeh/OneDrive/桌面/code-mod-example/code-mod-framework/lib/libnx_min/nx/lib\libnx_min.a(fs_dev.o)
                0x0000000000007cd0                fsdevTranslatePath
 *fill*         0x0000000000007d28        0x8 
 .text.fsdev_getmtime
                0x0000000000007d30       0x20 C:/Users/oukeh/OneDrive/桌面/code-mod-example/code-mod-framework/lib/libnx_min/nx/lib\libnx_min.a(fs_dev.o)
                0x0000000000007d30                fsdev_getmtime
 .text.fsdevGetLastResult
                0x0000000000007d50       0x20 C:/Users/oukeh/OneDrive/桌面/code-mod-example/code-mod-framework/lib/libnx_min/nx/lib\libnx_min.a(fs_dev.o)
                0x0000000000007d50                fsdevGetLastResult
 .text.decode_utf8
                0x0000000000007d70      0x12c C:/Users/oukeh/OneDrive/桌面/code-mod-example/code-mod-framework/lib/libnx_min/nx/lib\libnx_min.a(decode_utf8.o)
                0x0000000000007d70                decode_utf8
 .text.svcSetHeapSize
                0x0000000000007e9c       0x14 C:/Users/oukeh/OneDrive/桌面/code-mod-example/code-mod-framework/lib/libnx_min/nx/lib\libnx_min.a(svc.o)
                0x0000000000007e9c                svcSetHeapSize
 .text.svcSetMemoryPermission
                0x0000000000007eb0        0x8 C:/Users/oukeh/OneDrive/桌面/code-mod-example/code-mod-framework/lib/libnx_min/nx/lib\libnx_min.a(svc.o)
                0x0000000000007eb0                svcSetMemoryPermission
 .text.svcSetMemoryAttribute
                0x0000000000007eb8        0x8 C:/Users/oukeh/OneDrive/桌面/code-mod-example/code-mod-framework/lib/libnx_min/nx/lib\libnx_min.a(svc.o)
                0x0000000000007eb8                svcSetMemoryAttribute
 .text.svcMapMemory
                0x0000000000007ec0        0x8 C:/Users/oukeh/OneDrive/桌面/code-mod-example/code-mod-framework/lib/libnx_min/nx/lib\libnx_min.a(svc.o)
                0x0000000000007ec0                svcMapMemory
 .text.svcUnmapMemory
                0x0000000000007ec8        0x8 C:/Users/oukeh/OneDrive/桌面/code-mod-example/code-mod-framework/lib/libnx_min/nx/lib\libnx_min.a(svc.o)
                0x0000000000007ec8                svcUnmapMemory
 .text.svcQueryMemory
                0x0000000000007ed0       0x14 C:/Users/oukeh/OneDrive/桌面/code-mod-example/code-mod-framework/lib/libnx_min/nx/lib\libnx_min.a(svc.o)
                0x0000000000007ed0                svcQueryMemory
 .text.svcExitProcess
                0x0000000000007ee4        0x8 C:/Users/oukeh/OneDrive/桌面/code-mod-example/code-mod-framework/lib/libnx_min/nx/lib\libnx_min.a(svc.o)
                0x0000000000007ee4                svcExitProcess
 .text.svcCreateThread
                0x0000000000007eec       0x14 C:/Users/oukeh/OneDrive/桌面/code-mod-example/code-mod-framework/lib/libnx_min/nx/lib\libnx_min.a(svc.o)
                0x0000000000007eec                svcCreateThread
 .text.svcStartThread
                0x0000000000007f00        0x8 C:/Users/oukeh/OneDrive/桌面/code-mod-example/code-mod-framework/lib/libnx_min/nx/lib\libnx_min.a(svc.o)
                0x0000000000007f00                svcStartThread
 .text.svcExitThread
                0x0000000000007f08        0x8 C:/Users/oukeh/OneDrive/桌面/code-mod-example/code-mod-framework/lib/libnx_min/nx/lib\libnx_min.a(svc.o)
                0x0000000000007f08                svcExitThread
 .text.svcSleepThread
                0x0000000000007f10        0x8 C:/Users/oukeh/OneDrive/桌面/code-mod-example/code-mod-framework/lib/libnx_min/nx/lib\libnx_min.a(svc.o)
                0x0000000000007f10                svcSleepThread
 .text.svcGetThreadPriority
                0x0000000000007f18       0x14 C:/Users/oukeh/OneDrive/桌面/code-mod-example/code-mod-framework/lib/libnx_min/nx/lib\libnx_min.a(svc.o)
                0x0000000000007f18                svcGetThreadPriority
 .text.svcSetThreadPriority
                0x0000000000007f2c        0x8 C:/Users/oukeh/OneDrive/桌面/code-mod-example/code-mod-framework/lib/libnx_min/nx/lib\libnx_min.a(svc.o)
                0x0000000000007f2c                svcSetThreadPriority
 .text.svcGetThreadCoreMask
                0x0000000000007f34       0x18 C:/Users/oukeh/OneDrive/桌面/code-mod-example/code-mod-framework/lib/libnx_min/nx/lib\libnx_min.a(svc.o)
                0x0000000000007f34                svcGetThreadCoreMask
 .text.svcSetThreadCoreMask
                0x0000000000007f4c        0x8 C:/Users/oukeh/OneDrive/桌面/code-mod-example/code-mod-framework/lib/libnx_min/nx/lib\libnx_min.a(svc.o)
                0x0000000000007f4c                svcSetThreadCoreMask
 .text.svcGetCurrentProcessorNumber
                0x0000000000007f54        0x8 C:/Users/oukeh/OneDrive/桌面/code-mod-example/code-mod-framework/lib/libnx_min/nx/lib\libnx_min.a(svc.o)
                0x0000000000007f54                svcGetCurrentProcessorNumber
 .text.svcSignalEvent
                0x0000000000007f5c        0x8 C:/Users/oukeh/OneDrive/桌面/code-mod-example/code-mod-framework/lib/libnx_min/nx/lib\libnx_min.a(svc.o)
                0x0000000000007f5c                svcSignalEvent
 .text.svcClearEvent
                0x0000000000007f64        0x8 C:/Users/oukeh/OneDrive/桌面/code-mod-example/code-mod-framework/lib/libnx_min/nx/lib\libnx_min.a(svc.o)
                0x0000000000007f64                svcClearEvent
 .text.svcMapSharedMemory
                0x0000000000007f6c        0x8 C:/Users/oukeh/OneDrive/桌面/code-mod-example/code-mod-framework/lib/libnx_min/nx/lib\libnx_min.a(svc.o)
                0x0000000000007f6c                svcMapSharedMemory
 .text.svcUnmapSharedMemory
                0x0000000000007f74        0x8 C:/Users/oukeh/OneDrive/桌面/code-mod-example/code-mod-framework/lib/libnx_min/nx/lib\libnx_min.a(svc.o)
                0x0000000000007f74                svcUnmapSharedMemory
 .text.svcCreateTransferMemory
                0x0000000000007f7c       0x14 C:/Users/oukeh/OneDrive/桌面/code-mod-example/code-mod-framework/lib/libnx_min/nx/lib\libnx_min.a(svc.o)
                0x0000000000007f7c                svcCreateTransferMemory
 .text.svcCloseHandle
                0x0000000000007f90        0x8 C:/Users/oukeh/OneDrive/桌面/code-mod-example/code-mod-framework/lib/libnx_min/nx/lib\libnx_min.a(svc.o)
                0x0000000000007f90                svcCloseHandle
 .text.svcResetSignal
                0x0000000000007f98        0x8 C:/Users/oukeh/OneDrive/桌面/code-mod-example/code-mod-framework/lib/libnx_min/nx/lib\libnx_min.a(svc.o)
                0x0000000000007f98                svcResetSignal
 .text.svcWaitSynchronization
                0x0000000000007fa0       0x14 C:/Users/oukeh/OneDrive/桌面/code-mod-example/code-mod-framework/lib/libnx_min/nx/lib\libnx_min.a(svc.o)
                0x0000000000007fa0                svcWaitSynchronization
 .text.svcCancelSynchronization
                0x0000000000007fb4        0x8 C:/Users/oukeh/OneDrive/桌面/code-mod-example/code-mod-framework/lib/libnx_min/nx/lib\libnx_min.a(svc.o)
                0x0000000000007fb4                svcCancelSynchronization
 .text.svcArbitrateLock
                0x0000000000007fbc        0x8 C:/Users/oukeh/OneDrive/桌面/code-mod-example/code-mod-framework/lib/libnx_min/nx/lib\libnx_min.a(svc.o)
                0x0000000000007fbc                svcArbitrateLock
 .text.svcArbitrateUnlock
                0x0000000000007fc4        0x8 C:/Users/oukeh/OneDrive/桌面/code-mod-example/code-mod-framework/lib/libnx_min/nx/lib\libnx_min.a(svc.o)
                0x0000000000007fc4                svcArbitrateUnlock
 .text.svcWaitProcessWideKeyAtomic
                0x0000000000007fcc        0x8 C:/Users/oukeh/OneDrive/桌面/code-mod-example/code-mod-framework/lib/libnx_min/nx/lib\libnx_min.a(svc.o)
                0x0000000000007fcc                svcWaitProcessWideKeyAtomic
 .text.svcSignalProcessWideKey
                0x0000000000007fd4        0x8 C:/Users/oukeh/OneDrive/桌面/code-mod-example/code-mod-framework/lib/libnx_min/nx/lib\libnx_min.a(svc.o)
                0x0000000000007fd4                svcSignalProcessWideKey
 .text.svcGetSystemTick
                0x0000000000007fdc        0x8 C:/Users/oukeh/OneDrive/桌面/code-mod-example/code-mod-framework/lib/libnx_min/nx/lib\libnx_min.a(svc.o)
                0x0000000000007fdc                svcGetSystemTick
 .text.svcConnectToNamedPort
                0x0000000000007fe4       0x14 C:/Users/oukeh/OneDrive/桌面/code-mod-example/code-mod-framework/lib/libnx_min/nx/lib\libnx_min.a(svc.o)
                0x0000000000007fe4                svcConnectToNamedPort
 .text.svcSendSyncRequest
                0x0000000000007ff8        0x8 C:/Users/oukeh/OneDrive/桌面/code-mod-example/code-mod-framework/lib/libnx_min/nx/lib\libnx_min.a(svc.o)
                0x0000000000007ff8                svcSendSyncRequest
 .text.svcSendSyncRequestWithUserBuffer
                0x0000000000008000        0x8 C:/Users/oukeh/OneDrive/桌面/code-mod-example/code-mod-framework/lib/libnx_min/nx/lib\libnx_min.a(svc.o)
                0x0000000000008000                svcSendSyncRequestWithUserBuffer
 .text.svcSendAsyncRequestWithUserBuffer
                0x0000000000008008       0x14 C:/Users/oukeh/OneDrive/桌面/code-mod-example/code-mod-framework/lib/libnx_min/nx/lib\libnx_min.a(svc.o)
                0x0000000000008008                svcSendAsyncRequestWithUserBuffer
 .text.svcGetProcessId
                0x000000000000801c       0x14 C:/Users/oukeh/OneDrive/桌面/code-mod-example/code-mod-framework/lib/libnx_min/nx/lib\libnx_min.a(svc.o)
                0x000000000000801c                svcGetProcessId
 .text.svcGetThreadId
                0x0000000000008030       0x14 C:/Users/oukeh/OneDrive/桌面/code-mod-example/code-mod-framework/lib/libnx_min/nx/lib\libnx_min.a(svc.o)
                0x0000000000008030                svcGetThreadId
 .text.svcBreak
                0x0000000000008044        0x8 C:/Users/oukeh/OneDrive/桌面/code-mod-example/code-mod-framework/lib/libnx_min/nx/lib\libnx_min.a(svc.o)
                0x0000000000008044                svcBreak
 .text.svcOutputDebugString
                0x000000000000804c        0x8 C:/Users/oukeh/OneDrive/桌面/code-mod-example/code-mod-framework/lib/libnx_min/nx/lib\libnx_min.a(svc.o)
                0x000000000000804c                svcOutputDebugString
 .text.svcReturnFromException
                0x0000000000008054        0x8 C:/Users/oukeh/OneDrive/桌面/code-mod-example/code-mod-framework/lib/libnx_min/nx/lib\libnx_min.a(svc.o)
                0x0000000000008054                svcReturnFromException
 .text.svcGetInfo
                0x000000000000805c       0x14 C:/Users/oukeh/OneDrive/桌面/code-mod-example/code-mod-framework/lib/libnx_min/nx/lib\libnx_min.a(svc.o)
                0x000000000000805c                svcGetInfo
 .text.svcMapPhysicalMemory
                0x0000000000008070        0x8 C:/Users/oukeh/OneDrive/桌面/code-mod-example/code-mod-framework/lib/libnx_min/nx/lib\libnx_min.a(svc.o)
                0x0000000000008070                svcMapPhysicalMemory
 .text.svcUnmapPhysicalMemory
                0x0000000000008078        0x8 C:/Users/oukeh/OneDrive/桌面/code-mod-example/code-mod-framework/lib/libnx_min/nx/lib\libnx_min.a(svc.o)
                0x0000000000008078                svcUnmapPhysicalMemory
 .text.svcGetResourceLimitLimitValue
                0x0000000000008080       0x14 C:/Users/oukeh/OneDrive/桌面/code-mod-example/code-mod-framework/lib/libnx_min/nx/lib\libnx_min.a(svc.o)
                0x0000000000008080                svcGetResourceLimitLimitValue
 .text.svcGetResourceLimitCurrentValue
                0x0000000000008094       0x14 C:/Users/oukeh/OneDrive/桌面/code-mod-example/code-mod-framework/lib/libnx_min/nx/lib\libnx_min.a(svc.o)
                0x0000000000008094                svcGetResourceLimitCurrentValue
 .text.svcSetThreadActivity
                0x00000000000080a8        0x8 C:/Users/oukeh/OneDrive/桌面/code-mod-example/code-mod-framework/lib/libnx_min/nx/lib\libnx_min.a(svc.o)
                0x00000000000080a8                svcSetThreadActivity
 .text.svcGetThreadContext3
                0x00000000000080b0        0x8 C:/Users/oukeh/OneDrive/桌面/code-mod-example/code-mod-framework/lib/libnx_min/nx/lib\libnx_min.a(svc.o)
                0x00000000000080b0                svcGetThreadContext3
 .text.svcCreateSession
                0x00000000000080b8       0x18 C:/Users/oukeh/OneDrive/桌面/code-mod-example/code-mod-framework/lib/libnx_min/nx/lib\libnx_min.a(svc.o)
                0x00000000000080b8                svcCreateSession
 .text.svcAcceptSession
                0x00000000000080d0       0x14 C:/Users/oukeh/OneDrive/桌面/code-mod-example/code-mod-framework/lib/libnx_min/nx/lib\libnx_min.a(svc.o)
                0x00000000000080d0                svcAcceptSession
 .text.svcReplyAndReceive
                0x00000000000080e4       0x14 C:/Users/oukeh/OneDrive/桌面/code-mod-example/code-mod-framework/lib/libnx_min/nx/lib\libnx_min.a(svc.o)
                0x00000000000080e4                svcReplyAndReceive
 .text.svcReplyAndReceiveWithUserBuffer
                0x00000000000080f8       0x14 C:/Users/oukeh/OneDrive/桌面/code-mod-example/code-mod-framework/lib/libnx_min/nx/lib\libnx_min.a(svc.o)
                0x00000000000080f8                svcReplyAndReceiveWithUserBuffer
 .text.svcCreateEvent
                0x000000000000810c       0x18 C:/Users/oukeh/OneDrive/桌面/code-mod-example/code-mod-framework/lib/libnx_min/nx/lib\libnx_min.a(svc.o)
                0x000000000000810c                svcCreateEvent
 .text.svcMapPhysicalMemoryUnsafe
                0x0000000000008124        0x8 C:/Users/oukeh/OneDrive/桌面/code-mod-example/code-mod-framework/lib/libnx_min/nx/lib\libnx_min.a(svc.o)
                0x0000000000008124                svcMapPhysicalMemoryUnsafe
 .text.svcUnmapPhysicalMemoryUnsafe
                0x000000000000812c        0x8 C:/Users/oukeh/OneDrive/桌面/code-mod-example/code-mod-framework/lib/libnx_min/nx/lib\libnx_min.a(svc.o)
                0x000000000000812c                svcUnmapPhysicalMemoryUnsafe
 .text.svcSetUnsafeLimit
                0x0000000000008134        0x8 C:/Users/oukeh/OneDrive/桌面/code-mod-example/code-mod-framework/lib/libnx_min/nx/lib\libnx_min.a(svc.o)
                0x0000000000008134                svcSetUnsafeLimit
 .text.svcCreateCodeMemory
                0x000000000000813c       0x14 C:/Users/oukeh/OneDrive/桌面/code-mod-example/code-mod-framework/lib/libnx_min/nx/lib\libnx_min.a(svc.o)
                0x000000000000813c                svcCreateCodeMemory
 .text.svcControlCodeMemory
                0x0000000000008150        0x8 C:/Users/oukeh/OneDrive/桌面/code-mod-example/code-mod-framework/lib/libnx_min/nx/lib\libnx_min.a(svc.o)
                0x0000000000008150                svcControlCodeMemory
 .text.svcReadWriteRegister
                0x0000000000008158       0x14 C:/Users/oukeh/OneDrive/桌面/code-mod-example/code-mod-framework/lib/libnx_min/nx/lib\libnx_min.a(svc.o)
                0x0000000000008158                svcReadWriteRegister
 .text.svcCreateSharedMemory
                0x000000000000816c       0x14 C:/Users/oukeh/OneDrive/桌面/code-mod-example/code-mod-framework/lib/libnx_min/nx/lib\libnx_min.a(svc.o)
                0x000000000000816c                svcCreateSharedMemory
 .text.svcMapTransferMemory
                0x0000000000008180        0x8 C:/Users/oukeh/OneDrive/桌面/code-mod-example/code-mod-framework/lib/libnx_min/nx/lib\libnx_min.a(svc.o)
                0x0000000000008180                svcMapTransferMemory
 .text.svcUnmapTransferMemory
                0x0000000000008188        0x8 C:/Users/oukeh/OneDrive/桌面/code-mod-example/code-mod-framework/lib/libnx_min/nx/lib\libnx_min.a(svc.o)
                0x0000000000008188                svcUnmapTransferMemory
 .text.svcCreateInterruptEvent
                0x0000000000008190       0x14 C:/Users/oukeh/OneDrive/桌面/code-mod-example/code-mod-framework/lib/libnx_min/nx/lib\libnx_min.a(svc.o)
                0x0000000000008190                svcCreateInterruptEvent
 .text.svcQueryPhysicalAddress
                0x00000000000081a4       0x18 C:/Users/oukeh/OneDrive/桌面/code-mod-example/code-mod-framework/lib/libnx_min/nx/lib\libnx_min.a(svc.o)
                0x00000000000081a4                svcQueryPhysicalAddress
 .text.svcQueryIoMapping
                0x00000000000081bc       0x14 C:/Users/oukeh/OneDrive/桌面/code-mod-example/code-mod-framework/lib/libnx_min/nx/lib\libnx_min.a(svc.o)
                0x00000000000081bc                svcQueryIoMapping
 .text.svcCreateDeviceAddressSpace
                0x00000000000081d0       0x14 C:/Users/oukeh/OneDrive/桌面/code-mod-example/code-mod-framework/lib/libnx_min/nx/lib\libnx_min.a(svc.o)
                0x00000000000081d0                svcCreateDeviceAddressSpace
 .text.svcAttachDeviceAddressSpace
                0x00000000000081e4        0x8 C:/Users/oukeh/OneDrive/桌面/code-mod-example/code-mod-framework/lib/libnx_min/nx/lib\libnx_min.a(svc.o)
                0x00000000000081e4                svcAttachDeviceAddressSpace
 .text.svcDetachDeviceAddressSpace
                0x00000000000081ec        0x8 C:/Users/oukeh/OneDrive/桌面/code-mod-example/code-mod-framework/lib/libnx_min/nx/lib\libnx_min.a(svc.o)
                0x00000000000081ec                svcDetachDeviceAddressSpace
 .text.svcMapDeviceAddressSpaceByForce
                0x00000000000081f4        0x8 C:/Users/oukeh/OneDrive/桌面/code-mod-example/code-mod-framework/lib/libnx_min/nx/lib\libnx_min.a(svc.o)
                0x00000000000081f4                svcMapDeviceAddressSpaceByForce
 .text.svcMapDeviceAddressSpaceAligned
                0x00000000000081fc        0x8 C:/Users/oukeh/OneDrive/桌面/code-mod-example/code-mod-framework/lib/libnx_min/nx/lib\libnx_min.a(svc.o)
                0x00000000000081fc                svcMapDeviceAddressSpaceAligned
 .text.svcUnmapDeviceAddressSpace
                0x0000000000008204        0x8 C:/Users/oukeh/OneDrive/桌面/code-mod-example/code-mod-framework/lib/libnx_min/nx/lib\libnx_min.a(svc.o)
                0x0000000000008204                svcUnmapDeviceAddressSpace
 .text.svcDebugActiveProcess
                0x000000000000820c       0x14 C:/Users/oukeh/OneDrive/桌面/code-mod-example/code-mod-framework/lib/libnx_min/nx/lib\libnx_min.a(svc.o)
                0x000000000000820c                svcDebugActiveProcess
 .text.svcBreakDebugProcess
                0x0000000000008220        0x8 C:/Users/oukeh/OneDrive/桌面/code-mod-example/code-mod-framework/lib/libnx_min/nx/lib\libnx_min.a(svc.o)
                0x0000000000008220                svcBreakDebugProcess
 .text.svcTerminateDebugProcess
                0x0000000000008228        0x8 C:/Users/oukeh/OneDrive/桌面/code-mod-example/code-mod-framework/lib/libnx_min/nx/lib\libnx_min.a(svc.o)
                0x0000000000008228                svcTerminateDebugProcess
 .text.svcGetDebugEvent
                0x0000000000008230        0x8 C:/Users/oukeh/OneDrive/桌面/code-mod-example/code-mod-framework/lib/libnx_min/nx/lib\libnx_min.a(svc.o)
                0x0000000000008230                svcGetDebugEvent
 .text.svcLegacyContinueDebugEvent
                0x0000000000008238        0x8 C:/Users/oukeh/OneDrive/桌面/code-mod-example/code-mod-framework/lib/libnx_min/nx/lib\libnx_min.a(svc.o)
                0x0000000000008238                svcLegacyContinueDebugEvent
 .text.svcContinueDebugEvent
                0x0000000000008240        0x8 C:/Users/oukeh/OneDrive/桌面/code-mod-example/code-mod-framework/lib/libnx_min/nx/lib\libnx_min.a(svc.o)
                0x0000000000008240                svcContinueDebugEvent
 .text.svcGetProcessList
                0x0000000000008248       0x14 C:/Users/oukeh/OneDrive/桌面/code-mod-example/code-mod-framework/lib/libnx_min/nx/lib\libnx_min.a(svc.o)
                0x0000000000008248                svcGetProcessList
 .text.svcGetThreadList
                0x000000000000825c       0x14 C:/Users/oukeh/OneDrive/桌面/code-mod-example/code-mod-framework/lib/libnx_min/nx/lib\libnx_min.a(svc.o)
                0x000000000000825c                svcGetThreadList
 .text.svcGetDebugThreadContext
                0x0000000000008270        0x8 C:/Users/oukeh/OneDrive/桌面/code-mod-example/code-mod-framework/lib/libnx_min/nx/lib\libnx_min.a(svc.o)
                0x0000000000008270                svcGetDebugThreadContext
 .text.svcSetDebugThreadContext
                0x0000000000008278        0x8 C:/Users/oukeh/OneDrive/桌面/code-mod-example/code-mod-framework/lib/libnx_min/nx/lib\libnx_min.a(svc.o)
                0x0000000000008278                svcSetDebugThreadContext
 .text.svcQueryDebugProcessMemory
                0x0000000000008280       0x14 C:/Users/oukeh/OneDrive/桌面/code-mod-example/code-mod-framework/lib/libnx_min/nx/lib\libnx_min.a(svc.o)
                0x0000000000008280                svcQueryDebugProcessMemory
 .text.svcReadDebugProcessMemory
                0x0000000000008294        0x8 C:/Users/oukeh/OneDrive/桌面/code-mod-example/code-mod-framework/lib/libnx_min/nx/lib\libnx_min.a(svc.o)
                0x0000000000008294                svcReadDebugProcessMemory
 .text.svcWriteDebugProcessMemory
                0x000000000000829c        0x8 C:/Users/oukeh/OneDrive/桌面/code-mod-example/code-mod-framework/lib/libnx_min/nx/lib\libnx_min.a(svc.o)
                0x000000000000829c                svcWriteDebugProcessMemory
 .text.svcGetDebugThreadParam
                0x00000000000082a4       0x18 C:/Users/oukeh/OneDrive/桌面/code-mod-example/code-mod-framework/lib/libnx_min/nx/lib\libnx_min.a(svc.o)
                0x00000000000082a4                svcGetDebugThreadParam
 .text.svcGetSystemInfo
                0x00000000000082bc       0x14 C:/Users/oukeh/OneDrive/桌面/code-mod-example/code-mod-framework/lib/libnx_min/nx/lib\libnx_min.a(svc.o)
                0x00000000000082bc                svcGetSystemInfo
 .text.svcCreatePort
                0x00000000000082d0       0x18 C:/Users/oukeh/OneDrive/桌面/code-mod-example/code-mod-framework/lib/libnx_min/nx/lib\libnx_min.a(svc.o)
                0x00000000000082d0                svcCreatePort
 .text.svcManageNamedPort
                0x00000000000082e8       0x14 C:/Users/oukeh/OneDrive/桌面/code-mod-example/code-mod-framework/lib/libnx_min/nx/lib\libnx_min.a(svc.o)
                0x00000000000082e8                svcManageNamedPort
 .text.svcConnectToPort
                0x00000000000082fc       0x14 C:/Users/oukeh/OneDrive/桌面/code-mod-example/code-mod-framework/lib/libnx_min/nx/lib\libnx_min.a(svc.o)
                0x00000000000082fc                svcConnectToPort
 .text.svcSetProcessMemoryPermission
                0x0000000000008310        0x8 C:/Users/oukeh/OneDrive/桌面/code-mod-example/code-mod-framework/lib/libnx_min/nx/lib\libnx_min.a(svc.o)
                0x0000000000008310                svcSetProcessMemoryPermission
 .text.svcMapProcessMemory
                0x0000000000008318        0x8 C:/Users/oukeh/OneDrive/桌面/code-mod-example/code-mod-framework/lib/libnx_min/nx/lib\libnx_min.a(svc.o)
                0x0000000000008318                svcMapProcessMemory
 .text.svcUnmapProcessMemory
                0x0000000000008320        0x8 C:/Users/oukeh/OneDrive/桌面/code-mod-example/code-mod-framework/lib/libnx_min/nx/lib\libnx_min.a(svc.o)
                0x0000000000008320                svcUnmapProcessMemory
 .text.svcQueryProcessMemory
                0x0000000000008328       0x14 C:/Users/oukeh/OneDrive/桌面/code-mod-example/code-mod-framework/lib/libnx_min/nx/lib\libnx_min.a(svc.o)
                0x0000000000008328                svcQueryProcessMemory
 .text.svcMapProcessCodeMemory
                0x000000000000833c        0x8 C:/Users/oukeh/OneDrive/桌面/code-mod-example/code-mod-framework/lib/libnx_min/nx/lib\libnx_min.a(svc.o)
                0x000000000000833c                svcMapProcessCodeMemory
 .text.svcUnmapProcessCodeMemory
                0x0000000000008344        0x8 C:/Users/oukeh/OneDrive/桌面/code-mod-example/code-mod-framework/lib/libnx_min/nx/lib\libnx_min.a(svc.o)
                0x0000000000008344                svcUnmapProcessCodeMemory
 .text.svcCreateProcess
                0x000000000000834c       0x14 C:/Users/oukeh/OneDrive/桌面/code-mod-example/code-mod-framework/lib/libnx_min/nx/lib\libnx_min.a(svc.o)
                0x000000000000834c                svcCreateProcess
 .text.svcStartProcess
                0x0000000000008360        0x8 C:/Users/oukeh/OneDrive/桌面/code-mod-example/code-mod-framework/lib/libnx_min/nx/lib\libnx_min.a(svc.o)
                0x0000000000008360                svcStartProcess
 .text.svcTerminateProcess
                0x0000000000008368        0x8 C:/Users/oukeh/OneDrive/桌面/code-mod-example/code-mod-framework/lib/libnx_min/nx/lib\libnx_min.a(svc.o)
                0x0000000000008368                svcTerminateProcess
 .text.svcGetProcessInfo
                0x0000000000008370       0x14 C:/Users/oukeh/OneDrive/桌面/code-mod-example/code-mod-framework/lib/libnx_min/nx/lib\libnx_min.a(svc.o)
                0x0000000000008370                svcGetProcessInfo
 .text.svcCreateResourceLimit
                0x0000000000008384       0x14 C:/Users/oukeh/OneDrive/桌面/code-mod-example/code-mod-framework/lib/libnx_min/nx/lib\libnx_min.a(svc.o)
                0x0000000000008384                svcCreateResourceLimit
 .text.svcSetResourceLimitLimitValue
                0x0000000000008398        0x8 C:/Users/oukeh/OneDrive/桌面/code-mod-example/code-mod-framework/lib/libnx_min/nx/lib\libnx_min.a(svc.o)
                0x0000000000008398                svcSetResourceLimitLimitValue
 .text.svcCallSecureMonitor
                0x00000000000083a0       0x34 C:/Users/oukeh/OneDrive/桌面/code-mod-example/code-mod-framework/lib/libnx_min/nx/lib\libnx_min.a(svc.o)
                0x00000000000083a0                svcCallSecureMonitor
 .text.__aarch64_read_tp
                0x00000000000083d4        0xc C:/Users/oukeh/OneDrive/桌面/code-mod-example/code-mod-framework/lib/libnx_min/nx/lib\libnx_min.a(readtp.o)
                0x00000000000083d4                __aarch64_read_tp
 .text._GetRegionFromInfo.isra.1
                0x00000000000083e0       0x7c C:/Users/oukeh/OneDrive/桌面/code-mod-example/code-mod-framework/lib/libnx_min/nx/lib\libnx_min.a(virtmem.o)
 *fill*         0x000000000000845c        0x4 
 .text.virtmemSetup
                0x0000000000008460      0x114 C:/Users/oukeh/OneDrive/桌面/code-mod-example/code-mod-framework/lib/libnx_min/nx/lib\libnx_min.a(virtmem.o)
                0x0000000000008460                virtmemSetup
 *fill*         0x0000000000008574        0xc 
 .text.virtmemReserve
                0x0000000000008580      0x13c C:/Users/oukeh/OneDrive/桌面/code-mod-example/code-mod-framework/lib/libnx_min/nx/lib\libnx_min.a(virtmem.o)
                0x0000000000008580                virtmemReserve
 *fill*         0x00000000000086bc        0x4 
 .text.virtmemFree
                0x00000000000086c0        0x4 C:/Users/oukeh/OneDrive/桌面/code-mod-example/code-mod-framework/lib/libnx_min/nx/lib\libnx_min.a(virtmem.o)
                0x00000000000086c0                virtmemFree
 *fill*         0x00000000000086c4        0xc 
 .text.virtmemReserveStack
                0x00000000000086d0       0xc8 C:/Users/oukeh/OneDrive/桌面/code-mod-example/code-mod-framework/lib/libnx_min/nx/lib\libnx_min.a(virtmem.o)
                0x00000000000086d0                virtmemReserveStack
 *fill*         0x0000000000008798        0x8 
 .text.virtmemFreeStack
                0x00000000000087a0        0x4 C:/Users/oukeh/OneDrive/桌面/code-mod-example/code-mod-framework/lib/libnx_min/nx/lib\libnx_min.a(virtmem.o)
                0x00000000000087a0                virtmemFreeStack
 *fill*         0x00000000000087a4        0xc 
 .text.mutexLock
                0x00000000000087b0       0x8c C:/Users/oukeh/OneDrive/桌面/code-mod-example/code-mod-framework/lib/libnx_min/nx/lib\libnx_min.a(mutex.o)
                0x00000000000087b0                mutexLock
 *fill*         0x000000000000883c        0x4 
 .text.mutexTryLock
                0x0000000000008840       0x34 C:/Users/oukeh/OneDrive/桌面/code-mod-example/code-mod-framework/lib/libnx_min/nx/lib\libnx_min.a(mutex.o)
                0x0000000000008840                mutexTryLock
 *fill*         0x0000000000008874        0xc 
 .text.mutexUnlock
                0x0000000000008880       0x30 C:/Users/oukeh/OneDrive/桌面/code-mod-example/code-mod-framework/lib/libnx_min/nx/lib\libnx_min.a(mutex.o)
                0x0000000000008880                mutexUnlock
 .text.rmutexLock
                0x00000000000088b0       0x4c C:/Users/oukeh/OneDrive/桌面/code-mod-example/code-mod-framework/lib/libnx_min/nx/lib\libnx_min.a(mutex.o)
                0x00000000000088b0                rmutexLock
 *fill*         0x00000000000088fc        0x4 
 .text.rmutexTryLock
                0x0000000000008900       0x5c C:/Users/oukeh/OneDrive/桌面/code-mod-example/code-mod-framework/lib/libnx_min/nx/lib\libnx_min.a(mutex.o)
                0x0000000000008900                rmutexTryLock
 *fill*         0x000000000000895c        0x4 
 .text.rmutexUnlock
                0x0000000000008960       0x1c C:/Users/oukeh/OneDrive/桌面/code-mod-example/code-mod-framework/lib/libnx_min/nx/lib\libnx_min.a(mutex.o)
                0x0000000000008960                rmutexUnlock
 *fill*         0x000000000000897c        0x4 
 .text.ipcPrepareHeader
                0x0000000000008980      0x220 C:/Users/oukeh/OneDrive/桌面/code-mod-example/code-mod-framework/lib/libnx_min/nx/lib\libnx_min.a(fs.o)
 .text.ipcParse
                0x0000000000008ba0      0x22c C:/Users/oukeh/OneDrive/桌面/code-mod-example/code-mod-framework/lib/libnx_min/nx/lib\libnx_min.a(fs.o)
 *fill*         0x0000000000008dcc        0x4 
 .text.serviceIpcParse
                0x0000000000008dd0       0xb0 C:/Users/oukeh/OneDrive/桌面/code-mod-example/code-mod-framework/lib/libnx_min/nx/lib\libnx_min.a(fs.o)
 .text.ipcCloseObjectById
                0x0000000000008e80       0x34 C:/Users/oukeh/OneDrive/桌面/code-mod-example/code-mod-framework/lib/libnx_min/nx/lib\libnx_min.a(fs.o)
 *fill*         0x0000000000008eb4        0xc 
 .text._fsDeviceOperatorCheckInserted
                0x0000000000008ec0      0x19c C:/Users/oukeh/OneDrive/桌面/code-mod-example/code-mod-framework/lib/libnx_min/nx/lib\libnx_min.a(fs.o)
 *fill*         0x000000000000905c        0x4 
 .text.fsFsQueryEntry.part.12
                0x0000000000009060      0x274 C:/Users/oukeh/OneDrive/桌面/code-mod-example/code-mod-framework/lib/libnx_min/nx/lib\libnx_min.a(fs.o)
 *fill*         0x00000000000092d4        0xc 
 .text.fsInitialize
                0x00000000000092e0      0x200 C:/Users/oukeh/OneDrive/桌面/code-mod-example/code-mod-framework/lib/libnx_min/nx/lib\libnx_min.a(fs.o)
                0x00000000000092e0                fsInitialize
 .text.fsExit   0x00000000000094e0       0x9c C:/Users/oukeh/OneDrive/桌面/code-mod-example/code-mod-framework/lib/libnx_min/nx/lib\libnx_min.a(fs.o)
                0x00000000000094e0                fsExit
 *fill*         0x000000000000957c        0x4 
 .text.fsGetServiceSession
                0x0000000000009580        0xc C:/Users/oukeh/OneDrive/桌面/code-mod-example/code-mod-framework/lib/libnx_min/nx/lib\libnx_min.a(fs.o)
                0x0000000000009580                fsGetServiceSession
 *fill*         0x000000000000958c        0x4 
 .text.fsOpenBisStorage
                0x0000000000009590      0x1ec C:/Users/oukeh/OneDrive/桌面/code-mod-example/code-mod-framework/lib/libnx_min/nx/lib\libnx_min.a(fs.o)
                0x0000000000009590                fsOpenBisStorage
 *fill*         0x000000000000977c        0x4 
 .text.fsOpenBisFileSystem
                0x0000000000009780      0x170 C:/Users/oukeh/OneDrive/桌面/code-mod-example/code-mod-framework/lib/libnx_min/nx/lib\libnx_min.a(fs.o)
                0x0000000000009780                fsOpenBisFileSystem
 .text.fsMountSdcard
                0x00000000000098f0      0x1cc C:/Users/oukeh/OneDrive/桌面/code-mod-example/code-mod-framework/lib/libnx_min/nx/lib\libnx_min.a(fs.o)
                0x00000000000098f0                fsMountSdcard
 *fill*         0x0000000000009abc        0x4 
 .text.fsMountSaveData
                0x0000000000009ac0      0x208 C:/Users/oukeh/OneDrive/桌面/code-mod-example/code-mod-framework/lib/libnx_min/nx/lib\libnx_min.a(fs.o)
                0x0000000000009ac0                fsMountSaveData
 *fill*         0x0000000000009cc8        0x8 
 .text.fsMountSystemSaveData
                0x0000000000009cd0      0x208 C:/Users/oukeh/OneDrive/桌面/code-mod-example/code-mod-framework/lib/libnx_min/nx/lib\libnx_min.a(fs.o)
                0x0000000000009cd0                fsMountSystemSaveData
 *fill*         0x0000000000009ed8        0x8 
 .text.fsOpenSaveDataIterator
                0x0000000000009ee0      0x1e0 C:/Users/oukeh/OneDrive/桌面/code-mod-example/code-mod-framework/lib/libnx_min/nx/lib\libnx_min.a(fs.o)
                0x0000000000009ee0                fsOpenSaveDataIterator
 .text.fsOpenContentStorageFileSystem
                0x000000000000a0c0      0x1d4 C:/Users/oukeh/OneDrive/桌面/code-mod-example/code-mod-framework/lib/libnx_min/nx/lib\libnx_min.a(fs.o)
                0x000000000000a0c0                fsOpenContentStorageFileSystem
 *fill*         0x000000000000a294        0xc 
 .text.fsOpenDataStorageByCurrentProcess
                0x000000000000a2a0      0x1cc C:/Users/oukeh/OneDrive/桌面/code-mod-example/code-mod-framework/lib/libnx_min/nx/lib\libnx_min.a(fs.o)
                0x000000000000a2a0                fsOpenDataStorageByCurrentProcess
 *fill*         0x000000000000a46c        0x4 
 .text.fsOpenDataStorageByDataId
                0x000000000000a470      0x200 C:/Users/oukeh/OneDrive/桌面/code-mod-example/code-mod-framework/lib/libnx_min/nx/lib\libnx_min.a(fs.o)
                0x000000000000a470                fsOpenDataStorageByDataId
 .text.fsOpenDeviceOperator
                0x000000000000a670      0x1cc C:/Users/oukeh/OneDrive/桌面/code-mod-example/code-mod-framework/lib/libnx_min/nx/lib\libnx_min.a(fs.o)
                0x000000000000a670                fsOpenDeviceOperator
 *fill*         0x000000000000a83c        0x4 
 .text.fsOpenSdCardDetectionEventNotifier
                0x000000000000a840      0x1cc C:/Users/oukeh/OneDrive/桌面/code-mod-example/code-mod-framework/lib/libnx_min/nx/lib\libnx_min.a(fs.o)
                0x000000000000a840                fsOpenSdCardDetectionEventNotifier
 *fill*         0x000000000000aa0c        0x4 
 .text.fsGetRightsIdByPath
                0x000000000000aa10      0x174 C:/Users/oukeh/OneDrive/桌面/code-mod-example/code-mod-framework/lib/libnx_min/nx/lib\libnx_min.a(fs.o)
                0x000000000000aa10                fsGetRightsIdByPath
 *fill*         0x000000000000ab84        0xc 
 .text.fsGetRightsIdAndKeyGenerationByPath
                0x000000000000ab90      0x184 C:/Users/oukeh/OneDrive/桌面/code-mod-example/code-mod-framework/lib/libnx_min/nx/lib\libnx_min.a(fs.o)
                0x000000000000ab90                fsGetRightsIdAndKeyGenerationByPath
 *fill*         0x000000000000ad14        0xc 
 .text.fsIsExFatSupported
                0x000000000000ad20      0x138 C:/Users/oukeh/OneDrive/桌面/code-mod-example/code-mod-framework/lib/libnx_min/nx/lib\libnx_min.a(fs.o)
                0x000000000000ad20                fsIsExFatSupported
 *fill*         0x000000000000ae58        0x8 
 .text.fsMount_SaveData
                0x000000000000ae60       0x3c C:/Users/oukeh/OneDrive/桌面/code-mod-example/code-mod-framework/lib/libnx_min/nx/lib\libnx_min.a(fs.o)
                0x000000000000ae60                fsMount_SaveData
 *fill*         0x000000000000ae9c        0x4 
 .text.fsMount_SystemSaveData
                0x000000000000aea0       0x30 C:/Users/oukeh/OneDrive/桌面/code-mod-example/code-mod-framework/lib/libnx_min/nx/lib\libnx_min.a(fs.o)
                0x000000000000aea0                fsMount_SystemSaveData
 .text.fsOpenFileSystemWithId
                0x000000000000aed0      0x248 C:/Users/oukeh/OneDrive/桌面/code-mod-example/code-mod-framework/lib/libnx_min/nx/lib\libnx_min.a(fs.o)
                0x000000000000aed0                fsOpenFileSystemWithId
 *fill*         0x000000000000b118        0x8 
 .text.fsOpenFileSystem
                0x000000000000b120       0x10 C:/Users/oukeh/OneDrive/桌面/code-mod-example/code-mod-framework/lib/libnx_min/nx/lib\libnx_min.a(fs.o)
                0x000000000000b120                fsOpenFileSystem
 .text.fsOpenFileSystemWithPatch
                0x000000000000b130      0x184 C:/Users/oukeh/OneDrive/桌面/code-mod-example/code-mod-framework/lib/libnx_min/nx/lib\libnx_min.a(fs.o)
                0x000000000000b130                fsOpenFileSystemWithPatch
 *fill*         0x000000000000b2b4        0xc 
 .text.fsFsCreateFile
                0x000000000000b2c0      0x1a4 C:/Users/oukeh/OneDrive/桌面/code-mod-example/code-mod-framework/lib/libnx_min/nx/lib\libnx_min.a(fs.o)
                0x000000000000b2c0                fsFsCreateFile
 *fill*         0x000000000000b464        0xc 
 .text.fsFsDeleteFile
                0x000000000000b470      0x19c C:/Users/oukeh/OneDrive/桌面/code-mod-example/code-mod-framework/lib/libnx_min/nx/lib\libnx_min.a(fs.o)
                0x000000000000b470                fsFsDeleteFile
 *fill*         0x000000000000b60c        0x4 
 .text.fsFsCreateDirectory
                0x000000000000b610      0x19c C:/Users/oukeh/OneDrive/桌面/code-mod-example/code-mod-framework/lib/libnx_min/nx/lib\libnx_min.a(fs.o)
                0x000000000000b610                fsFsCreateDirectory
 *fill*         0x000000000000b7ac        0x4 
 .text.fsFsDeleteDirectory
                0x000000000000b7b0      0x19c C:/Users/oukeh/OneDrive/桌面/code-mod-example/code-mod-framework/lib/libnx_min/nx/lib\libnx_min.a(fs.o)
                0x000000000000b7b0                fsFsDeleteDirectory
 *fill*         0x000000000000b94c        0x4 
 .text.fsFsDeleteDirectoryRecursively
                0x000000000000b950      0x19c C:/Users/oukeh/OneDrive/桌面/code-mod-example/code-mod-framework/lib/libnx_min/nx/lib\libnx_min.a(fs.o)
                0x000000000000b950                fsFsDeleteDirectoryRecursively
 *fill*         0x000000000000baec        0x4 
 .text.fsFsRenameFile
                0x000000000000baf0      0x214 C:/Users/oukeh/OneDrive/桌面/code-mod-example/code-mod-framework/lib/libnx_min/nx/lib\libnx_min.a(fs.o)
                0x000000000000baf0                fsFsRenameFile
 *fill*         0x000000000000bd04        0xc 
 .text.fsFsRenameDirectory
                0x000000000000bd10      0x214 C:/Users/oukeh/OneDrive/桌面/code-mod-example/code-mod-framework/lib/libnx_min/nx/lib\libnx_min.a(fs.o)
                0x000000000000bd10                fsFsRenameDirectory
 *fill*         0x000000000000bf24        0xc 
 .text.fsFsGetEntryType
                0x000000000000bf30      0x1b0 C:/Users/oukeh/OneDrive/桌面/code-mod-example/code-mod-framework/lib/libnx_min/nx/lib\libnx_min.a(fs.o)
                0x000000000000bf30                fsFsGetEntryType
 .text.fsFsOpenFile
                0x000000000000c0e0      0x1e4 C:/Users/oukeh/OneDrive/桌面/code-mod-example/code-mod-framework/lib/libnx_min/nx/lib\libnx_min.a(fs.o)
                0x000000000000c0e0                fsFsOpenFile
 *fill*         0x000000000000c2c4        0xc 
 .text.fsFsOpenDirectory
                0x000000000000c2d0      0x1f8 C:/Users/oukeh/OneDrive/桌面/code-mod-example/code-mod-framework/lib/libnx_min/nx/lib\libnx_min.a(fs.o)
                0x000000000000c2d0                fsFsOpenDirectory
 *fill*         0x000000000000c4c8        0x8 
 .text.fsFsCommit
                0x000000000000c4d0      0x17c C:/Users/oukeh/OneDrive/桌面/code-mod-example/code-mod-framework/lib/libnx_min/nx/lib\libnx_min.a(fs.o)
                0x000000000000c4d0                fsFsCommit
 *fill*         0x000000000000c64c        0x4 
 .text.fsFsGetFreeSpace
                0x000000000000c650      0x1b0 C:/Users/oukeh/OneDrive/桌面/code-mod-example/code-mod-framework/lib/libnx_min/nx/lib\libnx_min.a(fs.o)
                0x000000000000c650                fsFsGetFreeSpace
 .text.fsFsGetTotalSpace
                0x000000000000c800      0x1b0 C:/Users/oukeh/OneDrive/桌面/code-mod-example/code-mod-framework/lib/libnx_min/nx/lib\libnx_min.a(fs.o)
                0x000000000000c800                fsFsGetTotalSpace
 .text.fsFsCleanDirectoryRecursively
                0x000000000000c9b0      0x140 C:/Users/oukeh/OneDrive/桌面/code-mod-example/code-mod-framework/lib/libnx_min/nx/lib\libnx_min.a(fs.o)
                0x000000000000c9b0                fsFsCleanDirectoryRecursively
 .text.fsFsGetFileTimeStampRaw
                0x000000000000caf0      0x194 C:/Users/oukeh/OneDrive/桌面/code-mod-example/code-mod-framework/lib/libnx_min/nx/lib\libnx_min.a(fs.o)
                0x000000000000caf0                fsFsGetFileTimeStampRaw
 *fill*         0x000000000000cc84        0xc 
 .text.fsFsQueryEntry
                0x000000000000cc90       0x60 C:/Users/oukeh/OneDrive/桌面/code-mod-example/code-mod-framework/lib/libnx_min/nx/lib\libnx_min.a(fs.o)
                0x000000000000cc90                fsFsQueryEntry
 .text.fsFsSetArchiveBit
                0x000000000000ccf0       0x1c C:/Users/oukeh/OneDrive/桌面/code-mod-example/code-mod-framework/lib/libnx_min/nx/lib\libnx_min.a(fs.o)
                0x000000000000ccf0                fsFsSetArchiveBit
 *fill*         0x000000000000cd0c        0x4 
 .text.fsFsClose
                0x000000000000cd10       0x6c C:/Users/oukeh/OneDrive/桌面/code-mod-example/code-mod-framework/lib/libnx_min/nx/lib\libnx_min.a(fs.o)
                0x000000000000cd10                fsFsClose
 *fill*         0x000000000000cd7c        0x4 
 .text.fsFileRead
                0x000000000000cd80      0x1f8 C:/Users/oukeh/OneDrive/桌面/code-mod-example/code-mod-framework/lib/libnx_min/nx/lib\libnx_min.a(fs.o)
                0x000000000000cd80                fsFileRead
 *fill*         0x000000000000cf78        0x8 
 .text.fsFileWrite
                0x000000000000cf80      0x1cc C:/Users/oukeh/OneDrive/桌面/code-mod-example/code-mod-framework/lib/libnx_min/nx/lib\libnx_min.a(fs.o)
                0x000000000000cf80                fsFileWrite
 *fill*         0x000000000000d14c        0x4 
 .text.fsFileFlush
                0x000000000000d150      0x17c C:/Users/oukeh/OneDrive/桌面/code-mod-example/code-mod-framework/lib/libnx_min/nx/lib\libnx_min.a(fs.o)
                0x000000000000d150                fsFileFlush
 *fill*         0x000000000000d2cc        0x4 
 .text.fsFileSetSize
                0x000000000000d2d0      0x18c C:/Users/oukeh/OneDrive/桌面/code-mod-example/code-mod-framework/lib/libnx_min/nx/lib\libnx_min.a(fs.o)
                0x000000000000d2d0                fsFileSetSize
 *fill*         0x000000000000d45c        0x4 
 .text.fsFileGetSize
                0x000000000000d460      0x194 C:/Users/oukeh/OneDrive/桌面/code-mod-example/code-mod-framework/lib/libnx_min/nx/lib\libnx_min.a(fs.o)
                0x000000000000d460                fsFileGetSize
 *fill*         0x000000000000d5f4        0xc 
 .text.fsFileOperateRange
                0x000000000000d600      0x180 C:/Users/oukeh/OneDrive/桌面/code-mod-example/code-mod-framework/lib/libnx_min/nx/lib\libnx_min.a(fs.o)
                0x000000000000d600                fsFileOperateRange
 .text.fsFileClose
                0x000000000000d780       0x6c C:/Users/oukeh/OneDrive/桌面/code-mod-example/code-mod-framework/lib/libnx_min/nx/lib\libnx_min.a(fs.o)
                0x000000000000d780                fsFileClose
 *fill*         0x000000000000d7ec        0x4 
 .text.fsDirClose
                0x000000000000d7f0       0x6c C:/Users/oukeh/OneDrive/桌面/code-mod-example/code-mod-framework/lib/libnx_min/nx/lib\libnx_min.a(fs.o)
                0x000000000000d7f0                fsDirClose
 *fill*         0x000000000000d85c        0x4 
 .text.fsDirRead
                0x000000000000d860      0x1ec C:/Users/oukeh/OneDrive/桌面/code-mod-example/code-mod-framework/lib/libnx_min/nx/lib\libnx_min.a(fs.o)
                0x000000000000d860                fsDirRead
 *fill*         0x000000000000da4c        0x4 
 .text.fsDirGetEntryCount
                0x000000000000da50      0x198 C:/Users/oukeh/OneDrive/桌面/code-mod-example/code-mod-framework/lib/libnx_min/nx/lib\libnx_min.a(fs.o)
                0x000000000000da50                fsDirGetEntryCount
 *fill*         0x000000000000dbe8        0x8 
 .text.fsStorageRead
                0x000000000000dbf0      0x1d0 C:/Users/oukeh/OneDrive/桌面/code-mod-example/code-mod-framework/lib/libnx_min/nx/lib\libnx_min.a(fs.o)
                0x000000000000dbf0                fsStorageRead
 .text.fsStorageWrite
                0x000000000000ddc0      0x1d0 C:/Users/oukeh/OneDrive/桌面/code-mod-example/code-mod-framework/lib/libnx_min/nx/lib\libnx_min.a(fs.o)
                0x000000000000ddc0                fsStorageWrite
 .text.fsStorageFlush
                0x000000000000df90      0x17c C:/Users/oukeh/OneDrive/桌面/code-mod-example/code-mod-framework/lib/libnx_min/nx/lib\libnx_min.a(fs.o)
                0x000000000000df90                fsStorageFlush
 *fill*         0x000000000000e10c        0x4 
 .text.fsStorageSetSize
                0x000000000000e110      0x18c C:/Users/oukeh/OneDrive/桌面/code-mod-example/code-mod-framework/lib/libnx_min/nx/lib\libnx_min.a(fs.o)
                0x000000000000e110                fsStorageSetSize
 *fill*         0x000000000000e29c        0x4 
 .text.fsStorageGetSize
                0x000000000000e2a0      0x194 C:/Users/oukeh/OneDrive/桌面/code-mod-example/code-mod-framework/lib/libnx_min/nx/lib\libnx_min.a(fs.o)
                0x000000000000e2a0                fsStorageGetSize
 *fill*         0x000000000000e434        0xc 
 .text.fsStorageOperateRange
                0x000000000000e440      0x180 C:/Users/oukeh/OneDrive/桌面/code-mod-example/code-mod-framework/lib/libnx_min/nx/lib\libnx_min.a(fs.o)
                0x000000000000e440                fsStorageOperateRange
 .text.fsStorageClose
                0x000000000000e5c0       0x6c C:/Users/oukeh/OneDrive/桌面/code-mod-example/code-mod-framework/lib/libnx_min/nx/lib\libnx_min.a(fs.o)
                0x000000000000e5c0                fsStorageClose
 *fill*         0x000000000000e62c        0x4 
 .text.fsSaveDataIteratorRead
                0x000000000000e630      0x1d0 C:/Users/oukeh/OneDrive/桌面/code-mod-example/code-mod-framework/lib/libnx_min/nx/lib\libnx_min.a(fs.o)
                0x000000000000e630                fsSaveDataIteratorRead
 .text.fsSaveDataIteratorClose
                0x000000000000e800       0x6c C:/Users/oukeh/OneDrive/桌面/code-mod-example/code-mod-framework/lib/libnx_min/nx/lib\libnx_min.a(fs.o)
                0x000000000000e800                fsSaveDataIteratorClose
 *fill*         0x000000000000e86c        0x4 
 .text.fsEventNotifierGetEventHandle
                0x000000000000e870      0x188 C:/Users/oukeh/OneDrive/桌面/code-mod-example/code-mod-framework/lib/libnx_min/nx/lib\libnx_min.a(fs.o)
                0x000000000000e870                fsEventNotifierGetEventHandle
 *fill*         0x000000000000e9f8        0x8 
 .text.fsEventNotifierClose
                0x000000000000ea00       0x6c C:/Users/oukeh/OneDrive/桌面/code-mod-example/code-mod-framework/lib/libnx_min/nx/lib\libnx_min.a(fs.o)
                0x000000000000ea00                fsEventNotifierClose
 *fill*         0x000000000000ea6c        0x4 
 .text.fsDeviceOperatorIsSdCardInserted
                0x000000000000ea70        0xc C:/Users/oukeh/OneDrive/桌面/code-mod-example/code-mod-framework/lib/libnx_min/nx/lib\libnx_min.a(fs.o)
                0x000000000000ea70                fsDeviceOperatorIsSdCardInserted
 *fill*         0x000000000000ea7c        0x4 
 .text.fsDeviceOperatorIsGameCardInserted
                0x000000000000ea80        0xc C:/Users/oukeh/OneDrive/桌面/code-mod-example/code-mod-framework/lib/libnx_min/nx/lib\libnx_min.a(fs.o)
                0x000000000000ea80                fsDeviceOperatorIsGameCardInserted
 *fill*         0x000000000000ea8c        0x4 
 .text.fsDeviceOperatorGetGameCardHandle
                0x000000000000ea90      0x190 C:/Users/oukeh/OneDrive/桌面/code-mod-example/code-mod-framework/lib/libnx_min/nx/lib\libnx_min.a(fs.o)
                0x000000000000ea90                fsDeviceOperatorGetGameCardHandle
 .text.fsDeviceOperatorGetGameCardAttribute
                0x000000000000ec20      0x18c C:/Users/oukeh/OneDrive/桌面/code-mod-example/code-mod-framework/lib/libnx_min/nx/lib\libnx_min.a(fs.o)
                0x000000000000ec20                fsDeviceOperatorGetGameCardAttribute
 *fill*         0x000000000000edac        0x4 
 .text.fsDeviceOperatorClose
                0x000000000000edb0       0x6c C:/Users/oukeh/OneDrive/桌面/code-mod-example/code-mod-framework/lib/libnx_min/nx/lib\libnx_min.a(fs.o)
                0x000000000000edb0                fsDeviceOperatorClose
 *fill*         0x000000000000ee1c        0x4 
 .text.ipcCloseObjectById
                0x000000000000ee20       0x34 C:/Users/oukeh/OneDrive/桌面/code-mod-example/code-mod-framework/lib/libnx_min/nx/lib\libnx_min.a(set.o)
 *fill*         0x000000000000ee54        0xc 
 .text._setMakeLanguageCode
                0x000000000000ee60       0xf4 C:/Users/oukeh/OneDrive/桌面/code-mod-example/code-mod-framework/lib/libnx_min/nx/lib\libnx_min.a(set.o)
 *fill*         0x000000000000ef54        0xc 
 .text._setsysGetFirmwareVersionImpl
                0x000000000000ef60      0x1d4 C:/Users/oukeh/OneDrive/桌面/code-mod-example/code-mod-framework/lib/libnx_min/nx/lib\libnx_min.a(set.o)
 *fill*         0x000000000000f134        0xc 
 .text.setInitialize
                0x000000000000f140       0x44 C:/Users/oukeh/OneDrive/桌面/code-mod-example/code-mod-framework/lib/libnx_min/nx/lib\libnx_min.a(set.o)
                0x000000000000f140                setInitialize
 *fill*         0x000000000000f184        0xc 
 .text.setExit  0x000000000000f190       0x9c C:/Users/oukeh/OneDrive/桌面/code-mod-example/code-mod-framework/lib/libnx_min/nx/lib\libnx_min.a(set.o)
                0x000000000000f190                setExit
 *fill*         0x000000000000f22c        0x4 
 .text.setsysInitialize
                0x000000000000f230       0x3c C:/Users/oukeh/OneDrive/桌面/code-mod-example/code-mod-framework/lib/libnx_min/nx/lib\libnx_min.a(set.o)
                0x000000000000f230                setsysInitialize
 *fill*         0x000000000000f26c        0x4 
 .text.setsysExit
                0x000000000000f270       0x9c C:/Users/oukeh/OneDrive/桌面/code-mod-example/code-mod-framework/lib/libnx_min/nx/lib\libnx_min.a(set.o)
                0x000000000000f270                setsysExit
 *fill*         0x000000000000f30c        0x4 
 .text.setGetLanguageCode
                0x000000000000f310       0xec C:/Users/oukeh/OneDrive/桌面/code-mod-example/code-mod-framework/lib/libnx_min/nx/lib\libnx_min.a(set.o)
                0x000000000000f310                setGetLanguageCode
 *fill*         0x000000000000f3fc        0x4 
 .text.setGetSystemLanguage
                0x000000000000f400        0x4 C:/Users/oukeh/OneDrive/桌面/code-mod-example/code-mod-framework/lib/libnx_min/nx/lib\libnx_min.a(set.o)
                0x000000000000f400                setGetSystemLanguage
 *fill*         0x000000000000f404        0xc 
 .text.setGetAvailableLanguageCodeCount
                0x000000000000f410      0x10c C:/Users/oukeh/OneDrive/桌面/code-mod-example/code-mod-framework/lib/libnx_min/nx/lib\libnx_min.a(set.o)
                0x000000000000f410                setGetAvailableLanguageCodeCount
 *fill*         0x000000000000f51c        0x4 
 .text.setGetAvailableLanguageCodes
                0x000000000000f520      0x1b4 C:/Users/oukeh/OneDrive/桌面/code-mod-example/code-mod-framework/lib/libnx_min/nx/lib\libnx_min.a(set.o)
                0x000000000000f520                setGetAvailableLanguageCodes
 *fill*         0x000000000000f6d4        0xc 
 .text.setInitializeLanguageCodesCache
                0x000000000000f6e0       0x70 C:/Users/oukeh/OneDrive/桌面/code-mod-example/code-mod-framework/lib/libnx_min/nx/lib\libnx_min.a(set.o)
 .text.setMakeLanguage
                0x000000000000f750       0x8c C:/Users/oukeh/OneDrive/桌面/code-mod-example/code-mod-framework/lib/libnx_min/nx/lib\libnx_min.a(set.o)
                0x000000000000f750                setMakeLanguage
 *fill*         0x000000000000f7dc        0x4 
 .text.setMakeLanguageCode
                0x000000000000f7e0       0x80 C:/Users/oukeh/OneDrive/桌面/code-mod-example/code-mod-framework/lib/libnx_min/nx/lib\libnx_min.a(set.o)
                0x000000000000f7e0                setMakeLanguageCode
 .text.setGetRegionCode
                0x000000000000f860       0xf0 C:/Users/oukeh/OneDrive/桌面/code-mod-example/code-mod-framework/lib/libnx_min/nx/lib\libnx_min.a(set.o)
                0x000000000000f860                setGetRegionCode
 .text.setsysGetColorSetId
                0x000000000000f950       0xe4 C:/Users/oukeh/OneDrive/桌面/code-mod-example/code-mod-framework/lib/libnx_min/nx/lib\libnx_min.a(set.o)
                0x000000000000f950                setsysGetColorSetId
 *fill*         0x000000000000fa34        0xc 
 .text.setsysSetColorSetId
                0x000000000000fa40       0xd0 C:/Users/oukeh/OneDrive/桌面/code-mod-example/code-mod-framework/lib/libnx_min/nx/lib\libnx_min.a(set.o)
                0x000000000000fa40                setsysSetColorSetId
 .text.setsysGetSettingsItemValue
                0x000000000000fb10      0x19c C:/Users/oukeh/OneDrive/桌面/code-mod-example/code-mod-framework/lib/libnx_min/nx/lib\libnx_min.a(set.o)
                0x000000000000fb10                setsysGetSettingsItemValue
 *fill*         0x000000000000fcac        0x4 
 .text.setsysGetSettingsItemValueSize
                0x000000000000fcb0      0x198 C:/Users/oukeh/OneDrive/桌面/code-mod-example/code-mod-framework/lib/libnx_min/nx/lib\libnx_min.a(set.o)
                0x000000000000fcb0                setsysGetSettingsItemValueSize
 *fill*         0x000000000000fe48        0x8 
 .text.setsysGetSerialNumber
                0x000000000000fe50      0x108 C:/Users/oukeh/OneDrive/桌面/code-mod-example/code-mod-framework/lib/libnx_min/nx/lib\libnx_min.a(set.o)
                0x000000000000fe50                setsysGetSerialNumber
 *fill*         0x000000000000ff58        0x8 
 .text.setsysGetFlag
                0x000000000000ff60       0xec C:/Users/oukeh/OneDrive/桌面/code-mod-example/code-mod-framework/lib/libnx_min/nx/lib\libnx_min.a(set.o)
                0x000000000000ff60                setsysGetFlag
 *fill*         0x000000000001004c        0x4 
 .text.setsysSetFlag
                0x0000000000010050       0xd0 C:/Users/oukeh/OneDrive/桌面/code-mod-example/code-mod-framework/lib/libnx_min/nx/lib\libnx_min.a(set.o)
                0x0000000000010050                setsysSetFlag
 .text.setsysGetFirmwareVersion
                0x0000000000010120       0x44 C:/Users/oukeh/OneDrive/桌面/code-mod-example/code-mod-framework/lib/libnx_min/nx/lib\libnx_min.a(set.o)
                0x0000000000010120                setsysGetFirmwareVersion
 *fill*         0x0000000000010164        0xc 
 .text.setsysBindFatalDirtyFlagEvent
                0x0000000000010170      0x13c C:/Users/oukeh/OneDrive/桌面/code-mod-example/code-mod-framework/lib/libnx_min/nx/lib\libnx_min.a(set.o)
                0x0000000000010170                setsysBindFatalDirtyFlagEvent
 *fill*         0x00000000000102ac        0x4 
 .text.setsysGetFatalDirtyFlags
                0x00000000000102b0       0xf8 C:/Users/oukeh/OneDrive/桌面/code-mod-example/code-mod-framework/lib/libnx_min/nx/lib\libnx_min.a(set.o)
                0x00000000000102b0                setsysGetFatalDirtyFlags
 *fill*         0x00000000000103a8        0x8 
 .text.setsysGetDeviceNickname
                0x00000000000103b0       0xf8 C:/Users/oukeh/OneDrive/桌面/code-mod-example/code-mod-framework/lib/libnx_min/nx/lib\libnx_min.a(set.o)
                0x00000000000103b0                setsysGetDeviceNickname
 *fill*         0x00000000000104a8        0x8 
 .text.setsysSetDeviceNickname
                0x00000000000104b0      0x134 C:/Users/oukeh/OneDrive/桌面/code-mod-example/code-mod-framework/lib/libnx_min/nx/lib\libnx_min.a(set.o)
                0x00000000000104b0                setsysSetDeviceNickname
 *fill*         0x00000000000105e4        0xc 
 .text._fatalImpl
                0x00000000000105f0      0x140 C:/Users/oukeh/OneDrive/桌面/code-mod-example/code-mod-framework/lib/libnx_min/nx/lib\libnx_min.a(fatal.o)
 .text.fatalWithType
                0x0000000000010730       0x14 C:/Users/oukeh/OneDrive/桌面/code-mod-example/code-mod-framework/lib/libnx_min/nx/lib\libnx_min.a(fatal.o)
                0x0000000000010730                fatalWithType
 *fill*         0x0000000000010744        0xc 
 .text.fatalSimple
                0x0000000000010750       0x14 C:/Users/oukeh/OneDrive/桌面/code-mod-example/code-mod-framework/lib/libnx_min/nx/lib\libnx_min.a(fatal.o)
                0x0000000000010750                fatalSimple
 *fill*         0x0000000000010764        0xc 
 .text.fatalWithContext
                0x0000000000010770       0x14 C:/Users/oukeh/OneDrive/桌面/code-mod-example/code-mod-framework/lib/libnx_min/nx/lib\libnx_min.a(fatal.o)
                0x0000000000010770                fatalWithContext
 *fill*         0x0000000000010784        0xc 
 .text.ipcCloseObjectById
                0x0000000000010790       0x34 C:/Users/oukeh/OneDrive/桌面/code-mod-example/code-mod-framework/lib/libnx_min/nx/lib\libnx_min.a(sm.o)
 *fill*         0x00000000000107c4        0xc 
 .text.smAddOverrideHandle
                0x00000000000107d0       0x44 C:/Users/oukeh/OneDrive/桌面/code-mod-example/code-mod-framework/lib/libnx_min/nx/lib\libnx_min.a(sm.o)
                0x00000000000107d0                smAddOverrideHandle
 *fill*         0x0000000000010814        0xc 
 .text.smGetServiceOverride
                0x0000000000010820       0x60 C:/Users/oukeh/OneDrive/桌面/code-mod-example/code-mod-framework/lib/libnx_min/nx/lib\libnx_min.a(sm.o)
                0x0000000000010820                smGetServiceOverride
 .text.smHasInitialized
                0x0000000000010880       0x14 C:/Users/oukeh/OneDrive/桌面/code-mod-example/code-mod-framework/lib/libnx_min/nx/lib\libnx_min.a(sm.o)
                0x0000000000010880                smHasInitialized
 *fill*         0x0000000000010894        0xc 
 .text.smExit   0x00000000000108a0       0x9c C:/Users/oukeh/OneDrive/桌面/code-mod-example/code-mod-framework/lib/libnx_min/nx/lib\libnx_min.a(sm.o)
                0x00000000000108a0                smExit
 *fill*         0x000000000001093c        0x4 
 .text.smGetServiceSession
                0x0000000000010940        0xc C:/Users/oukeh/OneDrive/桌面/code-mod-example/code-mod-framework/lib/libnx_min/nx/lib\libnx_min.a(sm.o)
                0x0000000000010940                smGetServiceSession
 *fill*         0x000000000001094c        0x4 
 .text.smEncodeName
                0x0000000000010950       0x38 C:/Users/oukeh/OneDrive/桌面/code-mod-example/code-mod-framework/lib/libnx_min/nx/lib\libnx_min.a(sm.o)
                0x0000000000010950                smEncodeName
 *fill*         0x0000000000010988        0x8 
 .text.smGetServiceOriginal
                0x0000000000010990      0x22c C:/Users/oukeh/OneDrive/桌面/code-mod-example/code-mod-framework/lib/libnx_min/nx/lib\libnx_min.a(sm.o)
                0x0000000000010990                smGetServiceOriginal
 *fill*         0x0000000000010bbc        0x4 
 .text.smInitialize
                0x0000000000010bc0      0x27c C:/Users/oukeh/OneDrive/桌面/code-mod-example/code-mod-framework/lib/libnx_min/nx/lib\libnx_min.a(sm.o)
                0x0000000000010bc0                smInitialize
 *fill*         0x0000000000010e3c        0x4 
 .text.smGetService
                0x0000000000010e40       0x74 C:/Users/oukeh/OneDrive/桌面/code-mod-example/code-mod-framework/lib/libnx_min/nx/lib\libnx_min.a(sm.o)
                0x0000000000010e40                smGetService
 *fill*         0x0000000000010eb4        0xc 
 .text.smRegisterService
                0x0000000000010ec0      0x25c C:/Users/oukeh/OneDrive/桌面/code-mod-example/code-mod-framework/lib/libnx_min/nx/lib\libnx_min.a(sm.o)
                0x0000000000010ec0                smRegisterService
 *fill*         0x000000000001111c        0x4 
 .text.smUnregisterService
                0x0000000000011120      0x1ac C:/Users/oukeh/OneDrive/桌面/code-mod-example/code-mod-framework/lib/libnx_min/nx/lib\libnx_min.a(sm.o)
                0x0000000000011120                smUnregisterService
 *fill*         0x00000000000112cc        0x4 
 .text._hidGetDeviceHandles.part.7
                0x00000000000112d0       0xec C:/Users/oukeh/OneDrive/桌面/code-mod-example/code-mod-framework/lib/libnx_min/nx/lib\libnx_min.a(hid.o)
 *fill*         0x00000000000113bc        0x4 
 .text.ipcCloseObjectById
                0x00000000000113c0       0x34 C:/Users/oukeh/OneDrive/桌面/code-mod-example/code-mod-framework/lib/libnx_min/nx/lib\libnx_min.a(hid.o)
 *fill*         0x00000000000113f4        0xc 
 .text._hidActivateVibrationDevice
                0x0000000000011400       0xc8 C:/Users/oukeh/OneDrive/桌面/code-mod-example/code-mod-framework/lib/libnx_min/nx/lib\libnx_min.a(hid.o)
 *fill*         0x00000000000114c8        0x8 
 .text._hidGetSharedMemoryHandle.constprop.17
                0x00000000000114d0      0x124 C:/Users/oukeh/OneDrive/桌面/code-mod-example/code-mod-framework/lib/libnx_min/nx/lib\libnx_min.a(hid.o)
 *fill*         0x00000000000115f4        0xc 
 .text._hidCreateActiveVibrationDeviceList
                0x0000000000011600      0x134 C:/Users/oukeh/OneDrive/桌面/code-mod-example/code-mod-framework/lib/libnx_min/nx/lib\libnx_min.a(hid.o)
 *fill*         0x0000000000011734        0xc 
 .text._hidCmdWithNoInput
                0x0000000000011740      0x100 C:/Users/oukeh/OneDrive/桌面/code-mod-example/code-mod-framework/lib/libnx_min/nx/lib\libnx_min.a(hid.o)
 .text._hidCreateAppletResource.constprop.16
                0x0000000000011840      0x134 C:/Users/oukeh/OneDrive/桌面/code-mod-example/code-mod-framework/lib/libnx_min/nx/lib\libnx_min.a(hid.o)
 *fill*         0x0000000000011974        0xc 
 .text._hidCmdWithInputU32
                0x0000000000011980      0x10c C:/Users/oukeh/OneDrive/桌面/code-mod-example/code-mod-framework/lib/libnx_min/nx/lib\libnx_min.a(hid.o)
 *fill*         0x0000000000011a8c        0x4 
 .text._hidCmdWithInputU64.constprop.18
                0x0000000000011a90      0x108 C:/Users/oukeh/OneDrive/桌面/code-mod-example/code-mod-framework/lib/libnx_min/nx/lib\libnx_min.a(hid.o)
 *fill*         0x0000000000011b98        0x8 
 .text._hidInitializeSevenSixAxisSensor.isra.11.constprop.19
                0x0000000000011ba0      0x1f8 C:/Users/oukeh/OneDrive/桌面/code-mod-example/code-mod-framework/lib/libnx_min/nx/lib\libnx_min.a(hid.o)
 *fill*         0x0000000000011d98        0x8 
 .text.hidReset
                0x0000000000011da0      0x1f8 C:/Users/oukeh/OneDrive/桌面/code-mod-example/code-mod-framework/lib/libnx_min/nx/lib\libnx_min.a(hid.o)
                0x0000000000011da0                hidReset
 *fill*         0x0000000000011f98        0x8 
 .text.hidGetSessionService
                0x0000000000011fa0        0xc C:/Users/oukeh/OneDrive/桌面/code-mod-example/code-mod-framework/lib/libnx_min/nx/lib\libnx_min.a(hid.o)
                0x0000000000011fa0                hidGetSessionService
 *fill*         0x0000000000011fac        0x4 
 .text.hidGetSharedmemAddr
                0x0000000000011fb0        0xc C:/Users/oukeh/OneDrive/桌面/code-mod-example/code-mod-framework/lib/libnx_min/nx/lib\libnx_min.a(hid.o)
                0x0000000000011fb0                hidGetSharedmemAddr
 *fill*         0x0000000000011fbc        0x4 
 .text.hidSetControllerLayout
                0x0000000000011fc0       0x54 C:/Users/oukeh/OneDrive/桌面/code-mod-example/code-mod-framework/lib/libnx_min/nx/lib\libnx_min.a(hid.o)
                0x0000000000011fc0                hidSetControllerLayout
 *fill*         0x0000000000012014        0xc 
 .text.hidGetControllerLayout
                0x0000000000012020       0x50 C:/Users/oukeh/OneDrive/桌面/code-mod-example/code-mod-framework/lib/libnx_min/nx/lib\libnx_min.a(hid.o)
                0x0000000000012020                hidGetControllerLayout
 .text.hidGetControllerType
                0x0000000000012070       0x78 C:/Users/oukeh/OneDrive/桌面/code-mod-example/code-mod-framework/lib/libnx_min/nx/lib\libnx_min.a(hid.o)
                0x0000000000012070                hidGetControllerType
 *fill*         0x00000000000120e8        0x8 
 .text.hidGetControllerColors
                0x00000000000120f0       0xd4 C:/Users/oukeh/OneDrive/桌面/code-mod-example/code-mod-framework/lib/libnx_min/nx/lib\libnx_min.a(hid.o)
                0x00000000000120f0                hidGetControllerColors
 *fill*         0x00000000000121c4        0xc 
 .text.hidIsControllerConnected
                0x00000000000121d0       0x7c C:/Users/oukeh/OneDrive/桌面/code-mod-example/code-mod-framework/lib/libnx_min/nx/lib\libnx_min.a(hid.o)
                0x00000000000121d0                hidIsControllerConnected
 *fill*         0x000000000001224c        0x4 
 .text.hidGetControllerDeviceType
                0x0000000000012250       0x70 C:/Users/oukeh/OneDrive/桌面/code-mod-example/code-mod-framework/lib/libnx_min/nx/lib\libnx_min.a(hid.o)
                0x0000000000012250                hidGetControllerDeviceType
 .text.hidGetControllerFlags
                0x00000000000122c0       0x90 C:/Users/oukeh/OneDrive/桌面/code-mod-example/code-mod-framework/lib/libnx_min/nx/lib\libnx_min.a(hid.o)
                0x00000000000122c0                hidGetControllerFlags
 .text.hidGetControllerPowerInfo
                0x0000000000012350      0x114 C:/Users/oukeh/OneDrive/桌面/code-mod-example/code-mod-framework/lib/libnx_min/nx/lib\libnx_min.a(hid.o)
                0x0000000000012350                hidGetControllerPowerInfo
 *fill*         0x0000000000012464        0xc 
 .text.hidKeysHeld
                0x0000000000012470       0x6c C:/Users/oukeh/OneDrive/桌面/code-mod-example/code-mod-framework/lib/libnx_min/nx/lib\libnx_min.a(hid.o)
                0x0000000000012470                hidKeysHeld
 *fill*         0x00000000000124dc        0x4 
 .text.hidKeysDown
                0x00000000000124e0       0x6c C:/Users/oukeh/OneDrive/桌面/code-mod-example/code-mod-framework/lib/libnx_min/nx/lib\libnx_min.a(hid.o)
                0x00000000000124e0                hidKeysDown
 *fill*         0x000000000001254c        0x4 
 .text.hidKeysUp
                0x0000000000012550       0x6c C:/Users/oukeh/OneDrive/桌面/code-mod-example/code-mod-framework/lib/libnx_min/nx/lib\libnx_min.a(hid.o)
                0x0000000000012550                hidKeysUp
 *fill*         0x00000000000125bc        0x4 
 .text.hidMouseButtonsHeld
                0x00000000000125c0       0x3c C:/Users/oukeh/OneDrive/桌面/code-mod-example/code-mod-framework/lib/libnx_min/nx/lib\libnx_min.a(hid.o)
                0x00000000000125c0                hidMouseButtonsHeld
 *fill*         0x00000000000125fc        0x4 
 .text.hidMouseButtonsDown
                0x0000000000012600       0x3c C:/Users/oukeh/OneDrive/桌面/code-mod-example/code-mod-framework/lib/libnx_min/nx/lib\libnx_min.a(hid.o)
                0x0000000000012600                hidMouseButtonsDown
 *fill*         0x000000000001263c        0x4 
 .text.hidMouseButtonsUp
                0x0000000000012640       0x3c C:/Users/oukeh/OneDrive/桌面/code-mod-example/code-mod-framework/lib/libnx_min/nx/lib\libnx_min.a(hid.o)
                0x0000000000012640                hidMouseButtonsUp
 *fill*         0x000000000001267c        0x4 
 .text.hidMouseRead
                0x0000000000012680       0x48 C:/Users/oukeh/OneDrive/桌面/code-mod-example/code-mod-framework/lib/libnx_min/nx/lib\libnx_min.a(hid.o)
                0x0000000000012680                hidMouseRead
 *fill*         0x00000000000126c8        0x8 
 .text.hidMouseMultiRead
                0x00000000000126d0      0x150 C:/Users/oukeh/OneDrive/桌面/code-mod-example/code-mod-framework/lib/libnx_min/nx/lib\libnx_min.a(hid.o)
                0x00000000000126d0                hidMouseMultiRead
 .text.hidKeyboardModifierHeld
                0x0000000000012820       0x48 C:/Users/oukeh/OneDrive/桌面/code-mod-example/code-mod-framework/lib/libnx_min/nx/lib\libnx_min.a(hid.o)
                0x0000000000012820                hidKeyboardModifierHeld
 *fill*         0x0000000000012868        0x8 
 .text.hidKeyboardModifierDown
                0x0000000000012870       0x48 C:/Users/oukeh/OneDrive/桌面/code-mod-example/code-mod-framework/lib/libnx_min/nx/lib\libnx_min.a(hid.o)
                0x0000000000012870                hidKeyboardModifierDown
 *fill*         0x00000000000128b8        0x8 
 .text.hidKeyboardModifierUp
                0x00000000000128c0       0x48 C:/Users/oukeh/OneDrive/桌面/code-mod-example/code-mod-framework/lib/libnx_min/nx/lib\libnx_min.a(hid.o)
                0x00000000000128c0                hidKeyboardModifierUp
 *fill*         0x0000000000012908        0x8 
 .text.hidKeyboardHeld
                0x0000000000012910       0x60 C:/Users/oukeh/OneDrive/桌面/code-mod-example/code-mod-framework/lib/libnx_min/nx/lib\libnx_min.a(hid.o)
                0x0000000000012910                hidKeyboardHeld
 .text.hidKeyboardDown
                0x0000000000012970       0x60 C:/Users/oukeh/OneDrive/桌面/code-mod-example/code-mod-framework/lib/libnx_min/nx/lib\libnx_min.a(hid.o)
                0x0000000000012970                hidKeyboardDown
 .text.hidKeyboardUp
                0x00000000000129d0       0x60 C:/Users/oukeh/OneDrive/桌面/code-mod-example/code-mod-framework/lib/libnx_min/nx/lib\libnx_min.a(hid.o)
                0x00000000000129d0                hidKeyboardUp
 .text.hidTouchCount
                0x0000000000012a30        0xc C:/Users/oukeh/OneDrive/桌面/code-mod-example/code-mod-framework/lib/libnx_min/nx/lib\libnx_min.a(hid.o)
                0x0000000000012a30                hidTouchCount
 *fill*         0x0000000000012a3c        0x4 
 .text.hidScanInput
                0x0000000000012a40      0x598 C:/Users/oukeh/OneDrive/桌面/code-mod-example/code-mod-framework/lib/libnx_min/nx/lib\libnx_min.a(hid.o)
                0x0000000000012a40                hidScanInput
 *fill*         0x0000000000012fd8        0x8 
 .text.hidTouchRead
                0x0000000000012fe0       0x54 C:/Users/oukeh/OneDrive/桌面/code-mod-example/code-mod-framework/lib/libnx_min/nx/lib\libnx_min.a(hid.o)
                0x0000000000012fe0                hidTouchRead
 *fill*         0x0000000000013034        0xc 
 .text.hidJoystickRead
                0x0000000000013040       0xac C:/Users/oukeh/OneDrive/桌面/code-mod-example/code-mod-framework/lib/libnx_min/nx/lib\libnx_min.a(hid.o)
                0x0000000000013040                hidJoystickRead
 *fill*         0x00000000000130ec        0x4 
 .text.hidSixAxisSensorValuesRead
                0x00000000000130f0      0x214 C:/Users/oukeh/OneDrive/桌面/code-mod-example/code-mod-framework/lib/libnx_min/nx/lib\libnx_min.a(hid.o)
                0x00000000000130f0                hidSixAxisSensorValuesRead
 *fill*         0x0000000000013304        0xc 
 .text.hidGetHandheldMode
                0x0000000000013310       0x14 C:/Users/oukeh/OneDrive/桌面/code-mod-example/code-mod-framework/lib/libnx_min/nx/lib\libnx_min.a(hid.o)
                0x0000000000013310                hidGetHandheldMode
 *fill*         0x0000000000013324        0xc 
 .text.hidSetSupportedNpadIdType
                0x0000000000013330      0x198 C:/Users/oukeh/OneDrive/桌面/code-mod-example/code-mod-framework/lib/libnx_min/nx/lib\libnx_min.a(hid.o)
                0x0000000000013330                hidSetSupportedNpadIdType
 *fill*         0x00000000000134c8        0x8 
 .text.hidSetSupportedNpadStyleSet
                0x00000000000134d0        0xc C:/Users/oukeh/OneDrive/桌面/code-mod-example/code-mod-framework/lib/libnx_min/nx/lib\libnx_min.a(hid.o)
                0x00000000000134d0                hidSetSupportedNpadStyleSet
 *fill*         0x00000000000134dc        0x4 
 .text.hidAcquireNpadStyleSetUpdateEventHandle
                0x00000000000134e0      0x194 C:/Users/oukeh/OneDrive/桌面/code-mod-example/code-mod-framework/lib/libnx_min/nx/lib\libnx_min.a(hid.o)
                0x00000000000134e0                hidAcquireNpadStyleSetUpdateEventHandle
 *fill*         0x0000000000013674        0xc 
 .text.hidSetNpadJoyHoldType
                0x0000000000013680        0x8 C:/Users/oukeh/OneDrive/桌面/code-mod-example/code-mod-framework/lib/libnx_min/nx/lib\libnx_min.a(hid.o)
                0x0000000000013680                hidSetNpadJoyHoldType
 *fill*         0x0000000000013688        0x8 
 .text.hidSetNpadJoyAssignmentModeSingleByDefault
                0x0000000000013690        0xc C:/Users/oukeh/OneDrive/桌面/code-mod-example/code-mod-framework/lib/libnx_min/nx/lib\libnx_min.a(hid.o)
                0x0000000000013690                hidSetNpadJoyAssignmentModeSingleByDefault
 *fill*         0x000000000001369c        0x4 
 .text.hidSetNpadJoyAssignmentModeDual
                0x00000000000136a0        0xc C:/Users/oukeh/OneDrive/桌面/code-mod-example/code-mod-framework/lib/libnx_min/nx/lib\libnx_min.a(hid.o)
                0x00000000000136a0                hidSetNpadJoyAssignmentModeDual
 *fill*         0x00000000000136ac        0x4 
 .text.hidMergeSingleJoyAsDualJoy
                0x00000000000136b0      0x110 C:/Users/oukeh/OneDrive/桌面/code-mod-example/code-mod-framework/lib/libnx_min/nx/lib\libnx_min.a(hid.o)
                0x00000000000136b0                hidMergeSingleJoyAsDualJoy
 .text.hidGetVibrationDeviceInfo
                0x00000000000137c0       0xf8 C:/Users/oukeh/OneDrive/桌面/code-mod-example/code-mod-framework/lib/libnx_min/nx/lib\libnx_min.a(hid.o)
                0x00000000000137c0                hidGetVibrationDeviceInfo
 *fill*         0x00000000000138b8        0x8 
 .text.hidSendVibrationValue
                0x00000000000138c0      0x120 C:/Users/oukeh/OneDrive/桌面/code-mod-example/code-mod-framework/lib/libnx_min/nx/lib\libnx_min.a(hid.o)
                0x00000000000138c0                hidSendVibrationValue
 .text.hidGetActualVibrationValue
                0x00000000000139e0      0x128 C:/Users/oukeh/OneDrive/桌面/code-mod-example/code-mod-framework/lib/libnx_min/nx/lib\libnx_min.a(hid.o)
                0x00000000000139e0                hidGetActualVibrationValue
 *fill*         0x0000000000013b08        0x8 
 .text.hidPermitVibration
                0x0000000000013b10       0xd0 C:/Users/oukeh/OneDrive/桌面/code-mod-example/code-mod-framework/lib/libnx_min/nx/lib\libnx_min.a(hid.o)
                0x0000000000013b10                hidPermitVibration
 .text.hidIsVibrationPermitted
                0x0000000000013be0       0xf4 C:/Users/oukeh/OneDrive/桌面/code-mod-example/code-mod-framework/lib/libnx_min/nx/lib\libnx_min.a(hid.o)
                0x0000000000013be0                hidIsVibrationPermitted
 *fill*         0x0000000000013cd4        0xc 
 .text.hidSendVibrationValues
                0x0000000000013ce0      0x144 C:/Users/oukeh/OneDrive/桌面/code-mod-example/code-mod-framework/lib/libnx_min/nx/lib\libnx_min.a(hid.o)
                0x0000000000013ce0                hidSendVibrationValues
 *fill*         0x0000000000013e24        0xc 
 .text.hidInitializeVibrationDevices
                0x0000000000013e30      0x114 C:/Users/oukeh/OneDrive/桌面/code-mod-example/code-mod-framework/lib/libnx_min/nx/lib\libnx_min.a(hid.o)
                0x0000000000013e30                hidInitializeVibrationDevices
 *fill*         0x0000000000013f44        0xc 
 .text.hidGetSixAxisSensorHandles
                0x0000000000013f50       0x2c C:/Users/oukeh/OneDrive/桌面/code-mod-example/code-mod-framework/lib/libnx_min/nx/lib\libnx_min.a(hid.o)
                0x0000000000013f50                hidGetSixAxisSensorHandles
 *fill*         0x0000000000013f7c        0x4 
 .text.hidStartSixAxisSensor
                0x0000000000013f80       0x84 C:/Users/oukeh/OneDrive/桌面/code-mod-example/code-mod-framework/lib/libnx_min/nx/lib\libnx_min.a(hid.o)
                0x0000000000013f80                hidStartSixAxisSensor
 *fill*         0x0000000000014004        0xc 
 .text.hidStopSixAxisSensor
                0x0000000000014010       0x80 C:/Users/oukeh/OneDrive/桌面/code-mod-example/code-mod-framework/lib/libnx_min/nx/lib\libnx_min.a(hid.o)
                0x0000000000014010                hidStopSixAxisSensor
 .text.hidStartSevenSixAxisSensor
                0x0000000000014090       0x30 C:/Users/oukeh/OneDrive/桌面/code-mod-example/code-mod-framework/lib/libnx_min/nx/lib\libnx_min.a(hid.o)
                0x0000000000014090                hidStartSevenSixAxisSensor
 .text.hidStopSevenSixAxisSensor
                0x00000000000140c0       0x30 C:/Users/oukeh/OneDrive/桌面/code-mod-example/code-mod-framework/lib/libnx_min/nx/lib\libnx_min.a(hid.o)
                0x00000000000140c0                hidStopSevenSixAxisSensor
 .text.hidFinalizeSevenSixAxisSensor
                0x00000000000140f0       0x80 C:/Users/oukeh/OneDrive/桌面/code-mod-example/code-mod-framework/lib/libnx_min/nx/lib\libnx_min.a(hid.o)
                0x00000000000140f0                hidFinalizeSevenSixAxisSensor
 .text.hidExit  0x0000000000014170      0x134 C:/Users/oukeh/OneDrive/桌面/code-mod-example/code-mod-framework/lib/libnx_min/nx/lib\libnx_min.a(hid.o)
                0x0000000000014170                hidExit
 *fill*         0x00000000000142a4        0xc 
 .text.hidInitialize
                0x00000000000142b0      0x168 C:/Users/oukeh/OneDrive/桌面/code-mod-example/code-mod-framework/lib/libnx_min/nx/lib\libnx_min.a(hid.o)
                0x00000000000142b0                hidInitialize
 *fill*         0x0000000000014418        0x8 
 .text.hidInitializeSevenSixAxisSensor
                0x0000000000014420      0x130 C:/Users/oukeh/OneDrive/桌面/code-mod-example/code-mod-framework/lib/libnx_min/nx/lib\libnx_min.a(hid.o)
                0x0000000000014420                hidInitializeSevenSixAxisSensor
 .text.hidSetSevenSixAxisSensorFusionStrength
                0x0000000000014550      0x1f8 C:/Users/oukeh/OneDrive/桌面/code-mod-example/code-mod-framework/lib/libnx_min/nx/lib\libnx_min.a(hid.o)
                0x0000000000014550                hidSetSevenSixAxisSensorFusionStrength
 *fill*         0x0000000000014748        0x8 
 .text.hidGetSevenSixAxisSensorFusionStrength
                0x0000000000014750      0x1fc C:/Users/oukeh/OneDrive/桌面/code-mod-example/code-mod-framework/lib/libnx_min/nx/lib\libnx_min.a(hid.o)
                0x0000000000014750                hidGetSevenSixAxisSensorFusionStrength
 *fill*         0x000000000001494c        0x4 
 .text.hidResetSevenSixAxisSensorTimestamp
                0x0000000000014950       0x30 C:/Users/oukeh/OneDrive/桌面/code-mod-example/code-mod-framework/lib/libnx_min/nx/lib\libnx_min.a(hid.o)
                0x0000000000014950                hidResetSevenSixAxisSensorTimestamp
 .text.ipcCloseObjectById
                0x0000000000014980       0x34 C:/Users/oukeh/OneDrive/桌面/code-mod-example/code-mod-framework/lib/libnx_min/nx/lib\libnx_min.a(time.o)
 *fill*         0x00000000000149b4        0xc 
 .text._timeGetSession
                0x00000000000149c0      0x12c C:/Users/oukeh/OneDrive/桌面/code-mod-example/code-mod-framework/lib/libnx_min/nx/lib\libnx_min.a(time.o)
 *fill*         0x0000000000014aec        0x4 
 .text.timeExit
                0x0000000000014af0      0x1ec C:/Users/oukeh/OneDrive/桌面/code-mod-example/code-mod-framework/lib/libnx_min/nx/lib\libnx_min.a(time.o)
                0x0000000000014af0                timeExit
 *fill*         0x0000000000014cdc        0x4 
 .text.timeInitialize
                0x0000000000014ce0       0xd8 C:/Users/oukeh/OneDrive/桌面/code-mod-example/code-mod-framework/lib/libnx_min/nx/lib\libnx_min.a(time.o)
                0x0000000000014ce0                timeInitialize
 *fill*         0x0000000000014db8        0x8 
 .text.timeGetSessionService
                0x0000000000014dc0        0xc C:/Users/oukeh/OneDrive/桌面/code-mod-example/code-mod-framework/lib/libnx_min/nx/lib\libnx_min.a(time.o)
                0x0000000000014dc0                timeGetSessionService
 *fill*         0x0000000000014dcc        0x4 
 .text.timeGetCurrentTime
                0x0000000000014dd0      0x124 C:/Users/oukeh/OneDrive/桌面/code-mod-example/code-mod-framework/lib/libnx_min/nx/lib\libnx_min.a(time.o)
                0x0000000000014dd0                timeGetCurrentTime
 *fill*         0x0000000000014ef4        0xc 
 .text.timeSetCurrentTime
                0x0000000000014f00      0x104 C:/Users/oukeh/OneDrive/桌面/code-mod-example/code-mod-framework/lib/libnx_min/nx/lib\libnx_min.a(time.o)
                0x0000000000014f00                timeSetCurrentTime
 *fill*         0x0000000000015004        0xc 
 .text.timeToCalendarTimeWithMyRule
                0x0000000000015010      0x118 C:/Users/oukeh/OneDrive/桌面/code-mod-example/code-mod-framework/lib/libnx_min/nx/lib\libnx_min.a(time.o)
                0x0000000000015010                timeToCalendarTimeWithMyRule
 *fill*         0x0000000000015128        0x8 
 .text.ipcPrepareHeader
                0x0000000000015130      0x220 C:/Users/oukeh/OneDrive/桌面/code-mod-example/code-mod-framework/lib/libnx_min/nx/lib\libnx_min.a(applet.o)
 .text.ipcParse
                0x0000000000015350      0x22c C:/Users/oukeh/OneDrive/桌面/code-mod-example/code-mod-framework/lib/libnx_min/nx/lib\libnx_min.a(applet.o)
 *fill*         0x000000000001557c        0x4 
 .text.serviceIpcParse
                0x0000000000015580       0xb0 C:/Users/oukeh/OneDrive/桌面/code-mod-example/code-mod-framework/lib/libnx_min/nx/lib\libnx_min.a(applet.o)
 .text.ipcConvertSessionToDomain
                0x0000000000015630       0x78 C:/Users/oukeh/OneDrive/桌面/code-mod-example/code-mod-framework/lib/libnx_min/nx/lib\libnx_min.a(applet.o)
 *fill*         0x00000000000156a8        0x8 
 .text.ipcQueryPointerBufferSize
                0x00000000000156b0       0x7c C:/Users/oukeh/OneDrive/桌面/code-mod-example/code-mod-framework/lib/libnx_min/nx/lib\libnx_min.a(applet.o)
 *fill*         0x000000000001572c        0x4 
 .text.ipcCloneSession.constprop.52
                0x0000000000015730       0x84 C:/Users/oukeh/OneDrive/桌面/code-mod-example/code-mod-framework/lib/libnx_min/nx/lib\libnx_min.a(applet.o)
 *fill*         0x00000000000157b4        0xc 
 .text.ipcCloseObjectById
                0x00000000000157c0       0x34 C:/Users/oukeh/OneDrive/桌面/code-mod-example/code-mod-framework/lib/libnx_min/nx/lib\libnx_min.a(applet.o)
 *fill*         0x00000000000157f4        0xc 
 .text.serviceClose
                0x0000000000015800       0x6c C:/Users/oukeh/OneDrive/桌面/code-mod-example/code-mod-framework/lib/libnx_min/nx/lib\libnx_min.a(applet.o)
 *fill*         0x000000000001586c        0x4 
 .text._appletCmdInHandle64
                0x0000000000015870      0x204 C:/Users/oukeh/OneDrive/桌面/code-mod-example/code-mod-framework/lib/libnx_min/nx/lib\libnx_min.a(applet.o)
 *fill*         0x0000000000015a74        0xc 
 .text._appletReceiveMessage
                0x0000000000015a80      0x19c C:/Users/oukeh/OneDrive/桌面/code-mod-example/code-mod-framework/lib/libnx_min/nx/lib\libnx_min.a(applet.o)
 *fill*         0x0000000000015c1c        0x4 
 .text._appletCmdNoIO
                0x0000000000015c20      0x164 C:/Users/oukeh/OneDrive/桌面/code-mod-example/code-mod-framework/lib/libnx_min/nx/lib\libnx_min.a(applet.o)
 *fill*         0x0000000000015d84        0xc 
 .text._appletGetOperationMode.constprop.43
                0x0000000000015d90      0x18c C:/Users/oukeh/OneDrive/桌面/code-mod-example/code-mod-framework/lib/libnx_min/nx/lib\libnx_min.a(applet.o)
 *fill*         0x0000000000015f1c        0x4 
 .text._appletGetCurrentFocusState.constprop.45
                0x0000000000015f20      0x18c C:/Users/oukeh/OneDrive/桌面/code-mod-example/code-mod-framework/lib/libnx_min/nx/lib\libnx_min.a(applet.o)
 *fill*         0x00000000000160ac        0x4 
 .text._appletGetPerformanceMode.constprop.44
                0x00000000000160b0      0x18c C:/Users/oukeh/OneDrive/桌面/code-mod-example/code-mod-framework/lib/libnx_min/nx/lib\libnx_min.a(applet.o)
 *fill*         0x000000000001623c        0x4 
 .text._appletCmdNoInOutBool
                0x0000000000016240      0x184 C:/Users/oukeh/OneDrive/桌面/code-mod-example/code-mod-framework/lib/libnx_min/nx/lib\libnx_min.a(applet.o)
 *fill*         0x00000000000163c4        0xc 
 .text._appletGetSession
                0x00000000000163d0      0x1d8 C:/Users/oukeh/OneDrive/桌面/code-mod-example/code-mod-framework/lib/libnx_min/nx/lib\libnx_min.a(applet.o)
 *fill*         0x00000000000165a8        0x8 
 .text._appletCmdNoInOut64
                0x00000000000165b0      0x17c C:/Users/oukeh/OneDrive/桌面/code-mod-example/code-mod-framework/lib/libnx_min/nx/lib\libnx_min.a(applet.o)
 *fill*         0x000000000001672c        0x4 
 .text._appletSetOperationModeChangedNotification.constprop.46
                0x0000000000016730      0x164 C:/Users/oukeh/OneDrive/桌面/code-mod-example/code-mod-framework/lib/libnx_min/nx/lib\libnx_min.a(applet.o)
 *fill*         0x0000000000016894        0xc 
 .text._appletCmdInU8
                0x00000000000168a0      0x17c C:/Users/oukeh/OneDrive/桌面/code-mod-example/code-mod-framework/lib/libnx_min/nx/lib\libnx_min.a(applet.o)
 *fill*         0x0000000000016a1c        0x4 
 .text._appletSetOutOfFocusSuspendingEnabled
                0x0000000000016a20      0x16c C:/Users/oukeh/OneDrive/桌面/code-mod-example/code-mod-framework/lib/libnx_min/nx/lib\libnx_min.a(applet.o)
 *fill*         0x0000000000016b8c        0x4 
 .text._appletSetPerformanceModeChangedNotification.constprop.47
                0x0000000000016b90      0x164 C:/Users/oukeh/OneDrive/桌面/code-mod-example/code-mod-framework/lib/libnx_min/nx/lib\libnx_min.a(applet.o)
 *fill*         0x0000000000016cf4        0xc 
 .text._appletCmdInU64.constprop.37
                0x0000000000016d00      0x16c C:/Users/oukeh/OneDrive/桌面/code-mod-example/code-mod-framework/lib/libnx_min/nx/lib\libnx_min.a(applet.o)
 *fill*         0x0000000000016e6c        0x4 
 .text._appletCmdInU32.constprop.48
                0x0000000000016e70      0x16c C:/Users/oukeh/OneDrive/桌面/code-mod-example/code-mod-framework/lib/libnx_min/nx/lib\libnx_min.a(applet.o)
 *fill*         0x0000000000016fdc        0x4 
 .text._appletSetFocusHandlingMode
                0x0000000000016fe0      0x17c C:/Users/oukeh/OneDrive/桌面/code-mod-example/code-mod-framework/lib/libnx_min/nx/lib\libnx_min.a(applet.o)
 *fill*         0x000000000001715c        0x4 
 .text._appletGetHandle.constprop.42
                0x0000000000017160      0x178 C:/Users/oukeh/OneDrive/桌面/code-mod-example/code-mod-framework/lib/libnx_min/nx/lib\libnx_min.a(applet.o)
 *fill*         0x00000000000172d8        0x8 
 .text._appletGetEvent.constprop.41
                0x00000000000172e0       0x54 C:/Users/oukeh/OneDrive/桌面/code-mod-example/code-mod-framework/lib/libnx_min/nx/lib\libnx_min.a(applet.o)
 *fill*         0x0000000000017334        0xc 
 .text._appletWaitLibraryAppletLaunchableEvent
                0x0000000000017340       0x50 C:/Users/oukeh/OneDrive/桌面/code-mod-example/code-mod-framework/lib/libnx_min/nx/lib\libnx_min.a(applet.o)
 .text._appletCreateApplicationAndRequestToStartForQuest.isra.20
                0x0000000000017390      0x17c C:/Users/oukeh/OneDrive/桌面/code-mod-example/code-mod-framework/lib/libnx_min/nx/lib\libnx_min.a(applet.o)
 *fill*         0x000000000001750c        0x4 
 .text._appletCreateApplicationAndPushAndRequestToStart
                0x0000000000017510      0x1e0 C:/Users/oukeh/OneDrive/桌面/code-mod-example/code-mod-framework/lib/libnx_min/nx/lib\libnx_min.a(applet.o)
 .text._appletCmdNoInOut32.constprop.38
                0x00000000000176f0      0x194 C:/Users/oukeh/OneDrive/桌面/code-mod-example/code-mod-framework/lib/libnx_min/nx/lib\libnx_min.a(applet.o)
 *fill*         0x0000000000017884        0xc 
 .text._appletCmdInSession
                0x0000000000017890      0x1d8 C:/Users/oukeh/OneDrive/桌面/code-mod-example/code-mod-framework/lib/libnx_min/nx/lib\libnx_min.a(applet.o)
 *fill*         0x0000000000017a68        0x8 
 .text._appletStorageGetHandle
                0x0000000000017a70      0x19c C:/Users/oukeh/OneDrive/桌面/code-mod-example/code-mod-framework/lib/libnx_min/nx/lib\libnx_min.a(applet.o)
 *fill*         0x0000000000017c0c        0x4 
 .text._appletCreateApplicationAndPushAndRequestToStartForQuest.isra.21
                0x0000000000017c10      0x1e8 C:/Users/oukeh/OneDrive/桌面/code-mod-example/code-mod-framework/lib/libnx_min/nx/lib\libnx_min.a(applet.o)
 *fill*         0x0000000000017df8        0x8 
 .text._appletCreateTransferMemoryStorage.isra.25
                0x0000000000017e00      0x1e4 C:/Users/oukeh/OneDrive/桌面/code-mod-example/code-mod-framework/lib/libnx_min/nx/lib\libnx_min.a(applet.o)
 *fill*         0x0000000000017fe4        0xc 
 .text._appletGetSessionIn64.constprop.39
                0x0000000000017ff0      0x1c4 C:/Users/oukeh/OneDrive/桌面/code-mod-example/code-mod-framework/lib/libnx_min/nx/lib\libnx_min.a(applet.o)
 *fill*         0x00000000000181b4        0xc 
 .text._appletStorageAccessorRW
                0x00000000000181c0      0x314 C:/Users/oukeh/OneDrive/桌面/code-mod-example/code-mod-framework/lib/libnx_min/nx/lib\libnx_min.a(applet.o)
 *fill*         0x00000000000184d4        0xc 
 .text._appletStorageRW
                0x00000000000184e0      0x108 C:/Users/oukeh/OneDrive/桌面/code-mod-example/code-mod-framework/lib/libnx_min/nx/lib\libnx_min.a(applet.o)
 *fill*         0x00000000000185e8        0x8 
 .text._appletCreateLibraryApplet
                0x00000000000185f0      0x1c4 C:/Users/oukeh/OneDrive/桌面/code-mod-example/code-mod-framework/lib/libnx_min/nx/lib\libnx_min.a(applet.o)
 *fill*         0x00000000000187b4        0xc 
 .text._appletGetSessionProxy.constprop.40
                0x00000000000187c0      0x1f0 C:/Users/oukeh/OneDrive/桌面/code-mod-example/code-mod-framework/lib/libnx_min/nx/lib\libnx_min.a(applet.o)
 .text.appletGetAppletType
                0x00000000000189b0       0x10 C:/Users/oukeh/OneDrive/桌面/code-mod-example/code-mod-framework/lib/libnx_min/nx/lib\libnx_min.a(applet.o)
                0x00000000000189b0                appletGetAppletType
 .text.appletHook
                0x00000000000189c0       0x28 C:/Users/oukeh/OneDrive/桌面/code-mod-example/code-mod-framework/lib/libnx_min/nx/lib\libnx_min.a(applet.o)
                0x00000000000189c0                appletHook
 *fill*         0x00000000000189e8        0x8 
 .text.appletUnhook
                0x00000000000189f0       0x34 C:/Users/oukeh/OneDrive/桌面/code-mod-example/code-mod-framework/lib/libnx_min/nx/lib\libnx_min.a(applet.o)
                0x00000000000189f0                appletUnhook
 *fill*         0x0000000000018a24        0xc 
 .text.appletSetThemeColorType
                0x0000000000018a30        0xc C:/Users/oukeh/OneDrive/桌面/code-mod-example/code-mod-framework/lib/libnx_min/nx/lib\libnx_min.a(applet.o)
                0x0000000000018a30                appletSetThemeColorType
 *fill*         0x0000000000018a3c        0x4 
 .text.appletGetThemeColorType
                0x0000000000018a40        0xc C:/Users/oukeh/OneDrive/桌面/code-mod-example/code-mod-framework/lib/libnx_min/nx/lib\libnx_min.a(applet.o)
                0x0000000000018a40                appletGetThemeColorType
 *fill*         0x0000000000018a4c        0x4 
 .text.appletSetFocusHandlingMode
                0x0000000000018a50       0xf0 C:/Users/oukeh/OneDrive/桌面/code-mod-example/code-mod-framework/lib/libnx_min/nx/lib\libnx_min.a(applet.o)
                0x0000000000018a50                appletSetFocusHandlingMode
 .text.appletGetAppletResourceUserId
                0x0000000000018b40       0x28 C:/Users/oukeh/OneDrive/桌面/code-mod-example/code-mod-framework/lib/libnx_min/nx/lib\libnx_min.a(applet.o)
                0x0000000000018b40                appletGetAppletResourceUserId
 *fill*         0x0000000000018b68        0x8 
 .text._appletGetIndirectLayerConsumerHandle
                0x0000000000018b70      0x12c C:/Users/oukeh/OneDrive/桌面/code-mod-example/code-mod-framework/lib/libnx_min/nx/lib\libnx_min.a(applet.o)
 *fill*         0x0000000000018c9c        0x4 
 .text._appletHolderCreate
                0x0000000000018ca0       0xc0 C:/Users/oukeh/OneDrive/桌面/code-mod-example/code-mod-framework/lib/libnx_min/nx/lib\libnx_min.a(applet.o)
 .text.appletPopLaunchParameter
                0x0000000000018d60      0x194 C:/Users/oukeh/OneDrive/桌面/code-mod-example/code-mod-framework/lib/libnx_min/nx/lib\libnx_min.a(applet.o)
                0x0000000000018d60                appletPopLaunchParameter
 *fill*         0x0000000000018ef4        0xc 
 .text.appletGetDesiredLanguage
                0x0000000000018f00       0x3c C:/Users/oukeh/OneDrive/桌面/code-mod-example/code-mod-framework/lib/libnx_min/nx/lib\libnx_min.a(applet.o)
                0x0000000000018f00                appletGetDesiredLanguage
 *fill*         0x0000000000018f3c        0x4 
 .text.appletSetTerminateResult
                0x0000000000018f40      0x14c C:/Users/oukeh/OneDrive/桌面/code-mod-example/code-mod-framework/lib/libnx_min/nx/lib\libnx_min.a(applet.o)
                0x0000000000018f40                appletSetTerminateResult
 *fill*         0x000000000001908c        0x4 
 .text.appletSetMediaPlaybackState
                0x0000000000019090       0x4c C:/Users/oukeh/OneDrive/桌面/code-mod-example/code-mod-framework/lib/libnx_min/nx/lib\libnx_min.a(applet.o)
                0x0000000000019090                appletSetMediaPlaybackState
 *fill*         0x00000000000190dc        0x4 
 .text.appletBeginBlockingHomeButton
                0x00000000000190e0      0x14c C:/Users/oukeh/OneDrive/桌面/code-mod-example/code-mod-framework/lib/libnx_min/nx/lib\libnx_min.a(applet.o)
                0x00000000000190e0                appletBeginBlockingHomeButton
 *fill*         0x000000000001922c        0x4 
 .text.appletEndBlockingHomeButton
                0x0000000000019230       0x38 C:/Users/oukeh/OneDrive/桌面/code-mod-example/code-mod-framework/lib/libnx_min/nx/lib\libnx_min.a(applet.o)
                0x0000000000019230                appletEndBlockingHomeButton
 *fill*         0x0000000000019268        0x8 
 .text.appletNotifyRunning
                0x0000000000019270      0x174 C:/Users/oukeh/OneDrive/桌面/code-mod-example/code-mod-framework/lib/libnx_min/nx/lib\libnx_min.a(applet.o)
                0x0000000000019270                appletNotifyRunning
 *fill*         0x00000000000193e4        0xc 
 .text.appletIsGamePlayRecordingSupported
                0x00000000000193f0      0x168 C:/Users/oukeh/OneDrive/桌面/code-mod-example/code-mod-framework/lib/libnx_min/nx/lib\libnx_min.a(applet.o)
                0x00000000000193f0                appletIsGamePlayRecordingSupported
 *fill*         0x0000000000019558        0x8 
 .text.appletSetGamePlayRecordingState
                0x0000000000019560      0x158 C:/Users/oukeh/OneDrive/桌面/code-mod-example/code-mod-framework/lib/libnx_min/nx/lib\libnx_min.a(applet.o)
                0x0000000000019560                appletSetGamePlayRecordingState
 *fill*         0x00000000000196b8        0x8 
 .text.appletInitializeGamePlayRecording
                0x00000000000196c0      0x138 C:/Users/oukeh/OneDrive/桌面/code-mod-example/code-mod-framework/lib/libnx_min/nx/lib\libnx_min.a(applet.o)
                0x00000000000196c0                appletInitializeGamePlayRecording
 *fill*         0x00000000000197f8        0x8 
 .text.appletQueryApplicationPlayStatistics
                0x0000000000019800      0x1c0 C:/Users/oukeh/OneDrive/桌面/code-mod-example/code-mod-framework/lib/libnx_min/nx/lib\libnx_min.a(applet.o)
                0x0000000000019800                appletQueryApplicationPlayStatistics
 .text.appletBeginToWatchShortHomeButtonMessage
                0x00000000000199c0       0x2c C:/Users/oukeh/OneDrive/桌面/code-mod-example/code-mod-framework/lib/libnx_min/nx/lib\libnx_min.a(applet.o)
                0x00000000000199c0                appletBeginToWatchShortHomeButtonMessage
 *fill*         0x00000000000199ec        0x4 
 .text.appletEndToWatchShortHomeButtonMessage
                0x00000000000199f0       0x2c C:/Users/oukeh/OneDrive/桌面/code-mod-example/code-mod-framework/lib/libnx_min/nx/lib\libnx_min.a(applet.o)
                0x00000000000199f0                appletEndToWatchShortHomeButtonMessage
 *fill*         0x0000000000019a1c        0x4 
 .text.appletHomeButtonReaderLockAccessorGetEvent
                0x0000000000019a20       0xc8 C:/Users/oukeh/OneDrive/桌面/code-mod-example/code-mod-framework/lib/libnx_min/nx/lib\libnx_min.a(applet.o)
                0x0000000000019a20                appletHomeButtonReaderLockAccessorGetEvent
 *fill*         0x0000000000019ae8        0x8 
 .text.appletIsVrModeEnabled
                0x0000000000019af0       0x4c C:/Users/oukeh/OneDrive/桌面/code-mod-example/code-mod-framework/lib/libnx_min/nx/lib\libnx_min.a(applet.o)
                0x0000000000019af0                appletIsVrModeEnabled
 *fill*         0x0000000000019b3c        0x4 
 .text.appletSetVrModeEnabled
                0x0000000000019b40       0x78 C:/Users/oukeh/OneDrive/桌面/code-mod-example/code-mod-framework/lib/libnx_min/nx/lib\libnx_min.a(applet.o)
                0x0000000000019b40                appletSetVrModeEnabled
 *fill*         0x0000000000019bb8        0x8 
 .text.appletSetCpuBoostMode
                0x0000000000019bc0       0x50 C:/Users/oukeh/OneDrive/桌面/code-mod-example/code-mod-framework/lib/libnx_min/nx/lib\libnx_min.a(applet.o)
                0x0000000000019bc0                appletSetCpuBoostMode
 .text.appletExit
                0x0000000000019c10      0x5dc C:/Users/oukeh/OneDrive/桌面/code-mod-example/code-mod-framework/lib/libnx_min/nx/lib\libnx_min.a(applet.o)
                0x0000000000019c10                appletExit
 *fill*         0x000000000001a1ec        0x4 
 .text.appletInitialize
                0x000000000001a1f0      0x4f0 C:/Users/oukeh/OneDrive/桌面/code-mod-example/code-mod-framework/lib/libnx_min/nx/lib\libnx_min.a(applet.o)
                0x000000000001a1f0                appletInitialize
 .text._appletExitProcess
                0x000000000001a6e0       0x10 C:/Users/oukeh/OneDrive/桌面/code-mod-example/code-mod-framework/lib/libnx_min/nx/lib\libnx_min.a(applet.o)
 .text.appletGetCurrentPerformanceConfiguration
                0x000000000001a6f0       0x40 C:/Users/oukeh/OneDrive/桌面/code-mod-example/code-mod-framework/lib/libnx_min/nx/lib\libnx_min.a(applet.o)
                0x000000000001a6f0                appletGetCurrentPerformanceConfiguration
 .text.appletLockExit
                0x000000000001a730       0x10 C:/Users/oukeh/OneDrive/桌面/code-mod-example/code-mod-framework/lib/libnx_min/nx/lib\libnx_min.a(applet.o)
                0x000000000001a730                appletLockExit
 .text.appletUnlockExit
                0x000000000001a740       0x10 C:/Users/oukeh/OneDrive/桌面/code-mod-example/code-mod-framework/lib/libnx_min/nx/lib\libnx_min.a(applet.o)
                0x000000000001a740                appletUnlockExit
 .text.appletSetScreenShotPermission
                0x000000000001a750      0x16c C:/Users/oukeh/OneDrive/桌面/code-mod-example/code-mod-framework/lib/libnx_min/nx/lib\libnx_min.a(applet.o)
                0x000000000001a750                appletSetScreenShotPermission
 *fill*         0x000000000001a8bc        0x4 
 .text.appletSetScreenShotImageOrientation
                0x000000000001a8c0      0x1c4 C:/Users/oukeh/OneDrive/桌面/code-mod-example/code-mod-framework/lib/libnx_min/nx/lib\libnx_min.a(applet.o)
                0x000000000001a8c0                appletSetScreenShotImageOrientation
 *fill*         0x000000000001aa84        0xc 
 .text.appletCreateManagedDisplayLayer
                0x000000000001aa90       0x14 C:/Users/oukeh/OneDrive/桌面/code-mod-example/code-mod-framework/lib/libnx_min/nx/lib\libnx_min.a(applet.o)
                0x000000000001aa90                appletCreateManagedDisplayLayer
 *fill*         0x000000000001aaa4        0xc 
 .text.appletGetCurrentIlluminance
                0x000000000001aab0      0x168 C:/Users/oukeh/OneDrive/桌面/code-mod-example/code-mod-framework/lib/libnx_min/nx/lib\libnx_min.a(applet.o)
                0x000000000001aab0                appletGetCurrentIlluminance
 *fill*         0x000000000001ac18        0x8 
 .text.appletIsIlluminanceAvailable
                0x000000000001ac20       0x4c C:/Users/oukeh/OneDrive/桌面/code-mod-example/code-mod-framework/lib/libnx_min/nx/lib\libnx_min.a(applet.o)
                0x000000000001ac20                appletIsIlluminanceAvailable
 *fill*         0x000000000001ac6c        0x4 
 .text.appletGetCurrentIlluminanceEx
                0x000000000001ac70      0x19c C:/Users/oukeh/OneDrive/桌面/code-mod-example/code-mod-framework/lib/libnx_min/nx/lib\libnx_min.a(applet.o)
                0x000000000001ac70                appletGetCurrentIlluminanceEx
 *fill*         0x000000000001ae0c        0x4 
 .text.appletCreateLibraryApplet
                0x000000000001ae10        0x8 C:/Users/oukeh/OneDrive/桌面/code-mod-example/code-mod-framework/lib/libnx_min/nx/lib\libnx_min.a(applet.o)
                0x000000000001ae10                appletCreateLibraryApplet
 *fill*         0x000000000001ae18        0x8 
 .text.appletCreateLibraryAppletSelf
                0x000000000001ae20        0x8 C:/Users/oukeh/OneDrive/桌面/code-mod-example/code-mod-framework/lib/libnx_min/nx/lib\libnx_min.a(applet.o)
                0x000000000001ae20                appletCreateLibraryAppletSelf
 *fill*         0x000000000001ae28        0x8 
 .text.appletHolderClose
                0x000000000001ae30       0x94 C:/Users/oukeh/OneDrive/桌面/code-mod-example/code-mod-framework/lib/libnx_min/nx/lib\libnx_min.a(applet.o)
                0x000000000001ae30                appletHolderClose
 *fill*         0x000000000001aec4        0xc 
 .text.appletHolderActive
                0x000000000001aed0       0x10 C:/Users/oukeh/OneDrive/桌面/code-mod-example/code-mod-framework/lib/libnx_min/nx/lib\libnx_min.a(applet.o)
                0x000000000001aed0                appletHolderActive
 .text.appletHolderGetIndirectLayerConsumerHandle
                0x000000000001aee0       0x74 C:/Users/oukeh/OneDrive/桌面/code-mod-example/code-mod-framework/lib/libnx_min/nx/lib\libnx_min.a(applet.o)
                0x000000000001aee0                appletHolderGetIndirectLayerConsumerHandle
 *fill*         0x000000000001af54        0xc 
 .text.appletHolderStart
                0x000000000001af60       0x50 C:/Users/oukeh/OneDrive/桌面/code-mod-example/code-mod-framework/lib/libnx_min/nx/lib\libnx_min.a(applet.o)
                0x000000000001af60                appletHolderStart
 .text.appletHolderJoin
                0x000000000001afb0       0x80 C:/Users/oukeh/OneDrive/桌面/code-mod-example/code-mod-framework/lib/libnx_min/nx/lib\libnx_min.a(applet.o)
                0x000000000001afb0                appletHolderJoin
 .text.appletHolderCheckFinished
                0x000000000001b030       0x24 C:/Users/oukeh/OneDrive/桌面/code-mod-example/code-mod-framework/lib/libnx_min/nx/lib\libnx_min.a(applet.o)
                0x000000000001b030                appletHolderCheckFinished
 *fill*         0x000000000001b054        0xc 
 .text.appletHolderRequestExit
                0x000000000001b060       0x50 C:/Users/oukeh/OneDrive/桌面/code-mod-example/code-mod-framework/lib/libnx_min/nx/lib\libnx_min.a(applet.o)
                0x000000000001b060                appletHolderRequestExit
 .text.appletHolderGetExitReason
                0x000000000001b0b0        0x8 C:/Users/oukeh/OneDrive/桌面/code-mod-example/code-mod-framework/lib/libnx_min/nx/lib\libnx_min.a(applet.o)
                0x000000000001b0b0                appletHolderGetExitReason
 *fill*         0x000000000001b0b8        0x8 
 .text.appletHolderWaitInteractiveOut
                0x000000000001b0c0       0x88 C:/Users/oukeh/OneDrive/桌面/code-mod-example/code-mod-framework/lib/libnx_min/nx/lib\libnx_min.a(applet.o)
                0x000000000001b0c0                appletHolderWaitInteractiveOut
 *fill*         0x000000000001b148        0x8 
 .text.appletHolderPopOutData
                0x000000000001b150       0x18 C:/Users/oukeh/OneDrive/桌面/code-mod-example/code-mod-framework/lib/libnx_min/nx/lib\libnx_min.a(applet.o)
                0x000000000001b150                appletHolderPopOutData
 *fill*         0x000000000001b168        0x8 
 .text.appletHolderPopInteractiveOutData
                0x000000000001b170       0x18 C:/Users/oukeh/OneDrive/桌面/code-mod-example/code-mod-framework/lib/libnx_min/nx/lib\libnx_min.a(applet.o)
                0x000000000001b170                appletHolderPopInteractiveOutData
 *fill*         0x000000000001b188        0x8 
 .text.appletCreateStorage
                0x000000000001b190       0x14 C:/Users/oukeh/OneDrive/桌面/code-mod-example/code-mod-framework/lib/libnx_min/nx/lib\libnx_min.a(applet.o)
                0x000000000001b190                appletCreateStorage
 *fill*         0x000000000001b1a4        0xc 
 .text.appletCreateTransferMemoryStorage
                0x000000000001b1b0       0xa8 C:/Users/oukeh/OneDrive/桌面/code-mod-example/code-mod-framework/lib/libnx_min/nx/lib\libnx_min.a(applet.o)
                0x000000000001b1b0                appletCreateTransferMemoryStorage
 *fill*         0x000000000001b258        0x8 
 .text.appletCreateHandleStorage
                0x000000000001b260       0x64 C:/Users/oukeh/OneDrive/桌面/code-mod-example/code-mod-framework/lib/libnx_min/nx/lib\libnx_min.a(applet.o)
                0x000000000001b260                appletCreateHandleStorage
 *fill*         0x000000000001b2c4        0xc 
 .text.appletCreateHandleStorageTmem
                0x000000000001b2d0       0xa0 C:/Users/oukeh/OneDrive/桌面/code-mod-example/code-mod-framework/lib/libnx_min/nx/lib\libnx_min.a(applet.o)
                0x000000000001b2d0                appletCreateHandleStorageTmem
 .text.appletStorageClose
                0x000000000001b370       0x6c C:/Users/oukeh/OneDrive/桌面/code-mod-example/code-mod-framework/lib/libnx_min/nx/lib\libnx_min.a(applet.o)
                0x000000000001b370                appletStorageClose
 *fill*         0x000000000001b3dc        0x4 
 .text.appletRequestLaunchApplication
                0x000000000001b3e0      0x188 C:/Users/oukeh/OneDrive/桌面/code-mod-example/code-mod-framework/lib/libnx_min/nx/lib\libnx_min.a(applet.o)
                0x000000000001b3e0                appletRequestLaunchApplication
 *fill*         0x000000000001b568        0x8 
 .text.appletRequestLaunchApplicationForQuest
                0x000000000001b570      0x168 C:/Users/oukeh/OneDrive/桌面/code-mod-example/code-mod-framework/lib/libnx_min/nx/lib\libnx_min.a(applet.o)
                0x000000000001b570                appletRequestLaunchApplicationForQuest
 *fill*         0x000000000001b6d8        0x8 
 .text.appletHolderPushInteractiveInData
                0x000000000001b6e0       0x40 C:/Users/oukeh/OneDrive/桌面/code-mod-example/code-mod-framework/lib/libnx_min/nx/lib\libnx_min.a(applet.o)
                0x000000000001b6e0                appletHolderPushInteractiveInData
 .text.appletPushToGeneralChannel
                0x000000000001b720       0x4c C:/Users/oukeh/OneDrive/桌面/code-mod-example/code-mod-framework/lib/libnx_min/nx/lib\libnx_min.a(applet.o)
                0x000000000001b720                appletPushToGeneralChannel
 *fill*         0x000000000001b76c        0x4 
 .text.appletHolderPushInData
                0x000000000001b770       0x40 C:/Users/oukeh/OneDrive/桌面/code-mod-example/code-mod-framework/lib/libnx_min/nx/lib\libnx_min.a(applet.o)
                0x000000000001b770                appletHolderPushInData
 .text.appletHolderPushExtraStorage
                0x000000000001b7b0       0x40 C:/Users/oukeh/OneDrive/桌面/code-mod-example/code-mod-framework/lib/libnx_min/nx/lib\libnx_min.a(applet.o)
                0x000000000001b7b0                appletHolderPushExtraStorage
 .text.appletStorageCloseTmem
                0x000000000001b7f0        0x8 C:/Users/oukeh/OneDrive/桌面/code-mod-example/code-mod-framework/lib/libnx_min/nx/lib\libnx_min.a(applet.o)
                0x000000000001b7f0                appletStorageCloseTmem
 *fill*         0x000000000001b7f8        0x8 
 .text.appletStorageGetSize
                0x000000000001b800       0xc4 C:/Users/oukeh/OneDrive/桌面/code-mod-example/code-mod-framework/lib/libnx_min/nx/lib\libnx_min.a(applet.o)
                0x000000000001b800                appletStorageGetSize
 *fill*         0x000000000001b8c4        0xc 
 .text.appletStorageWrite
                0x000000000001b8d0        0x8 C:/Users/oukeh/OneDrive/桌面/code-mod-example/code-mod-framework/lib/libnx_min/nx/lib\libnx_min.a(applet.o)
                0x000000000001b8d0                appletStorageWrite
 *fill*         0x000000000001b8d8        0x8 
 .text.appletStorageRead
                0x000000000001b8e0        0x8 C:/Users/oukeh/OneDrive/桌面/code-mod-example/code-mod-framework/lib/libnx_min/nx/lib\libnx_min.a(applet.o)
                0x000000000001b8e0                appletStorageRead
 *fill*         0x000000000001b8e8        0x8 
 .text.appletStorageGetHandle
                0x000000000001b8f0       0xfc C:/Users/oukeh/OneDrive/桌面/code-mod-example/code-mod-framework/lib/libnx_min/nx/lib\libnx_min.a(applet.o)
                0x000000000001b8f0                appletStorageGetHandle
 *fill*         0x000000000001b9ec        0x4 
 .text.appletStorageMap
                0x000000000001b9f0       0xcc C:/Users/oukeh/OneDrive/桌面/code-mod-example/code-mod-framework/lib/libnx_min/nx/lib\libnx_min.a(applet.o)
                0x000000000001b9f0                appletStorageMap
 *fill*         0x000000000001babc        0x4 
 .text.appletGetOperationMode
                0x000000000001bac0        0xc C:/Users/oukeh/OneDrive/桌面/code-mod-example/code-mod-framework/lib/libnx_min/nx/lib\libnx_min.a(applet.o)
                0x000000000001bac0                appletGetOperationMode
 *fill*         0x000000000001bacc        0x4 
 .text.appletGetPerformanceMode
                0x000000000001bad0        0xc C:/Users/oukeh/OneDrive/桌面/code-mod-example/code-mod-framework/lib/libnx_min/nx/lib\libnx_min.a(applet.o)
                0x000000000001bad0                appletGetPerformanceMode
 *fill*         0x000000000001badc        0x4 
 .text.appletGetFocusState
                0x000000000001bae0        0xc C:/Users/oukeh/OneDrive/桌面/code-mod-example/code-mod-framework/lib/libnx_min/nx/lib\libnx_min.a(applet.o)
                0x000000000001bae0                appletGetFocusState
 *fill*         0x000000000001baec        0x4 
 .text.appletGetMessage
                0x000000000001baf0       0x5c C:/Users/oukeh/OneDrive/桌面/code-mod-example/code-mod-framework/lib/libnx_min/nx/lib\libnx_min.a(applet.o)
                0x000000000001baf0                appletGetMessage
 *fill*         0x000000000001bb4c        0x4 
 .text.appletProcessMessage
                0x000000000001bb50      0x118 C:/Users/oukeh/OneDrive/桌面/code-mod-example/code-mod-framework/lib/libnx_min/nx/lib\libnx_min.a(applet.o)
                0x000000000001bb50                appletProcessMessage
 *fill*         0x000000000001bc68        0x8 
 .text.appletMainLoop
                0x000000000001bc70       0x34 C:/Users/oukeh/OneDrive/桌面/code-mod-example/code-mod-framework/lib/libnx_min/nx/lib\libnx_min.a(applet.o)
                0x000000000001bc70                appletMainLoop
 *fill*         0x000000000001bca4        0xc 
 .text.__syscall_exit
                0x000000000001bcb0       0x1c C:/Users/oukeh/OneDrive/桌面/code-mod-example/code-mod-framework/lib/libnx_min/nx/lib\libnx_min.a(newlib.o)
                0x000000000001bcb0                __syscall_exit
 *fill*         0x000000000001bccc        0x4 
 .text.__syscall_getreent
                0x000000000001bcd0       0x10 C:/Users/oukeh/OneDrive/桌面/code-mod-example/code-mod-framework/lib/libnx_min/nx/lib\libnx_min.a(newlib.o)
                0x000000000001bcd0                __syscall_getreent
 .text.__syscall_lock_acquire
                0x000000000001bce0        0x4 C:/Users/oukeh/OneDrive/桌面/code-mod-example/code-mod-framework/lib/libnx_min/nx/lib\libnx_min.a(newlib.o)
                0x000000000001bce0                __syscall_lock_acquire
 *fill*         0x000000000001bce4        0xc 
 .text.__syscall_lock_try_acquire
                0x000000000001bcf0       0x1c C:/Users/oukeh/OneDrive/桌面/code-mod-example/code-mod-framework/lib/libnx_min/nx/lib\libnx_min.a(newlib.o)
                0x000000000001bcf0                __syscall_lock_try_acquire
 *fill*         0x000000000001bd0c        0x4 
 .text.__syscall_lock_release
                0x000000000001bd10        0x4 C:/Users/oukeh/OneDrive/桌面/code-mod-example/code-mod-framework/lib/libnx_min/nx/lib\libnx_min.a(newlib.o)
                0x000000000001bd10                __syscall_lock_release
 *fill*         0x000000000001bd14        0xc 
 .text.__syscall_lock_acquire_recursive
                0x000000000001bd20        0x4 C:/Users/oukeh/OneDrive/桌面/code-mod-example/code-mod-framework/lib/libnx_min/nx/lib\libnx_min.a(newlib.o)
                0x000000000001bd20                __syscall_lock_acquire_recursive
 *fill*         0x000000000001bd24        0xc 
 .text.__syscall_lock_try_acquire_recursive
                0x000000000001bd30       0x1c C:/Users/oukeh/OneDrive/桌面/code-mod-example/code-mod-framework/lib/libnx_min/nx/lib\libnx_min.a(newlib.o)
                0x000000000001bd30                __syscall_lock_try_acquire_recursive
 *fill*         0x000000000001bd4c        0x4 
 .text.__syscall_lock_release_recursive
                0x000000000001bd50        0x4 C:/Users/oukeh/OneDrive/桌面/code-mod-example/code-mod-framework/lib/libnx_min/nx/lib\libnx_min.a(newlib.o)
                0x000000000001bd50                __syscall_lock_release_recursive
 *fill*         0x000000000001bd54        0xc 
 .text.__syscall_cond_signal
                0x000000000001bd60       0x40 C:/Users/oukeh/OneDrive/桌面/code-mod-example/code-mod-framework/lib/libnx_min/nx/lib\libnx_min.a(newlib.o)
                0x000000000001bd60                __syscall_cond_signal
 .text.__syscall_cond_broadcast
                0x000000000001bda0       0x40 C:/Users/oukeh/OneDrive/桌面/code-mod-example/code-mod-framework/lib/libnx_min/nx/lib\libnx_min.a(newlib.o)
                0x000000000001bda0                __syscall_cond_broadcast
 .text.__syscall_cond_wait
                0x000000000001bde0       0x3c C:/Users/oukeh/OneDrive/桌面/code-mod-example/code-mod-framework/lib/libnx_min/nx/lib\libnx_min.a(newlib.o)
                0x000000000001bde0                __syscall_cond_wait
 *fill*         0x000000000001be1c        0x4 
 .text.__syscall_cond_wait_recursive
                0x000000000001be20       0x64 C:/Users/oukeh/OneDrive/桌面/code-mod-example/code-mod-framework/lib/libnx_min/nx/lib\libnx_min.a(newlib.o)
                0x000000000001be20                __syscall_cond_wait_recursive
 *fill*         0x000000000001be84        0xc 
 .text.__syscall_thread_self
                0x000000000001be90       0x14 C:/Users/oukeh/OneDrive/桌面/code-mod-example/code-mod-framework/lib/libnx_min/nx/lib\libnx_min.a(newlib.o)
                0x000000000001be90                __syscall_thread_self
 *fill*         0x000000000001bea4        0xc 
 .text.__syscall_thread_exit
                0x000000000001beb0       0x2c C:/Users/oukeh/OneDrive/桌面/code-mod-example/code-mod-framework/lib/libnx_min/nx/lib\libnx_min.a(newlib.o)
                0x000000000001beb0                __syscall_thread_exit
 *fill*         0x000000000001bedc        0x4 
 .text.__thread_entry
                0x000000000001bee0       0x58 C:/Users/oukeh/OneDrive/桌面/code-mod-example/code-mod-framework/lib/libnx_min/nx/lib\libnx_min.a(newlib.o)
 *fill*         0x000000000001bf38        0x8 
 .text.__syscall_thread_create
                0x000000000001bf40      0x15c C:/Users/oukeh/OneDrive/桌面/code-mod-example/code-mod-framework/lib/libnx_min/nx/lib\libnx_min.a(newlib.o)
                0x000000000001bf40                __syscall_thread_create
 *fill*         0x000000000001c09c        0x4 
 .text.__syscall_thread_join
                0x000000000001c0a0       0x58 C:/Users/oukeh/OneDrive/桌面/code-mod-example/code-mod-framework/lib/libnx_min/nx/lib\libnx_min.a(newlib.o)
                0x000000000001c0a0                __syscall_thread_join
 *fill*         0x000000000001c0f8        0x8 
 .text.__syscall_tls_create
                0x000000000001c100       0x44 C:/Users/oukeh/OneDrive/桌面/code-mod-example/code-mod-framework/lib/libnx_min/nx/lib\libnx_min.a(newlib.o)
                0x000000000001c100                __syscall_tls_create
 *fill*         0x000000000001c144        0xc 
 .text.__syscall_tls_set
                0x000000000001c150       0x18 C:/Users/oukeh/OneDrive/桌面/code-mod-example/code-mod-framework/lib/libnx_min/nx/lib\libnx_min.a(newlib.o)
                0x000000000001c150                __syscall_tls_set
 *fill*         0x000000000001c168        0x8 
 .text.__syscall_tls_get
                0x000000000001c170        0x4 C:/Users/oukeh/OneDrive/桌面/code-mod-example/code-mod-framework/lib/libnx_min/nx/lib\libnx_min.a(newlib.o)
                0x000000000001c170                __syscall_tls_get
 *fill*         0x000000000001c174        0xc 
 .text.__syscall_tls_delete
                0x000000000001c180       0x18 C:/Users/oukeh/OneDrive/桌面/code-mod-example/code-mod-framework/lib/libnx_min/nx/lib\libnx_min.a(newlib.o)
                0x000000000001c180                __syscall_tls_delete
 *fill*         0x000000000001c198        0x8 
 .text.sched_yield
                0x000000000001c1a0       0x1c C:/Users/oukeh/OneDrive/桌面/code-mod-example/code-mod-framework/lib/libnx_min/nx/lib\libnx_min.a(newlib.o)
                0x000000000001c1a0                sched_yield
 *fill*         0x000000000001c1bc        0x4 
 .text.sched_getcpu
                0x000000000001c1c0        0x4 C:/Users/oukeh/OneDrive/桌面/code-mod-example/code-mod-framework/lib/libnx_min/nx/lib\libnx_min.a(newlib.o)
                0x000000000001c1c0                sched_getcpu
 *fill*         0x000000000001c1c4        0xc 
 .text.__libnx_init_time
                0x000000000001c1d0      0x27c C:/Users/oukeh/OneDrive/桌面/code-mod-example/code-mod-framework/lib/libnx_min/nx/lib\libnx_min.a(newlib.o)
                0x000000000001c1d0                __libnx_init_time
 *fill*         0x000000000001c44c        0x4 
 .text.__syscall_clock_getres
                0x000000000001c450       0x58 C:/Users/oukeh/OneDrive/桌面/code-mod-example/code-mod-framework/lib/libnx_min/nx/lib\libnx_min.a(newlib.o)
                0x000000000001c450                __syscall_clock_getres
 *fill*         0x000000000001c4a8        0x8 
 .text.__syscall_clock_gettime
                0x000000000001c4b0       0xf8 C:/Users/oukeh/OneDrive/桌面/code-mod-example/code-mod-framework/lib/libnx_min/nx/lib\libnx_min.a(newlib.o)
                0x000000000001c4b0                __syscall_clock_gettime
 *fill*         0x000000000001c5a8        0x8 
 .text.__syscall_gettod_r
                0x000000000001c5b0       0x8c C:/Users/oukeh/OneDrive/桌面/code-mod-example/code-mod-framework/lib/libnx_min/nx/lib\libnx_min.a(newlib.o)
                0x000000000001c5b0                __syscall_gettod_r
 *fill*         0x000000000001c63c        0x4 
 .text.__syscall_nanosleep
                0x000000000001c640       0x5c C:/Users/oukeh/OneDrive/桌面/code-mod-example/code-mod-framework/lib/libnx_min/nx/lib\libnx_min.a(newlib.o)
                0x000000000001c640                __syscall_nanosleep
 *fill*         0x000000000001c69c        0x4 
 .text.newlibSetup
                0x000000000001c6a0       0x74 C:/Users/oukeh/OneDrive/桌面/code-mod-example/code-mod-framework/lib/libnx_min/nx/lib\libnx_min.a(newlib.o)
                0x000000000001c6a0                newlibSetup
 *fill*         0x000000000001c714        0xc 
 .text.threadCreate
                0x000000000001c720      0x1fc C:/Users/oukeh/OneDrive/桌面/code-mod-example/code-mod-framework/lib/libnx_min/nx/lib\libnx_min.a(thread.o)
                0x000000000001c720                threadCreate
 *fill*         0x000000000001c91c        0x4 
 .text.threadExit
                0x000000000001c920       0xb0 C:/Users/oukeh/OneDrive/桌面/code-mod-example/code-mod-framework/lib/libnx_min/nx/lib\libnx_min.a(thread.o)
                0x000000000001c920                threadExit
 .text._EntryWrap
                0x000000000001c9d0       0x90 C:/Users/oukeh/OneDrive/桌面/code-mod-example/code-mod-framework/lib/libnx_min/nx/lib\libnx_min.a(thread.o)
 .text.threadStart
                0x000000000001ca60        0x8 C:/Users/oukeh/OneDrive/桌面/code-mod-example/code-mod-framework/lib/libnx_min/nx/lib\libnx_min.a(thread.o)
                0x000000000001ca60                threadStart
 *fill*         0x000000000001ca68        0x8 
 .text.threadWaitForExit
                0x000000000001ca70       0x2c C:/Users/oukeh/OneDrive/桌面/code-mod-example/code-mod-framework/lib/libnx_min/nx/lib\libnx_min.a(thread.o)
                0x000000000001ca70                threadWaitForExit
 *fill*         0x000000000001ca9c        0x4 
 .text.threadClose
                0x000000000001caa0       0x54 C:/Users/oukeh/OneDrive/桌面/code-mod-example/code-mod-framework/lib/libnx_min/nx/lib\libnx_min.a(thread.o)
                0x000000000001caa0                threadClose
 *fill*         0x000000000001caf4        0xc 
 .text.threadPause
                0x000000000001cb00        0xc C:/Users/oukeh/OneDrive/桌面/code-mod-example/code-mod-framework/lib/libnx_min/nx/lib\libnx_min.a(thread.o)
                0x000000000001cb00                threadPause
 *fill*         0x000000000001cb0c        0x4 
 .text.threadResume
                0x000000000001cb10        0xc C:/Users/oukeh/OneDrive/桌面/code-mod-example/code-mod-framework/lib/libnx_min/nx/lib\libnx_min.a(thread.o)
                0x000000000001cb10                threadResume
 *fill*         0x000000000001cb1c        0x4 
 .text.threadDumpContext
                0x000000000001cb20        0x8 C:/Users/oukeh/OneDrive/桌面/code-mod-example/code-mod-framework/lib/libnx_min/nx/lib\libnx_min.a(thread.o)
                0x000000000001cb20                threadDumpContext
 *fill*         0x000000000001cb28        0x8 
 .text.threadGetCurHandle
                0x000000000001cb30        0xc C:/Users/oukeh/OneDrive/桌面/code-mod-example/code-mod-framework/lib/libnx_min/nx/lib\libnx_min.a(thread.o)
                0x000000000001cb30                threadGetCurHandle
 *fill*         0x000000000001cb3c        0x4 
 .text.threadTlsGet
                0x000000000001cb40       0x10 C:/Users/oukeh/OneDrive/桌面/code-mod-example/code-mod-framework/lib/libnx_min/nx/lib\libnx_min.a(thread.o)
                0x000000000001cb40                threadTlsGet
 .text.threadTlsSet
                0x000000000001cb50       0x10 C:/Users/oukeh/OneDrive/桌面/code-mod-example/code-mod-framework/lib/libnx_min/nx/lib\libnx_min.a(thread.o)
                0x000000000001cb50                threadTlsSet
 .text.threadTlsAlloc
                0x000000000001cb60       0xd8 C:/Users/oukeh/OneDrive/桌面/code-mod-example/code-mod-framework/lib/libnx_min/nx/lib\libnx_min.a(thread.o)
                0x000000000001cb60                threadTlsAlloc
 *fill*         0x000000000001cc38        0x8 
 .text.threadTlsFree
                0x000000000001cc40       0x48 C:/Users/oukeh/OneDrive/桌面/code-mod-example/code-mod-framework/lib/libnx_min/nx/lib\libnx_min.a(thread.o)
                0x000000000001cc40                threadTlsFree
 *fill*         0x000000000001cc88        0x8 
 .text.condvarWaitTimeout
                0x000000000001cc90       0x60 C:/Users/oukeh/OneDrive/桌面/code-mod-example/code-mod-framework/lib/libnx_min/nx/lib\libnx_min.a(condvar.o)
                0x000000000001cc90                condvarWaitTimeout
 .text.eventCreate
                0x000000000001ccf0       0x38 C:/Users/oukeh/OneDrive/桌面/code-mod-example/code-mod-framework/lib/libnx_min/nx/lib\libnx_min.a(event.o)
                0x000000000001ccf0                eventCreate
 *fill*         0x000000000001cd28        0x8 
 .text.eventLoadRemote
                0x000000000001cd30        0xc C:/Users/oukeh/OneDrive/桌面/code-mod-example/code-mod-framework/lib/libnx_min/nx/lib\libnx_min.a(event.o)
                0x000000000001cd30                eventLoadRemote
 *fill*         0x000000000001cd3c        0x4 
 .text.eventWait
                0x000000000001cd40       0x38 C:/Users/oukeh/OneDrive/桌面/code-mod-example/code-mod-framework/lib/libnx_min/nx/lib\libnx_min.a(event.o)
                0x000000000001cd40                eventWait
 *fill*         0x000000000001cd78        0x8 
 .text.eventFire
                0x000000000001cd80       0x14 C:/Users/oukeh/OneDrive/桌面/code-mod-example/code-mod-framework/lib/libnx_min/nx/lib\libnx_min.a(event.o)
                0x000000000001cd80                eventFire
 *fill*         0x000000000001cd94        0xc 
 .text.eventClear
                0x000000000001cda0       0x24 C:/Users/oukeh/OneDrive/桌面/code-mod-example/code-mod-framework/lib/libnx_min/nx/lib\libnx_min.a(event.o)
                0x000000000001cda0                eventClear
 *fill*         0x000000000001cdc4        0xc 
 .text.eventClose
                0x000000000001cdd0       0x50 C:/Users/oukeh/OneDrive/桌面/code-mod-example/code-mod-framework/lib/libnx_min/nx/lib\libnx_min.a(event.o)
                0x000000000001cdd0                eventClose
 .text.tmemCreate
                0x000000000001ce20       0xa8 C:/Users/oukeh/OneDrive/桌面/code-mod-example/code-mod-framework/lib/libnx_min/nx/lib\libnx_min.a(tmem.o)
                0x000000000001ce20                tmemCreate
 *fill*         0x000000000001cec8        0x8 
 .text.tmemCreateFromMemory
                0x000000000001ced0       0x2c C:/Users/oukeh/OneDrive/桌面/code-mod-example/code-mod-framework/lib/libnx_min/nx/lib\libnx_min.a(tmem.o)
                0x000000000001ced0                tmemCreateFromMemory
 *fill*         0x000000000001cefc        0x4 
 .text.tmemLoadRemote
                0x000000000001cf00       0x14 C:/Users/oukeh/OneDrive/桌面/code-mod-example/code-mod-framework/lib/libnx_min/nx/lib\libnx_min.a(tmem.o)
                0x000000000001cf00                tmemLoadRemote
 *fill*         0x000000000001cf14        0xc 
 .text.tmemMap  0x000000000001cf20       0x84 C:/Users/oukeh/OneDrive/桌面/code-mod-example/code-mod-framework/lib/libnx_min/nx/lib\libnx_min.a(tmem.o)
                0x000000000001cf20                tmemMap
 *fill*         0x000000000001cfa4        0xc 
 .text.tmemUnmap
                0x000000000001cfb0       0x58 C:/Users/oukeh/OneDrive/桌面/code-mod-example/code-mod-framework/lib/libnx_min/nx/lib\libnx_min.a(tmem.o)
                0x000000000001cfb0                tmemUnmap
 *fill*         0x000000000001d008        0x8 
 .text.tmemClose
                0x000000000001d010       0x68 C:/Users/oukeh/OneDrive/桌面/code-mod-example/code-mod-framework/lib/libnx_min/nx/lib\libnx_min.a(tmem.o)
                0x000000000001d010                tmemClose
 *fill*         0x000000000001d078        0x8 
 .text.rwlockInit
                0x000000000001d080        0x8 C:/Users/oukeh/OneDrive/桌面/code-mod-example/code-mod-framework/lib/libnx_min/nx/lib\libnx_min.a(rwlock.o)
                0x000000000001d080                rwlockInit
 *fill*         0x000000000001d088        0x8 
 .text.rwlockReadLock
                0x000000000001d090       0x58 C:/Users/oukeh/OneDrive/桌面/code-mod-example/code-mod-framework/lib/libnx_min/nx/lib\libnx_min.a(rwlock.o)
                0x000000000001d090                rwlockReadLock
 *fill*         0x000000000001d0e8        0x8 
 .text.rwlockReadUnlock
                0x000000000001d0f0       0x5c C:/Users/oukeh/OneDrive/桌面/code-mod-example/code-mod-framework/lib/libnx_min/nx/lib\libnx_min.a(rwlock.o)
                0x000000000001d0f0                rwlockReadUnlock
 *fill*         0x000000000001d14c        0x4 
 .text.rwlockWriteLock
                0x000000000001d150       0x84 C:/Users/oukeh/OneDrive/桌面/code-mod-example/code-mod-framework/lib/libnx_min/nx/lib\libnx_min.a(rwlock.o)
                0x000000000001d150                rwlockWriteLock
 *fill*         0x000000000001d1d4        0xc 
 .text.rwlockWriteUnlock
                0x000000000001d1e0       0x3c C:/Users/oukeh/OneDrive/桌面/code-mod-example/code-mod-framework/lib/libnx_min/nx/lib\libnx_min.a(rwlock.o)
                0x000000000001d1e0                rwlockWriteUnlock
 *fill*         0x000000000001d21c        0x4 
 .text._waitLoop
                0x000000000001d220      0x104 C:/Users/oukeh/OneDrive/桌面/code-mod-example/code-mod-framework/lib/libnx_min/nx/lib\libnx_min.a(wait.o)
 *fill*         0x000000000001d324        0xc 
 .text._waitObjectsImpl
                0x000000000001d330      0x338 C:/Users/oukeh/OneDrive/桌面/code-mod-example/code-mod-framework/lib/libnx_min/nx/lib\libnx_min.a(wait.o)
 *fill*         0x000000000001d668        0x8 
 .text.waitObjects
                0x000000000001d670        0xc C:/Users/oukeh/OneDrive/桌面/code-mod-example/code-mod-framework/lib/libnx_min/nx/lib\libnx_min.a(wait.o)
                0x000000000001d670                waitObjects
 *fill*         0x000000000001d67c        0x4 
 .text.waitHandles
                0x000000000001d680        0xc C:/Users/oukeh/OneDrive/桌面/code-mod-example/code-mod-framework/lib/libnx_min/nx/lib\libnx_min.a(wait.o)
                0x000000000001d680                waitHandles
 *fill*         0x000000000001d68c        0x4 
 .text.shmemCreate
                0x000000000001d690       0x14 C:/Users/oukeh/OneDrive/桌面/code-mod-example/code-mod-framework/lib/libnx_min/nx/lib\libnx_min.a(shmem.o)
                0x000000000001d690                shmemCreate
 *fill*         0x000000000001d6a4        0xc 
 .text.shmemLoadRemote
                0x000000000001d6b0       0x14 C:/Users/oukeh/OneDrive/桌面/code-mod-example/code-mod-framework/lib/libnx_min/nx/lib\libnx_min.a(shmem.o)
                0x000000000001d6b0                shmemLoadRemote
 *fill*         0x000000000001d6c4        0xc 
 .text.shmemMap
                0x000000000001d6d0       0x84 C:/Users/oukeh/OneDrive/桌面/code-mod-example/code-mod-framework/lib/libnx_min/nx/lib\libnx_min.a(shmem.o)
                0x000000000001d6d0                shmemMap
 *fill*         0x000000000001d754        0xc 
 .text.shmemUnmap
                0x000000000001d760       0x58 C:/Users/oukeh/OneDrive/桌面/code-mod-example/code-mod-framework/lib/libnx_min/nx/lib\libnx_min.a(shmem.o)
                0x000000000001d760                shmemUnmap
 *fill*         0x000000000001d7b8        0x8 
 .text.shmemClose
                0x000000000001d7c0       0x44 C:/Users/oukeh/OneDrive/桌面/code-mod-example/code-mod-framework/lib/libnx_min/nx/lib\libnx_min.a(shmem.o)
                0x000000000001d7c0                shmemClose
 *fill*         0x000000000001d804        0xc 
 .text.detectKernelVersion
                0x000000000001d810      0x17c C:/Users/oukeh/OneDrive/桌面/code-mod-example/code-mod-framework/lib/libnx_min/nx/lib\libnx_min.a(detect.o)
                0x000000000001d810                detectKernelVersion
 *fill*         0x000000000001d98c        0x4 
 .text.detectDebugger
                0x000000000001d990       0x30 C:/Users/oukeh/OneDrive/桌面/code-mod-example/code-mod-framework/lib/libnx_min/nx/lib\libnx_min.a(detect.o)
                0x000000000001d990                detectDebugger
 .text.detectJitKernelPatch
                0x000000000001d9c0       0xdc C:/Users/oukeh/OneDrive/桌面/code-mod-example/code-mod-framework/lib/libnx_min/nx/lib\libnx_min.a(detect.o)
                0x000000000001d9c0                detectJitKernelPatch
 *fill*         0x000000000001da9c        0x4 
 .text.detectIgnoreJitKernelPatch
                0x000000000001daa0       0x44 C:/Users/oukeh/OneDrive/桌面/code-mod-example/code-mod-framework/lib/libnx_min/nx/lib\libnx_min.a(detect.o)
                0x000000000001daa0                detectIgnoreJitKernelPatch
 *fill*         0x000000000001dae4        0xc 
 .text.ipcCloseObjectById
                0x000000000001daf0       0x34 C:/Users/oukeh/OneDrive/桌面/code-mod-example/code-mod-framework/lib/libnx_min/nx/lib\libnx_min.a(apm.o)
 *fill*         0x000000000001db24        0xc 
 .text._apmGetSession.constprop.4
                0x000000000001db30      0x124 C:/Users/oukeh/OneDrive/桌面/code-mod-example/code-mod-framework/lib/libnx_min/nx/lib\libnx_min.a(apm.o)
 *fill*         0x000000000001dc54        0xc 
 .text.apmExit  0x000000000001dc60       0xf0 C:/Users/oukeh/OneDrive/桌面/code-mod-example/code-mod-framework/lib/libnx_min/nx/lib\libnx_min.a(apm.o)
                0x000000000001dc60                apmExit
 .text.apmInitialize
                0x000000000001dd50       0x70 C:/Users/oukeh/OneDrive/桌面/code-mod-example/code-mod-framework/lib/libnx_min/nx/lib\libnx_min.a(apm.o)
                0x000000000001dd50                apmInitialize
 .text.apmSetPerformanceConfiguration
                0x000000000001ddc0       0xcc C:/Users/oukeh/OneDrive/桌面/code-mod-example/code-mod-framework/lib/libnx_min/nx/lib\libnx_min.a(apm.o)
                0x000000000001ddc0                apmSetPerformanceConfiguration
 *fill*         0x000000000001de8c        0x4 
 .text.apmGetPerformanceConfiguration
                0x000000000001de90       0xf4 C:/Users/oukeh/OneDrive/桌面/code-mod-example/code-mod-framework/lib/libnx_min/nx/lib\libnx_min.a(apm.o)
                0x000000000001de90                apmGetPerformanceConfiguration
 *fill*         0x000000000001df84        0x4 
 .text.bsearch  0x000000000001df88       0xb8 c:/devkitpro/devkita64/bin/../lib/gcc/aarch64-none-elf/9.2.0/../../../../aarch64-none-elf/lib/pic\libg.a(lib_a-bsearch.o)
                0x000000000001df88                bsearch
 .text.__set_ctype
                0x000000000001e040       0x10 c:/devkitpro/devkita64/bin/../lib/gcc/aarch64-none-elf/9.2.0/../../../../aarch64-none-elf/lib/pic\libg.a(lib_a-ctype_.o)
                0x000000000001e040                __set_ctype
 .text.__errno  0x000000000001e050       0x14 c:/devkitpro/devkita64/bin/../lib/gcc/aarch64-none-elf/9.2.0/../../../../aarch64-none-elf/lib/pic\libg.a(lib_a-errno.o)
                0x000000000001e050                __errno
 *fill*         0x000000000001e064        0x4 
 .text.__libc_fini_array
                0x000000000001e068       0x4c c:/devkitpro/devkita64/bin/../lib/gcc/aarch64-none-elf/9.2.0/../../../../aarch64-none-elf/lib/pic\libg.a(lib_a-fini.o)
                0x000000000001e068                __libc_fini_array
 *fill*         0x000000000001e0b4        0x4 
 .text.__libc_init_array
                0x000000000001e0b8       0x9c c:/devkitpro/devkita64/bin/../lib/gcc/aarch64-none-elf/9.2.0/../../../../aarch64-none-elf/lib/pic\libg.a(lib_a-init.o)
                0x000000000001e0b8                __libc_init_array
 *fill*         0x000000000001e154        0x4 
 .text.memalign
                0x000000000001e158       0x2c c:/devkitpro/devkita64/bin/../lib/gcc/aarch64-none-elf/9.2.0/../../../../aarch64-none-elf/lib/pic\libg.a(lib_a-malign.o)
                0x000000000001e158                memalign
 *fill*         0x000000000001e184        0x4 
 .text._memalign_r
                0x000000000001e188      0x1a0 c:/devkitpro/devkita64/bin/../lib/gcc/aarch64-none-elf/9.2.0/../../../../aarch64-none-elf/lib/pic\libg.a(lib_a-malignr.o)
                0x000000000001e188                _memalign_r
 .text.malloc   0x000000000001e328       0x24 c:/devkitpro/devkita64/bin/../lib/gcc/aarch64-none-elf/9.2.0/../../../../aarch64-none-elf/lib/pic\libg.a(lib_a-malloc.o)
                0x000000000001e328                malloc
 *fill*         0x000000000001e34c        0x4 
 .text.free     0x000000000001e350       0x24 c:/devkitpro/devkita64/bin/../lib/gcc/aarch64-none-elf/9.2.0/../../../../aarch64-none-elf/lib/pic\libg.a(lib_a-malloc.o)
                0x000000000001e350                free
 *fill*         0x000000000001e374        0x4 
 .text._malloc_r
                0x000000000001e378      0x874 c:/devkitpro/devkita64/bin/../lib/gcc/aarch64-none-elf/9.2.0/../../../../aarch64-none-elf/lib/pic\libg.a(lib_a-mallocr.o)
                0x000000000001e378                _malloc_r
 *fill*         0x000000000001ebec       0x14 
 .text          0x000000000001ec00      0x16c c:/devkitpro/devkita64/bin/../lib/gcc/aarch64-none-elf/9.2.0/../../../../aarch64-none-elf/lib/pic\libg.a(lib_a-memcpy.o)
                0x000000000001ec00                memcpy
 *fill*         0x000000000001ed6c       0x14 
 .text          0x000000000001ed80      0x1dc c:/devkitpro/devkita64/bin/../lib/gcc/aarch64-none-elf/9.2.0/../../../../aarch64-none-elf/lib/pic\libg.a(lib_a-memset.o)
                0x000000000001ed80                memset
 *fill*         0x000000000001ef5c        0x4 
 .text.__malloc_lock
                0x000000000001ef60        0xc c:/devkitpro/devkita64/bin/../lib/gcc/aarch64-none-elf/9.2.0/../../../../aarch64-none-elf/lib/pic\libg.a(lib_a-mlock.o)
                0x000000000001ef60                __malloc_lock
 *fill*         0x000000000001ef6c        0x4 
 .text.__malloc_unlock
                0x000000000001ef70        0xc c:/devkitpro/devkita64/bin/../lib/gcc/aarch64-none-elf/9.2.0/../../../../aarch64-none-elf/lib/pic\libg.a(lib_a-mlock.o)
                0x000000000001ef70                __malloc_unlock
 *fill*         0x000000000001ef7c        0x4 
 .text.setenv   0x000000000001ef80       0x3c c:/devkitpro/devkita64/bin/../lib/gcc/aarch64-none-elf/9.2.0/../../../../aarch64-none-elf/lib/pic\libg.a(lib_a-setenv.o)
                0x000000000001ef80                setenv
 *fill*         0x000000000001efbc        0x4 
 .text.unsetenv
                0x000000000001efc0       0x24 c:/devkitpro/devkita64/bin/../lib/gcc/aarch64-none-elf/9.2.0/../../../../aarch64-none-elf/lib/pic\libg.a(lib_a-setenv.o)
                0x000000000001efc0                unsetenv
 *fill*         0x000000000001efe4        0x4 
 .text._setenv_r
                0x000000000001efe8      0x268 c:/devkitpro/devkita64/bin/../lib/gcc/aarch64-none-elf/9.2.0/../../../../aarch64-none-elf/lib/pic\libg.a(lib_a-setenv_r.o)
                0x000000000001efe8                _setenv_r
 .text._unsetenv_r
                0x000000000001f250       0xd4 c:/devkitpro/devkita64/bin/../lib/gcc/aarch64-none-elf/9.2.0/../../../../aarch64-none-elf/lib/pic\libg.a(lib_a-setenv_r.o)
                0x000000000001f250                _unsetenv_r
 .text          0x000000000001f324       0xdc c:/devkitpro/devkita64/bin/../lib/gcc/aarch64-none-elf/9.2.0/../../../../aarch64-none-elf/lib/pic\libg.a(lib_a-strchr.o)
                0x000000000001f324                strchr
 .text          0x000000000001f400      0x1b8 c:/devkitpro/devkita64/bin/../lib/gcc/aarch64-none-elf/9.2.0/../../../../aarch64-none-elf/lib/pic\libg.a(lib_a-strcpy.o)
                0x000000000001f400                strcpy
 *fill*         0x000000000001f5b8        0x8 
 .text          0x000000000001f5c0      0x140 c:/devkitpro/devkita64/bin/../lib/gcc/aarch64-none-elf/9.2.0/../../../../aarch64-none-elf/lib/pic\libg.a(lib_a-strlen.o)
                0x000000000001f5c0                strlen
 .text.strncat  0x000000000001f700       0x84 c:/devkitpro/devkita64/bin/../lib/gcc/aarch64-none-elf/9.2.0/../../../../aarch64-none-elf/lib/pic\libg.a(lib_a-strncat.o)
                0x000000000001f700                strncat
 *fill*         0x000000000001f784       0x3c 
 .text          0x000000000001f7c0      0x1d4 c:/devkitpro/devkita64/bin/../lib/gcc/aarch64-none-elf/9.2.0/../../../../aarch64-none-elf/lib/pic\libg.a(lib_a-strncmp.o)
                0x000000000001f7dc                strncmp
 *fill*         0x000000000001f994        0x4 
 .text.strncpy  0x000000000001f998       0x9c c:/devkitpro/devkita64/bin/../lib/gcc/aarch64-none-elf/9.2.0/../../../../aarch64-none-elf/lib/pic\libg.a(lib_a-strncpy.o)
                0x000000000001f998                strncpy
 *fill*         0x000000000001fa34        0xc 
 .text          0x000000000001fa40       0xe0 c:/devkitpro/devkita64/bin/../lib/gcc/aarch64-none-elf/9.2.0/../../../../aarch64-none-elf/lib/pic\libg.a(lib_a-strnlen.o)
                0x000000000001fa64                strnlen
 .text.toupper  0x000000000001fb20       0x24 c:/devkitpro/devkita64/bin/../lib/gcc/aarch64-none-elf/9.2.0/../../../../aarch64-none-elf/lib/pic\libg.a(lib_a-toupper.o)
                0x000000000001fb20                toupper
 *fill*         0x000000000001fb44        0x4 
 .text._vsnprintf_r
                0x000000000001fb48       0xe0 c:/devkitpro/devkita64/bin/../lib/gcc/aarch64-none-elf/9.2.0/../../../../aarch64-none-elf/lib/pic\libg.a(lib_a-vsnprintf.o)
                0x000000000001fb48                _vsnprintf_r
 .text.vsnprintf
                0x000000000001fc28       0x58 c:/devkitpro/devkita64/bin/../lib/gcc/aarch64-none-elf/9.2.0/../../../../aarch64-none-elf/lib/pic\libg.a(lib_a-vsnprintf.o)
                0x000000000001fc28                vsnprintf
 .text.__call_exitprocs
                0x000000000001fc80      0x12c c:/devkitpro/devkita64/bin/../lib/gcc/aarch64-none-elf/9.2.0/../../../../aarch64-none-elf/lib/pic\libg.a(lib_a-__call_atexit.o)
                0x000000000001fc80                __call_exitprocs
 *fill*         0x000000000001fdac        0x4 
 .text.__env_lock
                0x000000000001fdb0        0xc c:/devkitpro/devkita64/bin/../lib/gcc/aarch64-none-elf/9.2.0/../../../../aarch64-none-elf/lib/pic\libg.a(lib_a-envlock.o)
                0x000000000001fdb0                __env_lock
 *fill*         0x000000000001fdbc        0x4 
 .text.__env_unlock
                0x000000000001fdc0        0xc c:/devkitpro/devkita64/bin/../lib/gcc/aarch64-none-elf/9.2.0/../../../../aarch64-none-elf/lib/pic\libg.a(lib_a-envlock.o)
                0x000000000001fdc0                __env_unlock
 *fill*         0x000000000001fdcc        0x4 
 .text._malloc_trim_r
                0x000000000001fdd0      0x118 c:/devkitpro/devkita64/bin/../lib/gcc/aarch64-none-elf/9.2.0/../../../../aarch64-none-elf/lib/pic\libg.a(lib_a-freer.o)
                0x000000000001fdd0                _malloc_trim_r
 .text._free_r  0x000000000001fee8      0x300 c:/devkitpro/devkita64/bin/../lib/gcc/aarch64-none-elf/9.2.0/../../../../aarch64-none-elf/lib/pic\libg.a(lib_a-freer.o)
                0x000000000001fee8                _free_r
 .text._findenv_r
                0x00000000000201e8      0x100 c:/devkitpro/devkita64/bin/../lib/gcc/aarch64-none-elf/9.2.0/../../../../aarch64-none-elf/lib/pic\libg.a(lib_a-getenv_r.o)
                0x00000000000201e8                _findenv_r
 .text._getenv_r
                0x00000000000202e8       0x18 c:/devkitpro/devkita64/bin/../lib/gcc/aarch64-none-elf/9.2.0/../../../../aarch64-none-elf/lib/pic\libg.a(lib_a-getenv_r.o)
                0x00000000000202e8                _getenv_r
 .text._realloc_r
                0x0000000000020300      0x56c c:/devkitpro/devkita64/bin/../lib/gcc/aarch64-none-elf/9.2.0/../../../../aarch64-none-elf/lib/pic\libg.a(lib_a-reallocr.o)
                0x0000000000020300                _realloc_r
 .text.get_arg  0x000000000002086c      0x784 c:/devkitpro/devkita64/bin/../lib/gcc/aarch64-none-elf/9.2.0/../../../../aarch64-none-elf/lib/pic\libg.a(lib_a-svfprintf.o)
 .text._svfprintf_r
                0x0000000000020ff0     0x3be8 c:/devkitpro/devkita64/bin/../lib/gcc/aarch64-none-elf/9.2.0/../../../../aarch64-none-elf/lib/pic\libg.a(lib_a-svfprintf.o)
                0x0000000000020ff0                _svfprintf_r
 .text._wcrtomb_r
                0x0000000000024bd8       0xd0 c:/devkitpro/devkita64/bin/../lib/gcc/aarch64-none-elf/9.2.0/../../../../aarch64-none-elf/lib/pic\libg.a(lib_a-wcrtomb.o)
                0x0000000000024bd8                _wcrtomb_r
 .text.wcrtomb  0x0000000000024ca8       0xb8 c:/devkitpro/devkita64/bin/../lib/gcc/aarch64-none-elf/9.2.0/../../../../aarch64-none-elf/lib/pic\libg.a(lib_a-wcrtomb.o)
                0x0000000000024ca8                wcrtomb
 .text._wcsrtombs_r
                0x0000000000024d60       0x10 c:/devkitpro/devkita64/bin/../lib/gcc/aarch64-none-elf/9.2.0/../../../../aarch64-none-elf/lib/pic\libg.a(lib_a-wcsrtombs.o)
                0x0000000000024d60                _wcsrtombs_r
 .text.wcsrtombs
                0x0000000000024d70       0x48 c:/devkitpro/devkita64/bin/../lib/gcc/aarch64-none-elf/9.2.0/../../../../aarch64-none-elf/lib/pic\libg.a(lib_a-wcsrtombs.o)
                0x0000000000024d70                wcsrtombs
 .text.quorem   0x0000000000024db8      0x19c c:/devkitpro/devkita64/bin/../lib/gcc/aarch64-none-elf/9.2.0/../../../../aarch64-none-elf/lib/pic\libg.a(lib_a-dtoa.o)
 *fill*         0x0000000000024f54        0x4 
 .text._dtoa_r  0x0000000000024f58     0x1124 c:/devkitpro/devkita64/bin/../lib/gcc/aarch64-none-elf/9.2.0/../../../../aarch64-none-elf/lib/pic\libg.a(lib_a-dtoa.o)
                0x0000000000024f58                _dtoa_r
 *fill*         0x000000000002607c        0x4 
 .text.__localeconv_l
                0x0000000000026080        0x8 c:/devkitpro/devkita64/bin/../lib/gcc/aarch64-none-elf/9.2.0/../../../../aarch64-none-elf/lib/pic\libg.a(lib_a-localeconv.o)
                0x0000000000026080                __localeconv_l
 .text._localeconv_r
                0x0000000000026088       0x28 c:/devkitpro/devkita64/bin/../lib/gcc/aarch64-none-elf/9.2.0/../../../../aarch64-none-elf/lib/pic\libg.a(lib_a-localeconv.o)
                0x0000000000026088                _localeconv_r
 .text.localeconv
                0x00000000000260b0       0x28 c:/devkitpro/devkita64/bin/../lib/gcc/aarch64-none-elf/9.2.0/../../../../aarch64-none-elf/lib/pic\libg.a(lib_a-localeconv.o)
                0x00000000000260b0                localeconv
 .text.currentlocale
                0x00000000000260d8       0xb8 c:/devkitpro/devkita64/bin/../lib/gcc/aarch64-none-elf/9.2.0/../../../../aarch64-none-elf/lib/pic\libg.a(lib_a-locale.o)
 .text.__loadlocale
                0x0000000000026190      0x7b0 c:/devkitpro/devkita64/bin/../lib/gcc/aarch64-none-elf/9.2.0/../../../../aarch64-none-elf/lib/pic\libg.a(lib_a-locale.o)
                0x0000000000026190                __loadlocale
 .text.__get_locale_env
                0x0000000000026940       0x88 c:/devkitpro/devkita64/bin/../lib/gcc/aarch64-none-elf/9.2.0/../../../../aarch64-none-elf/lib/pic\libg.a(lib_a-locale.o)
                0x0000000000026940                __get_locale_env
 .text._setlocale_r
                0x00000000000269c8      0x3b4 c:/devkitpro/devkita64/bin/../lib/gcc/aarch64-none-elf/9.2.0/../../../../aarch64-none-elf/lib/pic\libg.a(lib_a-locale.o)
                0x00000000000269c8                _setlocale_r
 *fill*         0x0000000000026d7c        0x4 
 .text.__locale_mb_cur_max
                0x0000000000026d80       0x2c c:/devkitpro/devkita64/bin/../lib/gcc/aarch64-none-elf/9.2.0/../../../../aarch64-none-elf/lib/pic\libg.a(lib_a-locale.o)
                0x0000000000026d80                __locale_mb_cur_max
 *fill*         0x0000000000026dac        0x4 
 .text.setlocale
                0x0000000000026db0       0x2c c:/devkitpro/devkita64/bin/../lib/gcc/aarch64-none-elf/9.2.0/../../../../aarch64-none-elf/lib/pic\libg.a(lib_a-locale.o)
                0x0000000000026db0                setlocale
 *fill*         0x0000000000026ddc        0x4 
 .text._mbtowc_r
                0x0000000000026de0       0x70 c:/devkitpro/devkita64/bin/../lib/gcc/aarch64-none-elf/9.2.0/../../../../aarch64-none-elf/lib/pic\libg.a(lib_a-mbtowc_r.o)
                0x0000000000026de0                _mbtowc_r
 .text.__ascii_mbtowc
                0x0000000000026e50       0x48 c:/devkitpro/devkita64/bin/../lib/gcc/aarch64-none-elf/9.2.0/../../../../aarch64-none-elf/lib/pic\libg.a(lib_a-mbtowc_r.o)
                0x0000000000026e50                __ascii_mbtowc
 .text.__utf8_mbtowc
                0x0000000000026e98      0x2c8 c:/devkitpro/devkita64/bin/../lib/gcc/aarch64-none-elf/9.2.0/../../../../aarch64-none-elf/lib/pic\libg.a(lib_a-mbtowc_r.o)
                0x0000000000026e98                __utf8_mbtowc
 .text.__sjis_mbtowc
                0x0000000000027160       0xcc c:/devkitpro/devkita64/bin/../lib/gcc/aarch64-none-elf/9.2.0/../../../../aarch64-none-elf/lib/pic\libg.a(lib_a-mbtowc_r.o)
                0x0000000000027160                __sjis_mbtowc
 *fill*         0x000000000002722c        0x4 
 .text.__eucjp_mbtowc
                0x0000000000027230      0x124 c:/devkitpro/devkita64/bin/../lib/gcc/aarch64-none-elf/9.2.0/../../../../aarch64-none-elf/lib/pic\libg.a(lib_a-mbtowc_r.o)
                0x0000000000027230                __eucjp_mbtowc
 *fill*         0x0000000000027354        0x4 
 .text.__jis_mbtowc
                0x0000000000027358      0x1e4 c:/devkitpro/devkita64/bin/../lib/gcc/aarch64-none-elf/9.2.0/../../../../aarch64-none-elf/lib/pic\libg.a(lib_a-mbtowc_r.o)
                0x0000000000027358                __jis_mbtowc
 .text          0x000000000002753c       0xd8 c:/devkitpro/devkita64/bin/../lib/gcc/aarch64-none-elf/9.2.0/../../../../aarch64-none-elf/lib/pic\libg.a(lib_a-memchr.o)
                0x000000000002753c                memchr
 *fill*         0x0000000000027614       0x2c 
 .text          0x0000000000027640       0xac c:/devkitpro/devkita64/bin/../lib/gcc/aarch64-none-elf/9.2.0/../../../../aarch64-none-elf/lib/pic\libg.a(lib_a-memmove.o)
                0x0000000000027640                memmove
 *fill*         0x00000000000276ec        0x4 
 .text._Balloc  0x00000000000276f0       0x90 c:/devkitpro/devkita64/bin/../lib/gcc/aarch64-none-elf/9.2.0/../../../../aarch64-none-elf/lib/pic\libg.a(lib_a-mprec.o)
                0x00000000000276f0                _Balloc
 .text._Bfree   0x0000000000027780       0x1c c:/devkitpro/devkita64/bin/../lib/gcc/aarch64-none-elf/9.2.0/../../../../aarch64-none-elf/lib/pic\libg.a(lib_a-mprec.o)
                0x0000000000027780                _Bfree
 *fill*         0x000000000002779c        0x4 
 .text.__multadd
                0x00000000000277a0       0xd8 c:/devkitpro/devkita64/bin/../lib/gcc/aarch64-none-elf/9.2.0/../../../../aarch64-none-elf/lib/pic\libg.a(lib_a-mprec.o)
                0x00000000000277a0                __multadd
 .text.__s2b    0x0000000000027878      0x12c c:/devkitpro/devkita64/bin/../lib/gcc/aarch64-none-elf/9.2.0/../../../../aarch64-none-elf/lib/pic\libg.a(lib_a-mprec.o)
                0x0000000000027878                __s2b
 *fill*         0x00000000000279a4        0x4 
 .text.__hi0bits
                0x00000000000279a8       0x5c c:/devkitpro/devkita64/bin/../lib/gcc/aarch64-none-elf/9.2.0/../../../../aarch64-none-elf/lib/pic\libg.a(lib_a-mprec.o)
                0x00000000000279a8                __hi0bits
 *fill*         0x0000000000027a04        0x4 
 .text.__lo0bits
                0x0000000000027a08       0xa0 c:/devkitpro/devkita64/bin/../lib/gcc/aarch64-none-elf/9.2.0/../../../../aarch64-none-elf/lib/pic\libg.a(lib_a-mprec.o)
                0x0000000000027a08                __lo0bits
 .text.__i2b    0x0000000000027aa8       0x2c c:/devkitpro/devkita64/bin/../lib/gcc/aarch64-none-elf/9.2.0/../../../../aarch64-none-elf/lib/pic\libg.a(lib_a-mprec.o)
                0x0000000000027aa8                __i2b
 *fill*         0x0000000000027ad4        0x4 
 .text.__multiply
                0x0000000000027ad8      0x1dc c:/devkitpro/devkita64/bin/../lib/gcc/aarch64-none-elf/9.2.0/../../../../aarch64-none-elf/lib/pic\libg.a(lib_a-mprec.o)
                0x0000000000027ad8                __multiply
 *fill*         0x0000000000027cb4        0x4 
 .text.__pow5mult
                0x0000000000027cb8      0x100 c:/devkitpro/devkita64/bin/../lib/gcc/aarch64-none-elf/9.2.0/../../../../aarch64-none-elf/lib/pic\libg.a(lib_a-mprec.o)
                0x0000000000027cb8                __pow5mult
 .text.__lshift
                0x0000000000027db8      0x154 c:/devkitpro/devkita64/bin/../lib/gcc/aarch64-none-elf/9.2.0/../../../../aarch64-none-elf/lib/pic\libg.a(lib_a-mprec.o)
                0x0000000000027db8                __lshift
 *fill*         0x0000000000027f0c        0x4 
 .text.__mcmp   0x0000000000027f10       0x50 c:/devkitpro/devkita64/bin/../lib/gcc/aarch64-none-elf/9.2.0/../../../../aarch64-none-elf/lib/pic\libg.a(lib_a-mprec.o)
                0x0000000000027f10                __mcmp
 .text.__mdiff  0x0000000000027f60      0x17c c:/devkitpro/devkita64/bin/../lib/gcc/aarch64-none-elf/9.2.0/../../../../aarch64-none-elf/lib/pic\libg.a(lib_a-mprec.o)
                0x0000000000027f60                __mdiff
 *fill*         0x00000000000280dc        0x4 
 .text.__ulp    0x00000000000280e0       0x68 c:/devkitpro/devkita64/bin/../lib/gcc/aarch64-none-elf/9.2.0/../../../../aarch64-none-elf/lib/pic\libg.a(lib_a-mprec.o)
                0x00000000000280e0                __ulp
 .text.__b2d    0x0000000000028148      0x150 c:/devkitpro/devkita64/bin/../lib/gcc/aarch64-none-elf/9.2.0/../../../../aarch64-none-elf/lib/pic\libg.a(lib_a-mprec.o)
                0x0000000000028148                __b2d
 .text.__d2b    0x0000000000028298      0x138 c:/devkitpro/devkita64/bin/../lib/gcc/aarch64-none-elf/9.2.0/../../../../aarch64-none-elf/lib/pic\libg.a(lib_a-mprec.o)
                0x0000000000028298                __d2b
 .text.__ratio  0x00000000000283d0       0xa0 c:/devkitpro/devkita64/bin/../lib/gcc/aarch64-none-elf/9.2.0/../../../../aarch64-none-elf/lib/pic\libg.a(lib_a-mprec.o)
                0x00000000000283d0                __ratio
 .text._mprec_log10
                0x0000000000028470       0x30 c:/devkitpro/devkita64/bin/../lib/gcc/aarch64-none-elf/9.2.0/../../../../aarch64-none-elf/lib/pic\libg.a(lib_a-mprec.o)
                0x0000000000028470                _mprec_log10
 .text.__copybits
                0x00000000000284a0       0x68 c:/devkitpro/devkita64/bin/../lib/gcc/aarch64-none-elf/9.2.0/../../../../aarch64-none-elf/lib/pic\libg.a(lib_a-mprec.o)
                0x00000000000284a0                __copybits
 .text.__any_on
                0x0000000000028508       0x6c c:/devkitpro/devkita64/bin/../lib/gcc/aarch64-none-elf/9.2.0/../../../../aarch64-none-elf/lib/pic\libg.a(lib_a-mprec.o)
                0x0000000000028508                __any_on
 *fill*         0x0000000000028574        0x4 
 .text.frexp    0x0000000000028578       0x7c c:/devkitpro/devkita64/bin/../lib/gcc/aarch64-none-elf/9.2.0/../../../../aarch64-none-elf/lib/pic\libg.a(lib_a-s_frexp.o)
                0x0000000000028578                frexp
 *fill*         0x00000000000285f4        0x4 
 .text.strcasecmp
                0x00000000000285f8       0x78 c:/devkitpro/devkita64/bin/../lib/gcc/aarch64-none-elf/9.2.0/../../../../aarch64-none-elf/lib/pic\libg.a(lib_a-strcasecmp.o)
                0x00000000000285f8                strcasecmp
 .text.strcat   0x0000000000028670       0x74 c:/devkitpro/devkita64/bin/../lib/gcc/aarch64-none-elf/9.2.0/../../../../aarch64-none-elf/lib/pic\libg.a(lib_a-strcat.o)
                0x0000000000028670                strcat
 *fill*         0x00000000000286e4       0x1c 
 .text          0x0000000000028700       0xe4 c:/devkitpro/devkita64/bin/../lib/gcc/aarch64-none-elf/9.2.0/../../../../aarch64-none-elf/lib/pic\libg.a(lib_a-strcmp.o)
                0x0000000000028700                strcmp
 *fill*         0x00000000000287e4        0x4 
 .text.strlcpy  0x00000000000287e8       0x5c c:/devkitpro/devkita64/bin/../lib/gcc/aarch64-none-elf/9.2.0/../../../../aarch64-none-elf/lib/pic\libg.a(lib_a-strlcpy.o)
                0x00000000000287e8                strlcpy
 *fill*         0x0000000000028844        0x4 
 .text.strncasecmp
                0x0000000000028848       0x8c c:/devkitpro/devkita64/bin/../lib/gcc/aarch64-none-elf/9.2.0/../../../../aarch64-none-elf/lib/pic\libg.a(lib_a-strncasecmp.o)
                0x0000000000028848                strncasecmp
 *fill*         0x00000000000288d4        0x4 
 .text._strtol_l.isra.0
                0x00000000000288d8      0x19c c:/devkitpro/devkita64/bin/../lib/gcc/aarch64-none-elf/9.2.0/../../../../aarch64-none-elf/lib/pic\libg.a(lib_a-strtol.o)
 *fill*         0x0000000000028a74        0x4 
 .text._strtol_r
                0x0000000000028a78       0x44 c:/devkitpro/devkita64/bin/../lib/gcc/aarch64-none-elf/9.2.0/../../../../aarch64-none-elf/lib/pic\libg.a(lib_a-strtol.o)
                0x0000000000028a78                _strtol_r
 *fill*         0x0000000000028abc        0x4 
 .text.strtol_l
                0x0000000000028ac0       0x3c c:/devkitpro/devkita64/bin/../lib/gcc/aarch64-none-elf/9.2.0/../../../../aarch64-none-elf/lib/pic\libg.a(lib_a-strtol.o)
                0x0000000000028ac0                strtol_l
 *fill*         0x0000000000028afc        0x4 
 .text.strtol   0x0000000000028b00       0x48 c:/devkitpro/devkita64/bin/../lib/gcc/aarch64-none-elf/9.2.0/../../../../aarch64-none-elf/lib/pic\libg.a(lib_a-strtol.o)
                0x0000000000028b00                strtol
 .text.get_arg  0x0000000000028b48      0x784 c:/devkitpro/devkita64/bin/../lib/gcc/aarch64-none-elf/9.2.0/../../../../aarch64-none-elf/lib/pic\libg.a(lib_a-svfiprintf.o)
 .text.__ssprint_r
                0x00000000000292cc      0x1c0 c:/devkitpro/devkita64/bin/../lib/gcc/aarch64-none-elf/9.2.0/../../../../aarch64-none-elf/lib/pic\libg.a(lib_a-svfiprintf.o)
                0x00000000000292cc                __ssprint_r
 .text._svfiprintf_r
                0x000000000002948c     0x2928 c:/devkitpro/devkita64/bin/../lib/gcc/aarch64-none-elf/9.2.0/../../../../aarch64-none-elf/lib/pic\libg.a(lib_a-svfiprintf.o)
                0x000000000002948c                _svfiprintf_r
 *fill*         0x000000000002bdb4        0x4 
 .text._wcsnrtombs_l
                0x000000000002bdb8      0x1e4 c:/devkitpro/devkita64/bin/../lib/gcc/aarch64-none-elf/9.2.0/../../../../aarch64-none-elf/lib/pic\libg.a(lib_a-wcsnrtombs.o)
                0x000000000002bdb8                _wcsnrtombs_l
 *fill*         0x000000000002bf9c        0x4 
 .text._wcsnrtombs_r
                0x000000000002bfa0       0x74 c:/devkitpro/devkita64/bin/../lib/gcc/aarch64-none-elf/9.2.0/../../../../aarch64-none-elf/lib/pic\libg.a(lib_a-wcsnrtombs.o)
                0x000000000002bfa0                _wcsnrtombs_r
 *fill*         0x000000000002c014        0x4 
 .text.wcsnrtombs
                0x000000000002c018       0x74 c:/devkitpro/devkita64/bin/../lib/gcc/aarch64-none-elf/9.2.0/../../../../aarch64-none-elf/lib/pic\libg.a(lib_a-wcsnrtombs.o)
                0x000000000002c018                wcsnrtombs
 *fill*         0x000000000002c08c        0x4 
 .text._wctomb_r
                0x000000000002c090       0x60 c:/devkitpro/devkita64/bin/../lib/gcc/aarch64-none-elf/9.2.0/../../../../aarch64-none-elf/lib/pic\libg.a(lib_a-wctomb_r.o)
                0x000000000002c090                _wctomb_r
 .text.__ascii_wctomb
                0x000000000002c0f0       0x34 c:/devkitpro/devkita64/bin/../lib/gcc/aarch64-none-elf/9.2.0/../../../../aarch64-none-elf/lib/pic\libg.a(lib_a-wctomb_r.o)
                0x000000000002c0f0                __ascii_wctomb
 *fill*         0x000000000002c124        0x4 
 .text.__utf8_wctomb
                0x000000000002c128       0xe4 c:/devkitpro/devkita64/bin/../lib/gcc/aarch64-none-elf/9.2.0/../../../../aarch64-none-elf/lib/pic\libg.a(lib_a-wctomb_r.o)
                0x000000000002c128                __utf8_wctomb
 *fill*         0x000000000002c20c        0x4 
 .text.__sjis_wctomb
                0x000000000002c210       0x84 c:/devkitpro/devkita64/bin/../lib/gcc/aarch64-none-elf/9.2.0/../../../../aarch64-none-elf/lib/pic\libg.a(lib_a-wctomb_r.o)
                0x000000000002c210                __sjis_wctomb
 *fill*         0x000000000002c294        0x4 
 .text.__eucjp_wctomb
                0x000000000002c298       0xa8 c:/devkitpro/devkita64/bin/../lib/gcc/aarch64-none-elf/9.2.0/../../../../aarch64-none-elf/lib/pic\libg.a(lib_a-wctomb_r.o)
                0x000000000002c298                __eucjp_wctomb
 .text.__jis_wctomb
                0x000000000002c340       0xbc c:/devkitpro/devkita64/bin/../lib/gcc/aarch64-none-elf/9.2.0/../../../../aarch64-none-elf/lib/pic\libg.a(lib_a-wctomb_r.o)
                0x000000000002c340                __jis_wctomb
 *fill*         0x000000000002c3fc        0x4 
 .text._calloc_r
                0x000000000002c400       0x94 c:/devkitpro/devkita64/bin/../lib/gcc/aarch64-none-elf/9.2.0/../../../../aarch64-none-elf/lib/pic\libg.a(lib_a-callocr.o)
                0x000000000002c400                _calloc_r
 *fill*         0x000000000002c494        0x4 
 .text.null_write
                0x000000000002c498        0x8 c:/devkitpro/devkita64/bin/../lib/gcc/aarch64-none-elf/9.2.0/../../../../aarch64-none-elf/lib/pic\libsysbase.a(iosupport.o)
 .text.setDefaultDevice
                0x000000000002c4a0       0x18 c:/devkitpro/devkita64/bin/../lib/gcc/aarch64-none-elf/9.2.0/../../../../aarch64-none-elf/lib/pic\libsysbase.a(iosupport.o)
                0x000000000002c4a0                setDefaultDevice
 .text.FindDevice
                0x000000000002c4b8      0x108 c:/devkitpro/devkita64/bin/../lib/gcc/aarch64-none-elf/9.2.0/../../../../aarch64-none-elf/lib/pic\libsysbase.a(iosupport.o)
                0x000000000002c4b8                FindDevice
 .text.RemoveDevice
                0x000000000002c5c0       0x34 c:/devkitpro/devkita64/bin/../lib/gcc/aarch64-none-elf/9.2.0/../../../../aarch64-none-elf/lib/pic\libsysbase.a(iosupport.o)
                0x000000000002c5c0                RemoveDevice
 *fill*         0x000000000002c5f4        0x4 
 .text.AddDevice
                0x000000000002c5f8       0xdc c:/devkitpro/devkita64/bin/../lib/gcc/aarch64-none-elf/9.2.0/../../../../aarch64-none-elf/lib/pic\libsysbase.a(iosupport.o)
                0x000000000002c5f8                AddDevice
 *fill*         0x000000000002c6d4        0x4 
 .text.GetDeviceOpTab
                0x000000000002c6d8       0x34 c:/devkitpro/devkita64/bin/../lib/gcc/aarch64-none-elf/9.2.0/../../../../aarch64-none-elf/lib/pic\libsysbase.a(iosupport.o)
                0x000000000002c6d8                GetDeviceOpTab
 *fill*         0x000000000002c70c        0x4 
 .text._sbrk_r  0x000000000002c710       0x78 c:/devkitpro/devkita64/bin/../lib/gcc/aarch64-none-elf/9.2.0/../../../../aarch64-none-elf/lib/pic\libsysbase.a(sbrk.o)
                0x000000000002c710                _sbrk_r
 .text._exit    0x000000000002c788       0x20 c:/devkitpro/devkita64/bin/../lib/gcc/aarch64-none-elf/9.2.0/../../../../aarch64-none-elf/lib/pic\libsysbase.a(_exit.o)
                0x000000000002c788                _exit
 .text._concatenate_path
                0x000000000002c7a8      0x228 c:/devkitpro/devkita64/bin/../lib/gcc/aarch64-none-elf/9.2.0/../../../../aarch64-none-elf/lib/pic\libsysbase.a(chdir.o)
                0x000000000002c7a8                _concatenate_path
 .text.chdir    0x000000000002c9d0      0x178 c:/devkitpro/devkita64/bin/../lib/gcc/aarch64-none-elf/9.2.0/../../../../aarch64-none-elf/lib/pic\libsysbase.a(chdir.o)
                0x000000000002c9d0                chdir
 .text.getcwd   0x000000000002cb48       0xb8 c:/devkitpro/devkita64/bin/../lib/gcc/aarch64-none-elf/9.2.0/../../../../aarch64-none-elf/lib/pic\libsysbase.a(chdir.o)
                0x000000000002cb48                getcwd
 .text.timespec2nsec
                0x000000000002cc00       0x14 c:/devkitpro/devkita64/bin/../lib/gcc/aarch64-none-elf/9.2.0/../../../../aarch64-none-elf/lib/pic\libsysbase.a(locks.o)
                0x000000000002cc00                timespec2nsec
 *fill*         0x000000000002cc14        0x4 
 .text.abstimespec2nsec
                0x000000000002cc18       0xc4 c:/devkitpro/devkita64/bin/../lib/gcc/aarch64-none-elf/9.2.0/../../../../aarch64-none-elf/lib/pic\libsysbase.a(locks.o)
                0x000000000002cc18                abstimespec2nsec
 *fill*         0x000000000002ccdc        0x4 
 .text.__libc_lock_init
                0x000000000002cce0        0x8 c:/devkitpro/devkita64/bin/../lib/gcc/aarch64-none-elf/9.2.0/../../../../aarch64-none-elf/lib/pic\libsysbase.a(locks.o)
                0x000000000002cce0                __libc_lock_init
 .text.__libc_lock_acquire
                0x000000000002cce8       0x14 c:/devkitpro/devkita64/bin/../lib/gcc/aarch64-none-elf/9.2.0/../../../../aarch64-none-elf/lib/pic\libsysbase.a(locks.o)
                0x000000000002cce8                __libc_lock_acquire
 *fill*         0x000000000002ccfc        0x4 
 .text.__libc_lock_try_acquire
                0x000000000002cd00       0x18 c:/devkitpro/devkita64/bin/../lib/gcc/aarch64-none-elf/9.2.0/../../../../aarch64-none-elf/lib/pic\libsysbase.a(locks.o)
                0x000000000002cd00                __libc_lock_try_acquire
 .text.__libc_lock_release
                0x000000000002cd18       0x14 c:/devkitpro/devkita64/bin/../lib/gcc/aarch64-none-elf/9.2.0/../../../../aarch64-none-elf/lib/pic\libsysbase.a(locks.o)
                0x000000000002cd18                __libc_lock_release
 *fill*         0x000000000002cd2c        0x4 
 .text.__libc_lock_close
                0x000000000002cd30        0x4 c:/devkitpro/devkita64/bin/../lib/gcc/aarch64-none-elf/9.2.0/../../../../aarch64-none-elf/lib/pic\libsysbase.a(locks.o)
                0x000000000002cd30                __libc_lock_close
 *fill*         0x000000000002cd34        0x4 
 .text.__libc_lock_init_recursive
                0x000000000002cd38        0xc c:/devkitpro/devkita64/bin/../lib/gcc/aarch64-none-elf/9.2.0/../../../../aarch64-none-elf/lib/pic\libsysbase.a(locks.o)
                0x000000000002cd38                __libc_lock_init_recursive
 *fill*         0x000000000002cd44        0x4 
 .text.__libc_lock_acquire_recursive
                0x000000000002cd48       0x14 c:/devkitpro/devkita64/bin/../lib/gcc/aarch64-none-elf/9.2.0/../../../../aarch64-none-elf/lib/pic\libsysbase.a(locks.o)
                0x000000000002cd48                __libc_lock_acquire_recursive
 *fill*         0x000000000002cd5c        0x4 
 .text.__libc_lock_try_acquire_recursive
                0x000000000002cd60       0x18 c:/devkitpro/devkita64/bin/../lib/gcc/aarch64-none-elf/9.2.0/../../../../aarch64-none-elf/lib/pic\libsysbase.a(locks.o)
                0x000000000002cd60                __libc_lock_try_acquire_recursive
 .text.__libc_lock_release_recursive
                0x000000000002cd78       0x14 c:/devkitpro/devkita64/bin/../lib/gcc/aarch64-none-elf/9.2.0/../../../../aarch64-none-elf/lib/pic\libsysbase.a(locks.o)
                0x000000000002cd78                __libc_lock_release_recursive
 *fill*         0x000000000002cd8c        0x4 
 .text.__libc_lock_close_recursive
                0x000000000002cd90        0x4 c:/devkitpro/devkita64/bin/../lib/gcc/aarch64-none-elf/9.2.0/../../../../aarch64-none-elf/lib/pic\libsysbase.a(locks.o)
                0x000000000002cd90                __libc_lock_close_recursive
 *fill*         0x000000000002cd94        0x4 
 .text.__libc_cond_init
                0x000000000002cd98       0x10 c:/devkitpro/devkita64/bin/../lib/gcc/aarch64-none-elf/9.2.0/../../../../aarch64-none-elf/lib/pic\libsysbase.a(locks.o)
                0x000000000002cd98                __libc_cond_init
 .text.__libc_cond_signal
                0x000000000002cda8       0x18 c:/devkitpro/devkita64/bin/../lib/gcc/aarch64-none-elf/9.2.0/../../../../aarch64-none-elf/lib/pic\libsysbase.a(locks.o)
                0x000000000002cda8                __libc_cond_signal
 .text.__libc_cond_broadcast
                0x000000000002cdc0       0x18 c:/devkitpro/devkita64/bin/../lib/gcc/aarch64-none-elf/9.2.0/../../../../aarch64-none-elf/lib/pic\libsysbase.a(locks.o)
                0x000000000002cdc0                __libc_cond_broadcast
 .text.__libc_cond_wait
                0x000000000002cdd8       0x18 c:/devkitpro/devkita64/bin/../lib/gcc/aarch64-none-elf/9.2.0/../../../../aarch64-none-elf/lib/pic\libsysbase.a(locks.o)
                0x000000000002cdd8                __libc_cond_wait
 .text.__libc_cond_wait_recursive
                0x000000000002cdf0       0x18 c:/devkitpro/devkita64/bin/../lib/gcc/aarch64-none-elf/9.2.0/../../../../aarch64-none-elf/lib/pic\libsysbase.a(locks.o)
                0x000000000002cdf0                __libc_cond_wait_recursive
 .text.__getreent
                0x000000000002ce08       0x20 c:/devkitpro/devkita64/bin/../lib/gcc/aarch64-none-elf/9.2.0/../../../../aarch64-none-elf/lib/pic\libsysbase.a(getreent.o)
                0x000000000002ce08                __getreent
 .text.clock_gettime
                0x000000000002ce28       0x34 c:/devkitpro/devkita64/bin/../lib/gcc/aarch64-none-elf/9.2.0/../../../../aarch64-none-elf/lib/pic\libsysbase.a(clocks.o)
                0x000000000002ce28                clock_gettime
 *fill*         0x000000000002ce5c        0x4 
 .text.clock_settime
                0x000000000002ce60       0x34 c:/devkitpro/devkita64/bin/../lib/gcc/aarch64-none-elf/9.2.0/../../../../aarch64-none-elf/lib/pic\libsysbase.a(clocks.o)
                0x000000000002ce60                clock_settime
 *fill*         0x000000000002ce94        0x4 
 .text.clock_getres
                0x000000000002ce98       0x34 c:/devkitpro/devkita64/bin/../lib/gcc/aarch64-none-elf/9.2.0/../../../../aarch64-none-elf/lib/pic\libsysbase.a(clocks.o)
                0x000000000002ce98                clock_getres
 *fill*         0x000000000002cecc        0x4 
 .text.__trunctfdf2
                0x000000000002ced0      0x30c c:/devkitpro/devkita64/bin/../lib/gcc/aarch64-none-elf/9.2.0/pic\libgcc.a(trunctfdf2.o)
                0x000000000002ced0                __trunctfdf2
 *fill*         0x000000000002d1dc        0x4 
 .text.__sfp_handle_exceptions
                0x000000000002d1e0       0x70 c:/devkitpro/devkita64/bin/../lib/gcc/aarch64-none-elf/9.2.0/pic\libgcc.a(sfp-exceptions.o)
                0x000000000002d1e0                __sfp_handle_exceptions
 .text          0x000000000002d250      0x100 c:/devkitpro/devkita64/bin/../lib/gcc/aarch64-none-elf/9.2.0/../../../../aarch64-none-elf/lib/pic\libg.a(lib_a-strrchr.o)
                0x000000000002d250                strrchr
                0x000000000002d350                . = ALIGN (0x8)

.fini           0x000000000002d350       0x38
 *(.fini)
 .fini          0x000000000002d350       0x18 c:/devkitpro/devkita64/bin/../lib/gcc/aarch64-none-elf/9.2.0/pic/crti.o
                0x000000000002d350                _fini
 .fini          0x000000000002d368       0x1c c:/devkitpro/devkita64/bin/../lib/gcc/aarch64-none-elf/9.2.0/pic/crtn.o
                0x000000000002d388                . = ALIGN (0x8)
 *fill*         0x000000000002d384        0x4 
                0x000000000002e000                . = ALIGN (0x1000)

.rodata         0x000000000002e000     0x1e50
 *(.rodata .rodata.* .gnu.linkonce.r.*)
 .rodata.str1.8
                0x000000000002e000      0x46a main.o
 *fill*         0x000000000002e46a        0x6 
 .rodata        0x000000000002e470      0x400 main.o
 .rodata.str1.8
                0x000000000002e870        0x5 acmd_wrapper.o
 *fill*         0x000000000002e875        0x3 
 .rodata        0x000000000002e878      0x400 acmd_wrapper.o
 .rodata.str1.8
                0x000000000002ec78        0x5 saltysd_helper.o
 *fill*         0x000000000002ec7d        0x3 
 .rodata        0x000000000002ec80        0x5 saltysd_helper.o
 *fill*         0x000000000002ec85        0x3 
 .rodata        0x000000000002ec88       0x60 lua_bind_hash.o
 .rodata.str1.8
                0x000000000002ece8      0x147 raygun_printer.o
                                        0x14f (size before relaxing)
 *fill*         0x000000000002ee2f        0x1 
 .rodata        0x000000000002ee30      0x53c raygun_printer.o
 *fill*         0x000000000002f36c        0x4 
 .rodata._fsdevUnmountDeviceStruct.part.4.str1.8
                0x000000000002f370        0x2 C:/Users/oukeh/OneDrive/桌面/code-mod-example/code-mod-framework/lib/libnx_min/nx/lib\libnx_min.a(fs_dev.o)
 *fill*         0x000000000002f372        0x6 
 .rodata.error_table
                0x000000000002f378       0x20 C:/Users/oukeh/OneDrive/桌面/code-mod-example/code-mod-framework/lib/libnx_min/nx/lib\libnx_min.a(fs_dev.o)
 .rodata.fsdevMountSdmc.str1.8
                0x000000000002f398        0x5 C:/Users/oukeh/OneDrive/桌面/code-mod-example/code-mod-framework/lib/libnx_min/nx/lib\libnx_min.a(fs_dev.o)
 *fill*         0x000000000002f39d        0x3 
 .rodata.fsInitialize.str1.8
                0x000000000002f3a0        0x8 C:/Users/oukeh/OneDrive/桌面/code-mod-example/code-mod-framework/lib/libnx_min/nx/lib\libnx_min.a(fs.o)
 .rodata.setInitialize.str1.8
                0x000000000002f3a8        0x4 C:/Users/oukeh/OneDrive/桌面/code-mod-example/code-mod-framework/lib/libnx_min/nx/lib\libnx_min.a(set.o)
 *fill*         0x000000000002f3ac        0x4 
 .rodata.setsysInitialize.str1.8
                0x000000000002f3b0        0x8 C:/Users/oukeh/OneDrive/桌面/code-mod-example/code-mod-framework/lib/libnx_min/nx/lib\libnx_min.a(set.o)
 .rodata._fatalImpl.str1.8
                0x000000000002f3b8        0x8 C:/Users/oukeh/OneDrive/桌面/code-mod-example/code-mod-framework/lib/libnx_min/nx/lib\libnx_min.a(fatal.o)
 .rodata.smInitialize.str1.8
                0x000000000002f3c0        0x4 C:/Users/oukeh/OneDrive/桌面/code-mod-example/code-mod-framework/lib/libnx_min/nx/lib\libnx_min.a(sm.o)
                                          0x9 (size before relaxing)
 *fill*         0x000000000002f3c4        0x4 
 .rodata        0x000000000002f3c8       0x24 C:/Users/oukeh/OneDrive/桌面/code-mod-example/code-mod-framework/lib/libnx_min/nx/lib\libnx_min.a(hid.o)
 *fill*         0x000000000002f3ec        0x4 
 .rodata.hidInitialize.str1.8
                0x000000000002f3f0        0x4 C:/Users/oukeh/OneDrive/桌面/code-mod-example/code-mod-framework/lib/libnx_min/nx/lib\libnx_min.a(hid.o)
 *fill*         0x000000000002f3f4        0x4 
 .rodata.timeInitialize.str1.8
                0x000000000002f3f8        0xf C:/Users/oukeh/OneDrive/桌面/code-mod-example/code-mod-framework/lib/libnx_min/nx/lib\libnx_min.a(time.o)
 *fill*         0x000000000002f407        0x1 
 .rodata.CSWTCH.93
                0x000000000002f408       0x14 C:/Users/oukeh/OneDrive/桌面/code-mod-example/code-mod-framework/lib/libnx_min/nx/lib\libnx_min.a(applet.o)
 *fill*         0x000000000002f41c        0x4 
 .rodata.appletInitialize.str1.8
                0x000000000002f420       0x19 C:/Users/oukeh/OneDrive/桌面/code-mod-example/code-mod-framework/lib/libnx_min/nx/lib\libnx_min.a(applet.o)
 *fill*         0x000000000002f439        0x7 
 .rodata.__libnx_init_time.str1.8
                0x000000000002f440        0x3 C:/Users/oukeh/OneDrive/桌面/code-mod-example/code-mod-framework/lib/libnx_min/nx/lib\libnx_min.a(newlib.o)
 *fill*         0x000000000002f443        0x5 
 .rodata.apmInitialize.str1.8
                0x000000000002f448        0x4 C:/Users/oukeh/OneDrive/桌面/code-mod-example/code-mod-framework/lib/libnx_min/nx/lib\libnx_min.a(apm.o)
 *fill*         0x000000000002f44c        0x4 
 .rodata._ctype_
                0x000000000002f450      0x101 c:/devkitpro/devkita64/bin/../lib/gcc/aarch64-none-elf/9.2.0/../../../../aarch64-none-elf/lib/pic\libg.a(lib_a-ctype_.o)
                0x000000000002f450                _ctype_
 *fill*         0x000000000002f551        0x3 
 .rodata.get_arg
                0x000000000002f554       0x92 c:/devkitpro/devkita64/bin/../lib/gcc/aarch64-none-elf/9.2.0/../../../../aarch64-none-elf/lib/pic\libg.a(lib_a-svfprintf.o)
 .rodata._svfprintf_r.str1.1
                0x000000000002f5e6       0x3b c:/devkitpro/devkita64/bin/../lib/gcc/aarch64-none-elf/9.2.0/../../../../aarch64-none-elf/lib/pic\libg.a(lib_a-svfprintf.o)
 *fill*         0x000000000002f621        0x3 
 .rodata._svfprintf_r
                0x000000000002f624       0xb6 c:/devkitpro/devkita64/bin/../lib/gcc/aarch64-none-elf/9.2.0/../../../../aarch64-none-elf/lib/pic\libg.a(lib_a-svfprintf.o)
 *fill*         0x000000000002f6da        0x6 
 .rodata.blanks.6692
                0x000000000002f6e0       0x10 c:/devkitpro/devkita64/bin/../lib/gcc/aarch64-none-elf/9.2.0/../../../../aarch64-none-elf/lib/pic\libg.a(lib_a-svfprintf.o)
 .rodata.zeroes.6693
                0x000000000002f6f0       0x10 c:/devkitpro/devkita64/bin/../lib/gcc/aarch64-none-elf/9.2.0/../../../../aarch64-none-elf/lib/pic\libg.a(lib_a-svfprintf.o)
 .rodata._dtoa_r.str1.8
                0x000000000002f700       0x1a c:/devkitpro/devkita64/bin/../lib/gcc/aarch64-none-elf/9.2.0/../../../../aarch64-none-elf/lib/pic\libg.a(lib_a-dtoa.o)
 *fill*         0x000000000002f71a        0x6 
 .rodata.cst8   0x000000000002f720       0x18 c:/devkitpro/devkita64/bin/../lib/gcc/aarch64-none-elf/9.2.0/../../../../aarch64-none-elf/lib/pic\libg.a(lib_a-dtoa.o)
 .rodata.currentlocale.str1.8
                0x000000000002f738        0x2 c:/devkitpro/devkita64/bin/../lib/gcc/aarch64-none-elf/9.2.0/../../../../aarch64-none-elf/lib/pic\libg.a(lib_a-locale.o)
 *fill*         0x000000000002f73a        0x6 
 .rodata.__loadlocale.str1.8
                0x000000000002f740      0x113 c:/devkitpro/devkita64/bin/../lib/gcc/aarch64-none-elf/9.2.0/../../../../aarch64-none-elf/lib/pic\libg.a(lib_a-locale.o)
 *fill*         0x000000000002f853        0x1 
 .rodata.__loadlocale
                0x000000000002f854       0x6a c:/devkitpro/devkita64/bin/../lib/gcc/aarch64-none-elf/9.2.0/../../../../aarch64-none-elf/lib/pic\libg.a(lib_a-locale.o)
 *fill*         0x000000000002f8be        0x2 
 .rodata.__get_locale_env.str1.8
                0x000000000002f8c0        0xd c:/devkitpro/devkita64/bin/../lib/gcc/aarch64-none-elf/9.2.0/../../../../aarch64-none-elf/lib/pic\libg.a(lib_a-locale.o)
 *fill*         0x000000000002f8cd        0x3 
 .rodata.str1.8
                0x000000000002f8d0       0x5c c:/devkitpro/devkita64/bin/../lib/gcc/aarch64-none-elf/9.2.0/../../../../aarch64-none-elf/lib/pic\libg.a(lib_a-locale.o)
                                         0x64 (size before relaxing)
 *fill*         0x000000000002f92c        0x4 
 .rodata.JIS_action_table
                0x000000000002f930       0x48 c:/devkitpro/devkita64/bin/../lib/gcc/aarch64-none-elf/9.2.0/../../../../aarch64-none-elf/lib/pic\libg.a(lib_a-mbtowc_r.o)
 .rodata.JIS_state_table
                0x000000000002f978       0x48 c:/devkitpro/devkita64/bin/../lib/gcc/aarch64-none-elf/9.2.0/../../../../aarch64-none-elf/lib/pic\libg.a(lib_a-mbtowc_r.o)
 .rodata.__mprec_bigtens
                0x000000000002f9c0       0x28 c:/devkitpro/devkita64/bin/../lib/gcc/aarch64-none-elf/9.2.0/../../../../aarch64-none-elf/lib/pic\libg.a(lib_a-mprec.o)
                0x000000000002f9c0                __mprec_bigtens
 .rodata.__mprec_tens
                0x000000000002f9e8       0xc8 c:/devkitpro/devkita64/bin/../lib/gcc/aarch64-none-elf/9.2.0/../../../../aarch64-none-elf/lib/pic\libg.a(lib_a-mprec.o)
                0x000000000002f9e8                __mprec_tens
 .rodata.__mprec_tinytens
                0x000000000002fab0       0x28 c:/devkitpro/devkita64/bin/../lib/gcc/aarch64-none-elf/9.2.0/../../../../aarch64-none-elf/lib/pic\libg.a(lib_a-mprec.o)
                0x000000000002fab0                __mprec_tinytens
 .rodata.p05.5441
                0x000000000002fad8        0xc c:/devkitpro/devkita64/bin/../lib/gcc/aarch64-none-elf/9.2.0/../../../../aarch64-none-elf/lib/pic\libg.a(lib_a-mprec.o)
 .rodata.get_arg
                0x000000000002fae4       0x92 c:/devkitpro/devkita64/bin/../lib/gcc/aarch64-none-elf/9.2.0/../../../../aarch64-none-elf/lib/pic\libg.a(lib_a-svfiprintf.o)
 .rodata._svfiprintf_r.str1.1
                0x000000000002fb76       0x29 c:/devkitpro/devkita64/bin/../lib/gcc/aarch64-none-elf/9.2.0/../../../../aarch64-none-elf/lib/pic\libg.a(lib_a-svfiprintf.o)
 *fill*         0x000000000002fb76        0x2 
 .rodata._svfiprintf_r
                0x000000000002fb78       0xb6 c:/devkitpro/devkita64/bin/../lib/gcc/aarch64-none-elf/9.2.0/../../../../aarch64-none-elf/lib/pic\libg.a(lib_a-svfiprintf.o)
 *fill*         0x000000000002fc2e        0x2 
 .rodata.__action_table
                0x000000000002fc30       0x6c c:/devkitpro/devkita64/bin/../lib/gcc/aarch64-none-elf/9.2.0/../../../../aarch64-none-elf/lib/pic\libg.a(lib_a-svfiprintf.o)
                0x000000000002fc30                __action_table
 *fill*         0x000000000002fc9c        0x4 
 .rodata.__chclass
                0x000000000002fca0      0x100 c:/devkitpro/devkita64/bin/../lib/gcc/aarch64-none-elf/9.2.0/../../../../aarch64-none-elf/lib/pic\libg.a(lib_a-svfiprintf.o)
                0x000000000002fca0                __chclass
 .rodata.__state_table
                0x000000000002fda0       0x6c c:/devkitpro/devkita64/bin/../lib/gcc/aarch64-none-elf/9.2.0/../../../../aarch64-none-elf/lib/pic\libg.a(lib_a-svfiprintf.o)
                0x000000000002fda0                __state_table
 *fill*         0x000000000002fe0c        0x4 
 .rodata.blanks.6671
                0x000000000002fe10       0x10 c:/devkitpro/devkita64/bin/../lib/gcc/aarch64-none-elf/9.2.0/../../../../aarch64-none-elf/lib/pic\libg.a(lib_a-svfiprintf.o)
 .rodata.zeroes.6672
                0x000000000002fe20       0x10 c:/devkitpro/devkita64/bin/../lib/gcc/aarch64-none-elf/9.2.0/../../../../aarch64-none-elf/lib/pic\libg.a(lib_a-svfiprintf.o)
 .rodata.AddDevice.str1.8
                0x000000000002fe30        0x8 c:/devkitpro/devkita64/bin/../lib/gcc/aarch64-none-elf/9.2.0/../../../../aarch64-none-elf/lib/pic\libsysbase.a(iosupport.o)
 .rodata.DIRECTORY_PARENT
                0x000000000002fe38        0x3 c:/devkitpro/devkita64/bin/../lib/gcc/aarch64-none-elf/9.2.0/../../../../aarch64-none-elf/lib/pic\libsysbase.a(chdir.o)
                0x000000000002fe38                DIRECTORY_PARENT
 *fill*         0x000000000002fe3b        0x5 
 .rodata.DIRECTORY_SEPARATOR
                0x000000000002fe40        0x2 c:/devkitpro/devkita64/bin/../lib/gcc/aarch64-none-elf/9.2.0/../../../../aarch64-none-elf/lib/pic\libsysbase.a(chdir.o)
                0x000000000002fe40                DIRECTORY_SEPARATOR
 *fill*         0x000000000002fe42        0x6 
 .rodata.DIRECTORY_THIS
                0x000000000002fe48        0x2 c:/devkitpro/devkita64/bin/../lib/gcc/aarch64-none-elf/9.2.0/../../../../aarch64-none-elf/lib/pic\libsysbase.a(chdir.o)
                0x000000000002fe48                DIRECTORY_THIS
                0x000000000002fe50                . = ALIGN (0x8)
 *fill*         0x000000000002fe4a        0x6 

.eh_frame_hdr   0x000000000002fe50        0x0
                0x000000000002fe50                __eh_frame_hdr_start = .
 *(.eh_frame_hdr)
 *(.eh_frame_entry .eh_frame_entry.*)
                0x000000000002fe50                __eh_frame_hdr_end = .

.eh_frame       0x000000000002fe50     0x79d0
 *(.eh_frame)
 .eh_frame      0x000000000002fe50       0x80 c:/devkitpro/devkita64/bin/../lib/gcc/aarch64-none-elf/9.2.0/pic/crtbegin.o
 .eh_frame      0x000000000002fed0      0x338 main.o
                                        0x350 (size before relaxing)
 .eh_frame      0x0000000000030208      0x328 acmd_wrapper.o
                                        0x338 (size before relaxing)
 .eh_frame      0x0000000000030530       0x78 saltysd_helper.o
                                         0x88 (size before relaxing)
 .eh_frame      0x00000000000305a8       0x40 lua_bind_hash.o
                                         0x58 (size before relaxing)
 .eh_frame      0x00000000000305e8       0xd8 l2c_imports.o
                                         0xe8 (size before relaxing)
 .eh_frame      0x00000000000306c0      0x118 raygun_printer.o
                                        0x128 (size before relaxing)
 .eh_frame      0x00000000000307d8       0x28 C:/Users/oukeh/OneDrive/桌面/code-mod-example/code-mod-framework/lib/libnx_min/nx/lib\libnx_min.a(exception.o)
                                         0x40 (size before relaxing)
 .eh_frame      0x0000000000030800       0xa8 C:/Users/oukeh/OneDrive/桌面/code-mod-example/code-mod-framework/lib/libnx_min/nx/lib\libnx_min.a(argv.o)
                                         0xb8 (size before relaxing)
 .eh_frame      0x00000000000308a8      0x1c0 C:/Users/oukeh/OneDrive/桌面/code-mod-example/code-mod-framework/lib/libnx_min/nx/lib\libnx_min.a(env.o)
                                        0x1d8 (size before relaxing)
 .eh_frame      0x0000000000030a68       0x68 C:/Users/oukeh/OneDrive/桌面/code-mod-example/code-mod-framework/lib/libnx_min/nx/lib\libnx_min.a(init.o)
                                         0xb8 (size before relaxing)
 .eh_frame      0x0000000000030ad0       0x28 C:/Users/oukeh/OneDrive/桌面/code-mod-example/code-mod-framework/lib/libnx_min/nx/lib\libnx_min.a(hosversion.o)
                                         0x40 (size before relaxing)
 .eh_frame      0x0000000000030af8       0x18 C:/Users/oukeh/OneDrive/桌面/code-mod-example/code-mod-framework/lib/libnx_min/nx/lib\libnx_min.a(dynamic.o)
                                         0x30 (size before relaxing)
 .eh_frame      0x0000000000030b10      0x800 C:/Users/oukeh/OneDrive/桌面/code-mod-example/code-mod-framework/lib/libnx_min/nx/lib\libnx_min.a(fs_dev.o)
                                        0x818 (size before relaxing)
 .eh_frame      0x0000000000031310       0x18 C:/Users/oukeh/OneDrive/桌面/code-mod-example/code-mod-framework/lib/libnx_min/nx/lib\libnx_min.a(decode_utf8.o)
                                         0x28 (size before relaxing)
 .eh_frame      0x0000000000031328      0x7d0 C:/Users/oukeh/OneDrive/桌面/code-mod-example/code-mod-framework/lib/libnx_min/nx/lib\libnx_min.a(svc.o)
                                        0x7e8 (size before relaxing)
 .eh_frame      0x0000000000031af8       0x18 C:/Users/oukeh/OneDrive/桌面/code-mod-example/code-mod-framework/lib/libnx_min/nx/lib\libnx_min.a(readtp.o)
                                         0x28 (size before relaxing)
 .eh_frame      0x0000000000031b10      0x108 C:/Users/oukeh/OneDrive/桌面/code-mod-example/code-mod-framework/lib/libnx_min/nx/lib\libnx_min.a(virtmem.o)
                                        0x120 (size before relaxing)
 .eh_frame      0x0000000000031c18       0xb0 C:/Users/oukeh/OneDrive/桌面/code-mod-example/code-mod-framework/lib/libnx_min/nx/lib\libnx_min.a(mutex.o)
                                         0xc0 (size before relaxing)
 .eh_frame      0x0000000000031cc8      0xed0 C:/Users/oukeh/OneDrive/桌面/code-mod-example/code-mod-framework/lib/libnx_min/nx/lib\libnx_min.a(fs.o)
                                        0xee0 (size before relaxing)
 .eh_frame      0x0000000000032b98      0x540 C:/Users/oukeh/OneDrive/桌面/code-mod-example/code-mod-framework/lib/libnx_min/nx/lib\libnx_min.a(set.o)
                                        0x550 (size before relaxing)
 .eh_frame      0x00000000000330d8       0x70 C:/Users/oukeh/OneDrive/桌面/code-mod-example/code-mod-framework/lib/libnx_min/nx/lib\libnx_min.a(fatal.o)
                                         0x88 (size before relaxing)
 .eh_frame      0x0000000000033148      0x1d8 C:/Users/oukeh/OneDrive/桌面/code-mod-example/code-mod-framework/lib/libnx_min/nx/lib\libnx_min.a(sm.o)
                                        0x1f0 (size before relaxing)
 .eh_frame      0x0000000000033320      0xbe0 C:/Users/oukeh/OneDrive/桌面/code-mod-example/code-mod-framework/lib/libnx_min/nx/lib\libnx_min.a(hid.o)
                                        0xbf0 (size before relaxing)
 .eh_frame      0x0000000000033f00      0x180 C:/Users/oukeh/OneDrive/桌面/code-mod-example/code-mod-framework/lib/libnx_min/nx/lib\libnx_min.a(time.o)
                                        0x198 (size before relaxing)
 .eh_frame      0x0000000000034080     0x1448 C:/Users/oukeh/OneDrive/桌面/code-mod-example/code-mod-framework/lib/libnx_min/nx/lib\libnx_min.a(applet.o)
                                       0x1458 (size before relaxing)
 .eh_frame      0x00000000000354c8      0x408 C:/Users/oukeh/OneDrive/桌面/code-mod-example/code-mod-framework/lib/libnx_min/nx/lib\libnx_min.a(newlib.o)
                                        0x420 (size before relaxing)
 .eh_frame      0x00000000000358d0      0x1b8 C:/Users/oukeh/OneDrive/桌面/code-mod-example/code-mod-framework/lib/libnx_min/nx/lib\libnx_min.a(thread.o)
                                        0x1c8 (size before relaxing)
 .eh_frame      0x0000000000035a88       0x30 C:/Users/oukeh/OneDrive/桌面/code-mod-example/code-mod-framework/lib/libnx_min/nx/lib\libnx_min.a(condvar.o)
                                         0x48 (size before relaxing)
 .eh_frame      0x0000000000035ab8       0xb0 C:/Users/oukeh/OneDrive/桌面/code-mod-example/code-mod-framework/lib/libnx_min/nx/lib\libnx_min.a(event.o)
                                         0xc0 (size before relaxing)
 .eh_frame      0x0000000000035b68       0xf0 C:/Users/oukeh/OneDrive/桌面/code-mod-example/code-mod-framework/lib/libnx_min/nx/lib\libnx_min.a(tmem.o)
                                        0x108 (size before relaxing)
 .eh_frame      0x0000000000035c58       0xb0 C:/Users/oukeh/OneDrive/桌面/code-mod-example/code-mod-framework/lib/libnx_min/nx/lib\libnx_min.a(rwlock.o)
                                         0xc0 (size before relaxing)
 .eh_frame      0x0000000000035d08       0xb0 C:/Users/oukeh/OneDrive/桌面/code-mod-example/code-mod-framework/lib/libnx_min/nx/lib\libnx_min.a(wait.o)
                                         0xc8 (size before relaxing)
 .eh_frame      0x0000000000035db8       0xb8 C:/Users/oukeh/OneDrive/桌面/code-mod-example/code-mod-framework/lib/libnx_min/nx/lib\libnx_min.a(shmem.o)
                                         0xc8 (size before relaxing)
 .eh_frame      0x0000000000035e70       0xc8 C:/Users/oukeh/OneDrive/桌面/code-mod-example/code-mod-framework/lib/libnx_min/nx/lib\libnx_min.a(detect.o)
                                         0xd8 (size before relaxing)
 .eh_frame      0x0000000000035f38      0x110 C:/Users/oukeh/OneDrive/桌面/code-mod-example/code-mod-framework/lib/libnx_min/nx/lib\libnx_min.a(apm.o)
                                        0x128 (size before relaxing)
 .eh_frame      0x0000000000036048       0x68 c:/devkitpro/devkita64/bin/../lib/gcc/aarch64-none-elf/9.2.0/../../../../aarch64-none-elf/lib/pic\libg.a(lib_a-bsearch.o)
                                         0x78 (size before relaxing)
 .eh_frame      0x00000000000360b0       0x18 c:/devkitpro/devkita64/bin/../lib/gcc/aarch64-none-elf/9.2.0/../../../../aarch64-none-elf/lib/pic\libg.a(lib_a-ctype_.o)
                                         0x28 (size before relaxing)
 .eh_frame      0x00000000000360c8       0x20 c:/devkitpro/devkita64/bin/../lib/gcc/aarch64-none-elf/9.2.0/../../../../aarch64-none-elf/lib/pic\libg.a(lib_a-errno.o)
                                         0x38 (size before relaxing)
 .eh_frame      0x00000000000360e8       0x20 c:/devkitpro/devkita64/bin/../lib/gcc/aarch64-none-elf/9.2.0/../../../../aarch64-none-elf/lib/pic\libg.a(lib_a-exit.o)
                                         0x30 (size before relaxing)
 .eh_frame      0x0000000000036108       0x28 c:/devkitpro/devkita64/bin/../lib/gcc/aarch64-none-elf/9.2.0/../../../../aarch64-none-elf/lib/pic\libg.a(lib_a-fini.o)
                                         0x38 (size before relaxing)
 .eh_frame      0x0000000000036130       0x28 c:/devkitpro/devkita64/bin/../lib/gcc/aarch64-none-elf/9.2.0/../../../../aarch64-none-elf/lib/pic\libg.a(lib_a-init.o)
                                         0x40 (size before relaxing)
 .eh_frame      0x0000000000036158       0x28 c:/devkitpro/devkita64/bin/../lib/gcc/aarch64-none-elf/9.2.0/../../../../aarch64-none-elf/lib/pic\libg.a(lib_a-malign.o)
                                         0x38 (size before relaxing)
 .eh_frame      0x0000000000036180       0x50 c:/devkitpro/devkita64/bin/../lib/gcc/aarch64-none-elf/9.2.0/../../../../aarch64-none-elf/lib/pic\libg.a(lib_a-malignr.o)
                                         0x60 (size before relaxing)
 .eh_frame      0x00000000000361d0       0x48 c:/devkitpro/devkita64/bin/../lib/gcc/aarch64-none-elf/9.2.0/../../../../aarch64-none-elf/lib/pic\libg.a(lib_a-malloc.o)
                                         0x60 (size before relaxing)
 .eh_frame      0x0000000000036218       0xd0 c:/devkitpro/devkita64/bin/../lib/gcc/aarch64-none-elf/9.2.0/../../../../aarch64-none-elf/lib/pic\libg.a(lib_a-mallocr.o)
                                         0xe0 (size before relaxing)
 .eh_frame      0x00000000000362e8       0x28 c:/devkitpro/devkita64/bin/../lib/gcc/aarch64-none-elf/9.2.0/../../../../aarch64-none-elf/lib/pic\libg.a(lib_a-mlock.o)
                                         0x40 (size before relaxing)
 .eh_frame      0x0000000000036310       0x50 c:/devkitpro/devkita64/bin/../lib/gcc/aarch64-none-elf/9.2.0/../../../../aarch64-none-elf/lib/pic\libg.a(lib_a-setenv.o)
                                         0x60 (size before relaxing)
 .eh_frame      0x0000000000036360       0xb0 c:/devkitpro/devkita64/bin/../lib/gcc/aarch64-none-elf/9.2.0/../../../../aarch64-none-elf/lib/pic\libg.a(lib_a-setenv_r.o)
                                         0xc8 (size before relaxing)
 .eh_frame      0x0000000000036410       0x18 c:/devkitpro/devkita64/bin/../lib/gcc/aarch64-none-elf/9.2.0/../../../../aarch64-none-elf/lib/pic\libg.a(lib_a-strncat.o)
                                         0x28 (size before relaxing)
 .eh_frame      0x0000000000036428       0x18 c:/devkitpro/devkita64/bin/../lib/gcc/aarch64-none-elf/9.2.0/../../../../aarch64-none-elf/lib/pic\libg.a(lib_a-strncpy.o)
                                         0x28 (size before relaxing)
 .eh_frame      0x0000000000036440       0x18 c:/devkitpro/devkita64/bin/../lib/gcc/aarch64-none-elf/9.2.0/../../../../aarch64-none-elf/lib/pic\libg.a(lib_a-toupper.o)
                                         0x28 (size before relaxing)
 .eh_frame      0x0000000000036458       0x60 c:/devkitpro/devkita64/bin/../lib/gcc/aarch64-none-elf/9.2.0/../../../../aarch64-none-elf/lib/pic\libg.a(lib_a-vsnprintf.o)
                                         0x70 (size before relaxing)
 .eh_frame      0x00000000000364b8       0x58 c:/devkitpro/devkita64/bin/../lib/gcc/aarch64-none-elf/9.2.0/../../../../aarch64-none-elf/lib/pic\libg.a(lib_a-__call_atexit.o)
                                         0x70 (size before relaxing)
 .eh_frame      0x0000000000036510       0x28 c:/devkitpro/devkita64/bin/../lib/gcc/aarch64-none-elf/9.2.0/../../../../aarch64-none-elf/lib/pic\libg.a(lib_a-envlock.o)
                                         0x40 (size before relaxing)
 .eh_frame      0x0000000000036538       0x90 c:/devkitpro/devkita64/bin/../lib/gcc/aarch64-none-elf/9.2.0/../../../../aarch64-none-elf/lib/pic\libg.a(lib_a-freer.o)
                                         0xa0 (size before relaxing)
 .eh_frame      0x00000000000365c8       0x78 c:/devkitpro/devkita64/bin/../lib/gcc/aarch64-none-elf/9.2.0/../../../../aarch64-none-elf/lib/pic\libg.a(lib_a-getenv_r.o)
                                         0x90 (size before relaxing)
 .eh_frame      0x0000000000036640       0xf0 c:/devkitpro/devkita64/bin/../lib/gcc/aarch64-none-elf/9.2.0/../../../../aarch64-none-elf/lib/pic\libg.a(lib_a-reallocr.o)
                                        0x108 (size before relaxing)
 .eh_frame      0x0000000000036730       0xa8 c:/devkitpro/devkita64/bin/../lib/gcc/aarch64-none-elf/9.2.0/../../../../aarch64-none-elf/lib/pic\libg.a(lib_a-svfprintf.o)
                                         0xc0 (size before relaxing)
 .eh_frame      0x00000000000367d8       0x70 c:/devkitpro/devkita64/bin/../lib/gcc/aarch64-none-elf/9.2.0/../../../../aarch64-none-elf/lib/pic\libg.a(lib_a-wcrtomb.o)
                                         0x88 (size before relaxing)
 .eh_frame      0x0000000000036848       0x40 c:/devkitpro/devkita64/bin/../lib/gcc/aarch64-none-elf/9.2.0/../../../../aarch64-none-elf/lib/pic\libg.a(lib_a-wcsrtombs.o)
                                         0x58 (size before relaxing)
 .eh_frame      0x0000000000036888       0xa0 c:/devkitpro/devkita64/bin/../lib/gcc/aarch64-none-elf/9.2.0/../../../../aarch64-none-elf/lib/pic\libg.a(lib_a-dtoa.o)
                                         0xb0 (size before relaxing)
 .eh_frame      0x0000000000036928       0x58 c:/devkitpro/devkita64/bin/../lib/gcc/aarch64-none-elf/9.2.0/../../../../aarch64-none-elf/lib/pic\libg.a(lib_a-localeconv.o)
                                         0x68 (size before relaxing)
 .eh_frame      0x0000000000036980      0x218 c:/devkitpro/devkita64/bin/../lib/gcc/aarch64-none-elf/9.2.0/../../../../aarch64-none-elf/lib/pic\libg.a(lib_a-locale.o)
                                        0x228 (size before relaxing)
 .eh_frame      0x0000000000036b98      0x108 c:/devkitpro/devkita64/bin/../lib/gcc/aarch64-none-elf/9.2.0/../../../../aarch64-none-elf/lib/pic\libg.a(lib_a-mbtowc_r.o)
                                        0x118 (size before relaxing)
 .eh_frame      0x0000000000036ca0      0x300 c:/devkitpro/devkita64/bin/../lib/gcc/aarch64-none-elf/9.2.0/../../../../aarch64-none-elf/lib/pic\libg.a(lib_a-mprec.o)
                                        0x318 (size before relaxing)
 .eh_frame      0x0000000000036fa0       0x18 c:/devkitpro/devkita64/bin/../lib/gcc/aarch64-none-elf/9.2.0/../../../../aarch64-none-elf/lib/pic\libg.a(lib_a-s_frexp.o)
                                         0x28 (size before relaxing)
 .eh_frame      0x0000000000036fb8       0x18 c:/devkitpro/devkita64/bin/../lib/gcc/aarch64-none-elf/9.2.0/../../../../aarch64-none-elf/lib/pic\libg.a(lib_a-strcasecmp.o)
                                         0x28 (size before relaxing)
 .eh_frame      0x0000000000036fd0       0x28 c:/devkitpro/devkita64/bin/../lib/gcc/aarch64-none-elf/9.2.0/../../../../aarch64-none-elf/lib/pic\libg.a(lib_a-strcat.o)
                                         0x38 (size before relaxing)
 .eh_frame      0x0000000000036ff8       0x18 c:/devkitpro/devkita64/bin/../lib/gcc/aarch64-none-elf/9.2.0/../../../../aarch64-none-elf/lib/pic\libg.a(lib_a-strlcpy.o)
                                         0x28 (size before relaxing)
 .eh_frame      0x0000000000037010       0x18 c:/devkitpro/devkita64/bin/../lib/gcc/aarch64-none-elf/9.2.0/../../../../aarch64-none-elf/lib/pic\libg.a(lib_a-strncasecmp.o)
                                         0x28 (size before relaxing)
 .eh_frame      0x0000000000037028       0x98 c:/devkitpro/devkita64/bin/../lib/gcc/aarch64-none-elf/9.2.0/../../../../aarch64-none-elf/lib/pic\libg.a(lib_a-strtol.o)
                                         0xa8 (size before relaxing)
 .eh_frame      0x00000000000370c0       0xe0 c:/devkitpro/devkita64/bin/../lib/gcc/aarch64-none-elf/9.2.0/../../../../aarch64-none-elf/lib/pic\libg.a(lib_a-svfiprintf.o)
                                         0xf0 (size before relaxing)
 .eh_frame      0x00000000000371a0      0x138 c:/devkitpro/devkita64/bin/../lib/gcc/aarch64-none-elf/9.2.0/../../../../aarch64-none-elf/lib/pic\libg.a(lib_a-wcsnrtombs.o)
                                        0x150 (size before relaxing)
 .eh_frame      0x00000000000372d8       0x90 c:/devkitpro/devkita64/bin/../lib/gcc/aarch64-none-elf/9.2.0/../../../../aarch64-none-elf/lib/pic\libg.a(lib_a-wctomb_r.o)
                                         0xa8 (size before relaxing)
 .eh_frame      0x0000000000037368       0x30 c:/devkitpro/devkita64/bin/../lib/gcc/aarch64-none-elf/9.2.0/../../../../aarch64-none-elf/lib/pic\libg.a(lib_a-callocr.o)
                                         0x40 (size before relaxing)
 .eh_frame      0x0000000000037398      0x120 c:/devkitpro/devkita64/bin/../lib/gcc/aarch64-none-elf/9.2.0/../../../../aarch64-none-elf/lib/pic\libsysbase.a(iosupport.o)
                                        0x130 (size before relaxing)
 .eh_frame      0x00000000000374b8       0x18 c:/devkitpro/devkita64/bin/../lib/gcc/aarch64-none-elf/9.2.0/../../../../aarch64-none-elf/lib/pic\libsysbase.a(sbrk.o)
                                         0x28 (size before relaxing)
 .eh_frame      0x00000000000374d0       0x20 c:/devkitpro/devkita64/bin/../lib/gcc/aarch64-none-elf/9.2.0/../../../../aarch64-none-elf/lib/pic\libsysbase.a(_exit.o)
                                         0x38 (size before relaxing)
 .eh_frame      0x00000000000374f0      0x108 c:/devkitpro/devkita64/bin/../lib/gcc/aarch64-none-elf/9.2.0/../../../../aarch64-none-elf/lib/pic\libsysbase.a(chdir.o)
                                        0x120 (size before relaxing)
 .eh_frame      0x00000000000375f8      0x168 c:/devkitpro/devkita64/bin/../lib/gcc/aarch64-none-elf/9.2.0/../../../../aarch64-none-elf/lib/pic\libsysbase.a(locks.o)
                                        0x178 (size before relaxing)
 .eh_frame      0x0000000000037760       0x18 c:/devkitpro/devkita64/bin/../lib/gcc/aarch64-none-elf/9.2.0/../../../../aarch64-none-elf/lib/pic\libsysbase.a(getreent.o)
                                         0x28 (size before relaxing)
 .eh_frame      0x0000000000037778       0x60 c:/devkitpro/devkita64/bin/../lib/gcc/aarch64-none-elf/9.2.0/../../../../aarch64-none-elf/lib/pic\libsysbase.a(clocks.o)
                                         0x78 (size before relaxing)
 .eh_frame      0x00000000000377d8       0x30 c:/devkitpro/devkita64/bin/../lib/gcc/aarch64-none-elf/9.2.0/pic\libgcc.a(trunctfdf2.o)
                                         0x48 (size before relaxing)
 .eh_frame      0x0000000000037808       0x14 c:/devkitpro/devkita64/bin/../lib/gcc/aarch64-none-elf/9.2.0/pic\libgcc.a(sfp-exceptions.o)
                                         0x28 (size before relaxing)
 .eh_frame      0x000000000003781c        0x4 c:/devkitpro/devkita64/bin/../lib/gcc/aarch64-none-elf/9.2.0/pic/crtend.o
 *(.eh_frame.*)

.gcc_except_table
 *(.gcc_except_table .gcc_except_table.*)

.gnu_extab
 *(.gnu_extab*)

.dynamic        0x0000000000037820      0x1a0
 *(.dynamic)
 .dynamic       0x0000000000037820      0x1a0 c:/devkitpro/devkita64/bin/../lib/gcc/aarch64-none-elf/9.2.0/pic/crti.o
                0x0000000000037820                _DYNAMIC

.dynsym         0x00000000000379c0     0x4830
 *(.dynsym)
 .dynsym        0x00000000000379c0     0x4830 c:/devkitpro/devkita64/bin/../lib/gcc/aarch64-none-elf/9.2.0/pic/crti.o

.dynstr         0x000000000003c1f0     0x3d41
 *(.dynstr)
 .dynstr        0x000000000003c1f0     0x3d41 c:/devkitpro/devkita64/bin/../lib/gcc/aarch64-none-elf/9.2.0/pic/crti.o

.rela.dyn       0x000000000003ff38     0x3120
 *(.rela.*)
 .rela.got      0x000000000003ff38      0xcf0 c:/devkitpro/devkita64/bin/../lib/gcc/aarch64-none-elf/9.2.0/pic/crti.o
 .rela.plt      0x0000000000042f98       0xc0 c:/devkitpro/devkita64/bin/../lib/gcc/aarch64-none-elf/9.2.0/pic/crti.o
 .rela.bss      0x0000000000040ce8        0x0 c:/devkitpro/devkita64/bin/../lib/gcc/aarch64-none-elf/9.2.0/pic/crti.o
 .rela.data.rel.ro
                0x0000000000040ce8        0x0 c:/devkitpro/devkita64/bin/../lib/gcc/aarch64-none-elf/9.2.0/pic/crti.o
 .rela.init_array
                0x0000000000040c28       0x30 c:/devkitpro/devkita64/bin/../lib/gcc/aarch64-none-elf/9.2.0/pic/crti.o
 .rela.fini_array
                0x0000000000040c58       0x18 c:/devkitpro/devkita64/bin/../lib/gcc/aarch64-none-elf/9.2.0/pic/crti.o
 .rela.ifunc    0x0000000000040d30        0x0 c:/devkitpro/devkita64/bin/../lib/gcc/aarch64-none-elf/9.2.0/pic/crti.o
 .rela.data.rel.local
                0x0000000000040c70      0x3c0 c:/devkitpro/devkita64/bin/../lib/gcc/aarch64-none-elf/9.2.0/pic/crti.o
 .rela.data.rel.ro.local.fsdev_devoptab
                0x0000000000041030      0x210 c:/devkitpro/devkita64/bin/../lib/gcc/aarch64-none-elf/9.2.0/pic/crti.o
 .rela.data.rel.local._impure_ptr
                0x0000000000041240       0x18 c:/devkitpro/devkita64/bin/../lib/gcc/aarch64-none-elf/9.2.0/pic/crti.o
 .rela.data.rel.local.impure_data
                0x0000000000041258       0x48 c:/devkitpro/devkita64/bin/../lib/gcc/aarch64-none-elf/9.2.0/pic/crti.o
 .rela.data.rel.ro.local._global_impure_ptr
                0x00000000000412a0       0x18 c:/devkitpro/devkita64/bin/../lib/gcc/aarch64-none-elf/9.2.0/pic/crti.o
 .rela.data.rel.__malloc_av_
                0x00000000000412b8     0x1800 c:/devkitpro/devkita64/bin/../lib/gcc/aarch64-none-elf/9.2.0/pic/crti.o
 .rela.data.rel.local.environ
                0x0000000000042ab8       0x18 c:/devkitpro/devkita64/bin/../lib/gcc/aarch64-none-elf/9.2.0/pic/crti.o
 .rela.data.rel.__global_locale
                0x0000000000042ad0      0x138 c:/devkitpro/devkita64/bin/../lib/gcc/aarch64-none-elf/9.2.0/pic/crti.o
 .rela.data.rel.ro.__C_locale
                0x0000000000042c08      0x138 c:/devkitpro/devkita64/bin/../lib/gcc/aarch64-none-elf/9.2.0/pic/crti.o
 .rela.data.rel.ro.local.categories
                0x0000000000042d40       0xa8 c:/devkitpro/devkita64/bin/../lib/gcc/aarch64-none-elf/9.2.0/pic/crti.o
 .rela.data.rel.devoptab_list
                0x0000000000042de8      0x180 c:/devkitpro/devkita64/bin/../lib/gcc/aarch64-none-elf/9.2.0/pic/crti.o
 .rela.data.rel.ro.local.dotab_stdnull
                0x0000000000042f68       0x30 c:/devkitpro/devkita64/bin/../lib/gcc/aarch64-none-elf/9.2.0/pic/crti.o

.interp         0x0000000000043058        0xd
 *(.interp)
 .interp        0x0000000000043058        0xd c:/devkitpro/devkita64/bin/../lib/gcc/aarch64-none-elf/9.2.0/pic/crti.o

.hash           0x0000000000043068     0x1434
 *(.hash)
 .hash          0x0000000000043068     0x1434 c:/devkitpro/devkita64/bin/../lib/gcc/aarch64-none-elf/9.2.0/pic/crti.o

.gnu.hash
 *(.gnu.hash)

.gnu.version    0x000000000004449c        0x0
 *(.gnu.version)
 .gnu.version   0x000000000004449c        0x0 c:/devkitpro/devkita64/bin/../lib/gcc/aarch64-none-elf/9.2.0/pic/crti.o

.gnu.version_d  0x00000000000444a0        0x0
 *(.gnu.version_d)
 .gnu.version_d
                0x00000000000444a0        0x0 c:/devkitpro/devkita64/bin/../lib/gcc/aarch64-none-elf/9.2.0/pic/crti.o

.gnu.version_r  0x00000000000444a0        0x0
 *(.gnu.version_r)
 .gnu.version_r
                0x00000000000444a0        0x0 c:/devkitpro/devkita64/bin/../lib/gcc/aarch64-none-elf/9.2.0/pic/crti.o

.note.gnu.build-id
                0x000000000004449c       0x24
 *(.note.gnu.build-id)
 .note.gnu.build-id
                0x000000000004449c       0x24 c:/devkitpro/devkita64/bin/../lib/gcc/aarch64-none-elf/9.2.0/pic/crti.o
                0x0000000000045000                . = ALIGN (0x1000)

.eh_frame
 *(.eh_frame)
 *(.eh_frame.*)

.gcc_except_table
 *(.gcc_except_table .gcc_except_table.*)

.gnu_extab
 *(.gnu_extab*)

.exception_ranges
 *(.exception_ranges .exception_ranges*)

.tdata          0x0000000000045000        0x0
                0x0000000000045000                __tdata_lma = .
 *(.tdata .tdata.* .gnu.linkonce.td.*)
                0x0000000000045000                . = ALIGN (0x8)
                0x0000000000045000                __tdata_lma_end = .

.tbss           0x0000000000045000     0x4408
 *(.tbss .tbss.* .gnu.linkonce.tb.*)
 .tbss.__fixedpath
                0x0000000000045000      0x401 C:/Users/oukeh/OneDrive/桌面/code-mod-example/code-mod-framework/lib/libnx_min/nx/lib\libnx_min.a(fs_dev.o)
 *fill*         0x0000000000045401        0x3 
 .tbss.fsdev_last_result
                0x0000000000045404        0x4 C:/Users/oukeh/OneDrive/桌面/code-mod-example/code-mod-framework/lib/libnx_min/nx/lib\libnx_min.a(fs_dev.o)
 .tbss.tmp_buffer.7389
                0x0000000000045408     0x2000 C:/Users/oukeh/OneDrive/桌面/code-mod-example/code-mod-framework/lib/libnx_min/nx/lib\libnx_min.a(fs_dev.o)
 .tbss.tmp_buffer.7413
                0x0000000000047408     0x2000 C:/Users/oukeh/OneDrive/桌面/code-mod-example/code-mod-framework/lib/libnx_min/nx/lib\libnx_min.a(fs_dev.o)
 *(.tcommon)
                0x0000000000049408                . = ALIGN (0x8)

.preinit_array  0x0000000000045000        0x0
                0x0000000000045000                PROVIDE (__preinit_array_start = .)
 *(.preinit_array)
                0x0000000000045000                PROVIDE (__preinit_array_end = .)

.init_array     0x0000000000045000       0x10
                0x0000000000045000                PROVIDE (__init_array_start = .)
 *(SORT_BY_NAME(.init_array.*))
 *(.init_array)
 .init_array    0x0000000000045000        0x8 c:/devkitpro/devkita64/bin/../lib/gcc/aarch64-none-elf/9.2.0/pic/crtbegin.o
 .init_array    0x0000000000045008        0x8 main.o
                0x0000000000045010                PROVIDE (__init_array_end = .)

.fini_array     0x0000000000045010        0x8
                0x0000000000045010                PROVIDE (__fini_array_start = .)
 *(.fini_array)
 .fini_array    0x0000000000045010        0x8 c:/devkitpro/devkita64/bin/../lib/gcc/aarch64-none-elf/9.2.0/pic/crtbegin.o
 *(SORT_BY_NAME(.fini_array.*))
                0x0000000000045018                PROVIDE (__fini_array_end = .)

.ctors
 *crtbegin.o(.ctors)
 *(EXCLUDE_FILE(*crtend.o) .ctors)
 *(SORT_BY_NAME(.ctors.*))
 *(.ctors)

.dtors
 *crtbegin.o(.dtors)
 *(EXCLUDE_FILE(*crtend.o) .dtors)
 *(SORT_BY_NAME(.dtors.*))
 *(.dtors)
                0x0000000000045018                __got_start__ = .

.got            0x0000000000045018      0x458
 *(.got)
 .got           0x0000000000045018      0x458 c:/devkitpro/devkita64/bin/../lib/gcc/aarch64-none-elf/9.2.0/pic/crti.o
                0x0000000000045018                _GLOBAL_OFFSET_TABLE_
 *(.igot)

.got.plt        0x0000000000045470       0x58
 *(.got.plt)
 .got.plt       0x0000000000045470       0x58 c:/devkitpro/devkita64/bin/../lib/gcc/aarch64-none-elf/9.2.0/pic/crti.o
 *(.igot.plt)
                0x00000000000454c8                __got_end__ = .

.data           0x00000000000454c8     0x1ef8
 *(.data .data.* .gnu.linkonce.d.*)
 .data.rel.ro   0x00000000000454c8        0x0 c:/devkitpro/devkita64/bin/../lib/gcc/aarch64-none-elf/9.2.0/pic/crti.o
 .data          0x00000000000454c8        0x4 main.o
                0x00000000000454c8                __nx_applet_type
 *fill*         0x00000000000454cc        0x4 
 .data.rel.local
                0x00000000000454d0      0x140 raygun_printer.o
                0x00000000000454d0                alphabet
 .data.__nx_exception_stack_size
                0x0000000000045610        0x8 C:/Users/oukeh/OneDrive/桌面/code-mod-example/code-mod-framework/lib/libnx_min/nx/lib\libnx_min.a(init.o)
                0x0000000000045610                __nx_exception_stack_size
 .data.__cwd    0x0000000000045618      0x401 C:/Users/oukeh/OneDrive/桌面/code-mod-example/code-mod-framework/lib/libnx_min/nx/lib\libnx_min.a(fs_dev.o)
 *fill*         0x0000000000045a19        0x3 
 .data.fsdev_fsdevice_cwd
                0x0000000000045a1c        0x4 C:/Users/oukeh/OneDrive/桌面/code-mod-example/code-mod-framework/lib/libnx_min/nx/lib\libnx_min.a(fs_dev.o)
 .data.fsdev_fsdevice_default
                0x0000000000045a20        0x4 C:/Users/oukeh/OneDrive/桌面/code-mod-example/code-mod-framework/lib/libnx_min/nx/lib\libnx_min.a(fs_dev.o)
 *fill*         0x0000000000045a24        0x4 
 .data.rel.ro.local.fsdev_devoptab
                0x0000000000045a28       0xe0 C:/Users/oukeh/OneDrive/桌面/code-mod-example/code-mod-framework/lib/libnx_min/nx/lib\libnx_min.a(fs_dev.o)
 .data.__nx_applet_auto_notifyrunning
                0x0000000000045b08        0x1 C:/Users/oukeh/OneDrive/桌面/code-mod-example/code-mod-framework/lib/libnx_min/nx/lib\libnx_min.a(applet.o)
                0x0000000000045b08                __nx_applet_auto_notifyrunning
 *fill*         0x0000000000045b09        0x7 
 .data.rel.local._impure_ptr
                0x0000000000045b10        0x8 c:/devkitpro/devkita64/bin/../lib/gcc/aarch64-none-elf/9.2.0/../../../../aarch64-none-elf/lib/pic\libg.a(lib_a-impure.o)
                0x0000000000045b10                _impure_ptr
 .data.rel.local.impure_data
                0x0000000000045b18      0x768 c:/devkitpro/devkita64/bin/../lib/gcc/aarch64-none-elf/9.2.0/../../../../aarch64-none-elf/lib/pic\libg.a(lib_a-impure.o)
 .data.rel.ro.local._global_impure_ptr
                0x0000000000046280        0x8 c:/devkitpro/devkita64/bin/../lib/gcc/aarch64-none-elf/9.2.0/../../../../aarch64-none-elf/lib/pic\libg.a(lib_a-impure.o)
                0x0000000000046280                _global_impure_ptr
 .data.__malloc_sbrk_base
                0x0000000000046288        0x8 c:/devkitpro/devkita64/bin/../lib/gcc/aarch64-none-elf/9.2.0/../../../../aarch64-none-elf/lib/pic\libg.a(lib_a-mallocr.o)
                0x0000000000046288                __malloc_sbrk_base
 .data.__malloc_trim_threshold
                0x0000000000046290        0x8 c:/devkitpro/devkita64/bin/../lib/gcc/aarch64-none-elf/9.2.0/../../../../aarch64-none-elf/lib/pic\libg.a(lib_a-mallocr.o)
                0x0000000000046290                __malloc_trim_threshold
 .data.rel.__malloc_av_
                0x0000000000046298      0x810 c:/devkitpro/devkita64/bin/../lib/gcc/aarch64-none-elf/9.2.0/../../../../aarch64-none-elf/lib/pic\libg.a(lib_a-mallocr.o)
                0x0000000000046298                __malloc_av_
 .data.rel.local.environ
                0x0000000000046aa8        0x8 c:/devkitpro/devkita64/bin/../lib/gcc/aarch64-none-elf/9.2.0/../../../../aarch64-none-elf/lib/pic\libg.a(lib_a-environ.o)
                0x0000000000046aa8                environ
 .data.__default_locale
                0x0000000000046ab0       0x20 c:/devkitpro/devkita64/bin/../lib/gcc/aarch64-none-elf/9.2.0/../../../../aarch64-none-elf/lib/pic\libg.a(lib_a-locale.o)
                0x0000000000046ab0                __default_locale
 .data.rel.__global_locale
                0x0000000000046ad0      0x1a8 c:/devkitpro/devkita64/bin/../lib/gcc/aarch64-none-elf/9.2.0/../../../../aarch64-none-elf/lib/pic\libg.a(lib_a-locale.o)
                0x0000000000046ad0                __global_locale
 .data.rel.ro.__C_locale
                0x0000000000046c78      0x1a8 c:/devkitpro/devkita64/bin/../lib/gcc/aarch64-none-elf/9.2.0/../../../../aarch64-none-elf/lib/pic\libg.a(lib_a-locale.o)
                0x0000000000046c78                __C_locale
 .data.rel.ro.local.categories
                0x0000000000046e20       0x38 c:/devkitpro/devkita64/bin/../lib/gcc/aarch64-none-elf/9.2.0/../../../../aarch64-none-elf/lib/pic\libg.a(lib_a-locale.o)
 .data.defaultDevice
                0x0000000000046e58        0x4 c:/devkitpro/devkita64/bin/../lib/gcc/aarch64-none-elf/9.2.0/../../../../aarch64-none-elf/lib/pic\libsysbase.a(iosupport.o)
 *fill*         0x0000000000046e5c        0x4 
 .data.rel.devoptab_list
                0x0000000000046e60       0x80 c:/devkitpro/devkita64/bin/../lib/gcc/aarch64-none-elf/9.2.0/../../../../aarch64-none-elf/lib/pic\libsysbase.a(iosupport.o)
                0x0000000000046e60                devoptab_list
 .data.rel.ro.local.dotab_stdnull
                0x0000000000046ee0       0xe0 c:/devkitpro/devkita64/bin/../lib/gcc/aarch64-none-elf/9.2.0/../../../../aarch64-none-elf/lib/pic\libsysbase.a(iosupport.o)
                0x0000000000046ee0                dotab_stdnull
 .data._current_working_directory
                0x0000000000046fc0      0x400 c:/devkitpro/devkita64/bin/../lib/gcc/aarch64-none-elf/9.2.0/../../../../aarch64-none-elf/lib/pic\libsysbase.a(chdir.o)
                0x00000000000473c0                __bss_start__ = .

.tm_clone_table
                0x00000000000473c0        0x0
 .tm_clone_table
                0x00000000000473c0        0x0 c:/devkitpro/devkita64/bin/../lib/gcc/aarch64-none-elf/9.2.0/pic/crtbegin.o
 .tm_clone_table
                0x00000000000473c0        0x0 c:/devkitpro/devkita64/bin/../lib/gcc/aarch64-none-elf/9.2.0/pic/crtend.o

.bss            0x00000000000473c0    0x15960
 *(.dynbss)
 .dynbss        0x00000000000473c0        0x0 c:/devkitpro/devkita64/bin/../lib/gcc/aarch64-none-elf/9.2.0/pic/crti.o
 *(.bss .bss.* .gnu.linkonce.b.*)
 .bss.completed.8111
                0x00000000000473c0        0x1 c:/devkitpro/devkita64/bin/../lib/gcc/aarch64-none-elf/9.2.0/pic/crtbegin.o
 *fill*         0x00000000000473c1        0x7 
 .bss.object.8116
                0x00000000000473c8       0x30 c:/devkitpro/devkita64/bin/../lib/gcc/aarch64-none-elf/9.2.0/pic/crtbegin.o
 .bss           0x00000000000473f8     0x81a8 main.o
                0x00000000000473f8                prev_get_command_flag_cat
                0x0000000000047400                fighter_agents
                0x0000000000047440                fighter_module_accessors
                0x0000000000047480                acmd_objs
                0x0000000000047580                prev_clear_lua_stack
                0x0000000000047588                orig_ctx
                0x0000000000047590                orig_main_thread
                0x0000000000047598                orig_saved_lr
 .bss           0x000000000004f5a0        0x8 saltysd_helper.o
                0x000000000004f5a0                ANCHOR_ABS
 .bss.g_argv_empty
                0x000000000004f5a8        0x8 C:/Users/oukeh/OneDrive/桌面/code-mod-example/code-mod-framework/lib/libnx_min/nx/lib\libnx_min.a(argv.o)
 .bss.g_hasRandomSeed
                0x000000000004f5b0        0x1 C:/Users/oukeh/OneDrive/桌面/code-mod-example/code-mod-framework/lib/libnx_min/nx/lib\libnx_min.a(env.o)
 .bss.g_isNso   0x000000000004f5b1        0x1 C:/Users/oukeh/OneDrive/桌面/code-mod-example/code-mod-framework/lib/libnx_min/nx/lib\libnx_min.a(env.o)
 *fill*         0x000000000004f5b2        0x2 
 .bss.g_lastLoadResult
                0x000000000004f5b4        0x4 C:/Users/oukeh/OneDrive/桌面/code-mod-example/code-mod-framework/lib/libnx_min/nx/lib\libnx_min.a(env.o)
 .bss.g_loaderRetAddr
                0x000000000004f5b8        0x8 C:/Users/oukeh/OneDrive/桌面/code-mod-example/code-mod-framework/lib/libnx_min/nx/lib\libnx_min.a(env.o)
 .bss.g_mainThreadHandle
                0x000000000004f5c0        0x4 C:/Users/oukeh/OneDrive/桌面/code-mod-example/code-mod-framework/lib/libnx_min/nx/lib\libnx_min.a(env.o)
 *fill*         0x000000000004f5c4        0x4 
 .bss.g_nextLoadArgv
                0x000000000004f5c8        0x8 C:/Users/oukeh/OneDrive/桌面/code-mod-example/code-mod-framework/lib/libnx_min/nx/lib\libnx_min.a(env.o)
 .bss.g_nextLoadPath
                0x000000000004f5d0        0x8 C:/Users/oukeh/OneDrive/桌面/code-mod-example/code-mod-framework/lib/libnx_min/nx/lib\libnx_min.a(env.o)
 .bss.g_overrideArgv
                0x000000000004f5d8        0x8 C:/Users/oukeh/OneDrive/桌面/code-mod-example/code-mod-framework/lib/libnx_min/nx/lib\libnx_min.a(env.o)
 .bss.g_overrideHeapAddr
                0x000000000004f5e0        0x8 C:/Users/oukeh/OneDrive/桌面/code-mod-example/code-mod-framework/lib/libnx_min/nx/lib\libnx_min.a(env.o)
 .bss.g_overrideHeapSize
                0x000000000004f5e8        0x8 C:/Users/oukeh/OneDrive/桌面/code-mod-example/code-mod-framework/lib/libnx_min/nx/lib\libnx_min.a(env.o)
 .bss.g_processHandle
                0x000000000004f5f0        0x4 C:/Users/oukeh/OneDrive/桌面/code-mod-example/code-mod-framework/lib/libnx_min/nx/lib\libnx_min.a(env.o)
 *fill*         0x000000000004f5f4        0x4 
 .bss.g_randomSeed
                0x000000000004f5f8       0x10 C:/Users/oukeh/OneDrive/桌面/code-mod-example/code-mod-framework/lib/libnx_min/nx/lib\libnx_min.a(env.o)
 .bss.g_syscallHints
                0x000000000004f608       0x10 C:/Users/oukeh/OneDrive/桌面/code-mod-example/code-mod-framework/lib/libnx_min/nx/lib\libnx_min.a(env.o)
 .bss.__nx_exception_ignoredebug
                0x000000000004f618        0x4 C:/Users/oukeh/OneDrive/桌面/code-mod-example/code-mod-framework/lib/libnx_min/nx/lib\libnx_min.a(init.o)
                0x000000000004f618                __nx_exception_ignoredebug
 *fill*         0x000000000004f61c        0x4 
 .bss.__nx_exception_stack
                0x000000000004f620      0x400 C:/Users/oukeh/OneDrive/桌面/code-mod-example/code-mod-framework/lib/libnx_min/nx/lib\libnx_min.a(init.o)
                0x000000000004f620                __nx_exception_stack
 .bss.__nx_heap_size
                0x000000000004fa20        0x8 C:/Users/oukeh/OneDrive/桌面/code-mod-example/code-mod-framework/lib/libnx_min/nx/lib\libnx_min.a(init.o)
                0x000000000004fa20                __nx_heap_size
 .bss.g_hosVersion
                0x000000000004fa28        0x4 C:/Users/oukeh/OneDrive/桌面/code-mod-example/code-mod-framework/lib/libnx_min/nx/lib\libnx_min.a(hosversion.o)
 *fill*         0x000000000004fa2c        0x4 
 .bss.fsdev_fsdevices
                0x000000000004fa30     0x2300 C:/Users/oukeh/OneDrive/桌面/code-mod-example/code-mod-framework/lib/libnx_min/nx/lib\libnx_min.a(fs_dev.o)
 .bss.fsdev_initialised
                0x0000000000051d30        0x1 C:/Users/oukeh/OneDrive/桌面/code-mod-example/code-mod-framework/lib/libnx_min/nx/lib\libnx_min.a(fs_dev.o)
 *fill*         0x0000000000051d31        0x7 
 .bss.g_AddressSpace
                0x0000000000051d38       0x10 C:/Users/oukeh/OneDrive/桌面/code-mod-example/code-mod-framework/lib/libnx_min/nx/lib\libnx_min.a(virtmem.o)
 .bss.g_CurrentAddr
                0x0000000000051d48        0x8 C:/Users/oukeh/OneDrive/桌面/code-mod-example/code-mod-framework/lib/libnx_min/nx/lib\libnx_min.a(virtmem.o)
 .bss.g_CurrentMapAddr
                0x0000000000051d50        0x8 C:/Users/oukeh/OneDrive/桌面/code-mod-example/code-mod-framework/lib/libnx_min/nx/lib\libnx_min.a(virtmem.o)
 .bss.g_Region  0x0000000000051d58       0x30 C:/Users/oukeh/OneDrive/桌面/code-mod-example/code-mod-framework/lib/libnx_min/nx/lib\libnx_min.a(virtmem.o)
 .bss.g_VirtMemMutex
                0x0000000000051d88        0x4 C:/Users/oukeh/OneDrive/桌面/code-mod-example/code-mod-framework/lib/libnx_min/nx/lib\libnx_min.a(virtmem.o)
 *fill*         0x0000000000051d8c        0x4 
 .bss.g_fsSrv   0x0000000000051d90        0xc C:/Users/oukeh/OneDrive/桌面/code-mod-example/code-mod-framework/lib/libnx_min/nx/lib\libnx_min.a(fs.o)
 *fill*         0x0000000000051d9c        0x4 
 .bss.g_refCnt  0x0000000000051da0        0x8 C:/Users/oukeh/OneDrive/桌面/code-mod-example/code-mod-framework/lib/libnx_min/nx/lib\libnx_min.a(fs.o)
 .bss.g_refCnt  0x0000000000051da8        0x8 C:/Users/oukeh/OneDrive/桌面/code-mod-example/code-mod-framework/lib/libnx_min/nx/lib\libnx_min.a(set.o)
 .bss.g_refCntSys
                0x0000000000051db0        0x8 C:/Users/oukeh/OneDrive/桌面/code-mod-example/code-mod-framework/lib/libnx_min/nx/lib\libnx_min.a(set.o)
 .bss.g_setLanguageCodes
                0x0000000000051db8      0x200 C:/Users/oukeh/OneDrive/桌面/code-mod-example/code-mod-framework/lib/libnx_min/nx/lib\libnx_min.a(set.o)
 .bss.g_setLanguageCodesInitialized
                0x0000000000051fb8        0x1 C:/Users/oukeh/OneDrive/桌面/code-mod-example/code-mod-framework/lib/libnx_min/nx/lib\libnx_min.a(set.o)
 *fill*         0x0000000000051fb9        0x3 
 .bss.g_setLanguageCodesTotal
                0x0000000000051fbc        0x4 C:/Users/oukeh/OneDrive/桌面/code-mod-example/code-mod-framework/lib/libnx_min/nx/lib\libnx_min.a(set.o)
 .bss.g_setSrv  0x0000000000051fc0        0xc C:/Users/oukeh/OneDrive/桌面/code-mod-example/code-mod-framework/lib/libnx_min/nx/lib\libnx_min.a(set.o)
 *fill*         0x0000000000051fcc        0x4 
 .bss.g_setsysSrv
                0x0000000000051fd0        0xc C:/Users/oukeh/OneDrive/桌面/code-mod-example/code-mod-framework/lib/libnx_min/nx/lib\libnx_min.a(set.o)
 *fill*         0x0000000000051fdc        0x4 
 .bss.g_refCnt  0x0000000000051fe0        0x8 C:/Users/oukeh/OneDrive/桌面/code-mod-example/code-mod-framework/lib/libnx_min/nx/lib\libnx_min.a(sm.o)
 .bss.g_smOverrides
                0x0000000000051fe8      0x200 C:/Users/oukeh/OneDrive/桌面/code-mod-example/code-mod-framework/lib/libnx_min/nx/lib\libnx_min.a(sm.o)
 .bss.g_smOverridesNum
                0x00000000000521e8        0x8 C:/Users/oukeh/OneDrive/桌面/code-mod-example/code-mod-framework/lib/libnx_min/nx/lib\libnx_min.a(sm.o)
 .bss.g_smSrv   0x00000000000521f0        0xc C:/Users/oukeh/OneDrive/桌面/code-mod-example/code-mod-framework/lib/libnx_min/nx/lib\libnx_min.a(sm.o)
 *fill*         0x00000000000521fc        0x4 
 .bss.g_controllerDown
                0x0000000000052200       0x50 C:/Users/oukeh/OneDrive/桌面/code-mod-example/code-mod-framework/lib/libnx_min/nx/lib\libnx_min.a(hid.o)
 .bss.g_controllerEntries
                0x0000000000052250      0x1e0 C:/Users/oukeh/OneDrive/桌面/code-mod-example/code-mod-framework/lib/libnx_min/nx/lib\libnx_min.a(hid.o)
 .bss.g_controllerHeaders
                0x0000000000052430      0x190 C:/Users/oukeh/OneDrive/桌面/code-mod-example/code-mod-framework/lib/libnx_min/nx/lib\libnx_min.a(hid.o)
 .bss.g_controllerHeld
                0x00000000000525c0       0x50 C:/Users/oukeh/OneDrive/桌面/code-mod-example/code-mod-framework/lib/libnx_min/nx/lib\libnx_min.a(hid.o)
 .bss.g_controllerLayout
                0x0000000000052610       0x28 C:/Users/oukeh/OneDrive/桌面/code-mod-example/code-mod-framework/lib/libnx_min/nx/lib\libnx_min.a(hid.o)
 .bss.g_controllerMisc
                0x0000000000052638      0x500 C:/Users/oukeh/OneDrive/桌面/code-mod-example/code-mod-framework/lib/libnx_min/nx/lib\libnx_min.a(hid.o)
 .bss.g_controllerOld
                0x0000000000052b38       0x50 C:/Users/oukeh/OneDrive/桌面/code-mod-example/code-mod-framework/lib/libnx_min/nx/lib\libnx_min.a(hid.o)
 .bss.g_controllerP1AutoID
                0x0000000000052b88        0x4 C:/Users/oukeh/OneDrive/桌面/code-mod-example/code-mod-framework/lib/libnx_min/nx/lib\libnx_min.a(hid.o)
 *fill*         0x0000000000052b8c        0x4 
 .bss.g_controllerTimestamps
                0x0000000000052b90       0x50 C:/Users/oukeh/OneDrive/桌面/code-mod-example/code-mod-framework/lib/libnx_min/nx/lib\libnx_min.a(hid.o)
 .bss.g_controllerUp
                0x0000000000052be0       0x50 C:/Users/oukeh/OneDrive/桌面/code-mod-example/code-mod-framework/lib/libnx_min/nx/lib\libnx_min.a(hid.o)
 .bss.g_hidIAppletResource
                0x0000000000052c30        0xc C:/Users/oukeh/OneDrive/桌面/code-mod-example/code-mod-framework/lib/libnx_min/nx/lib\libnx_min.a(hid.o)
 *fill*         0x0000000000052c3c        0x4 
 .bss.g_hidLock
                0x0000000000052c40       0x10 C:/Users/oukeh/OneDrive/桌面/code-mod-example/code-mod-framework/lib/libnx_min/nx/lib\libnx_min.a(hid.o)
 .bss.g_hidSharedmem
                0x0000000000052c50       0x20 C:/Users/oukeh/OneDrive/桌面/code-mod-example/code-mod-framework/lib/libnx_min/nx/lib\libnx_min.a(hid.o)
 .bss.g_hidSrv  0x0000000000052c70        0xc C:/Users/oukeh/OneDrive/桌面/code-mod-example/code-mod-framework/lib/libnx_min/nx/lib\libnx_min.a(hid.o)
 *fill*         0x0000000000052c7c        0x4 
 .bss.g_keyboardDown
                0x0000000000052c80       0x20 C:/Users/oukeh/OneDrive/桌面/code-mod-example/code-mod-framework/lib/libnx_min/nx/lib\libnx_min.a(hid.o)
 .bss.g_keyboardEntry
                0x0000000000052ca0       0x38 C:/Users/oukeh/OneDrive/桌面/code-mod-example/code-mod-framework/lib/libnx_min/nx/lib\libnx_min.a(hid.o)
 .bss.g_keyboardHeld
                0x0000000000052cd8       0x20 C:/Users/oukeh/OneDrive/桌面/code-mod-example/code-mod-framework/lib/libnx_min/nx/lib\libnx_min.a(hid.o)
 .bss.g_keyboardModDown
                0x0000000000052cf8        0x8 C:/Users/oukeh/OneDrive/桌面/code-mod-example/code-mod-framework/lib/libnx_min/nx/lib\libnx_min.a(hid.o)
 .bss.g_keyboardModHeld
                0x0000000000052d00        0x8 C:/Users/oukeh/OneDrive/桌面/code-mod-example/code-mod-framework/lib/libnx_min/nx/lib\libnx_min.a(hid.o)
 .bss.g_keyboardModOld
                0x0000000000052d08        0x8 C:/Users/oukeh/OneDrive/桌面/code-mod-example/code-mod-framework/lib/libnx_min/nx/lib\libnx_min.a(hid.o)
 .bss.g_keyboardModUp
                0x0000000000052d10        0x8 C:/Users/oukeh/OneDrive/桌面/code-mod-example/code-mod-framework/lib/libnx_min/nx/lib\libnx_min.a(hid.o)
 .bss.g_keyboardOld
                0x0000000000052d18       0x20 C:/Users/oukeh/OneDrive/桌面/code-mod-example/code-mod-framework/lib/libnx_min/nx/lib\libnx_min.a(hid.o)
 .bss.g_keyboardTimestamp
                0x0000000000052d38        0x8 C:/Users/oukeh/OneDrive/桌面/code-mod-example/code-mod-framework/lib/libnx_min/nx/lib\libnx_min.a(hid.o)
 .bss.g_keyboardUp
                0x0000000000052d40       0x20 C:/Users/oukeh/OneDrive/桌面/code-mod-example/code-mod-framework/lib/libnx_min/nx/lib\libnx_min.a(hid.o)
 .bss.g_mouse   0x0000000000052d60      0x400 C:/Users/oukeh/OneDrive/桌面/code-mod-example/code-mod-framework/lib/libnx_min/nx/lib\libnx_min.a(hid.o)
 .bss.g_mouseDown
                0x0000000000053160        0x8 C:/Users/oukeh/OneDrive/桌面/code-mod-example/code-mod-framework/lib/libnx_min/nx/lib\libnx_min.a(hid.o)
 .bss.g_mouseEntry
                0x0000000000053168        0x8 C:/Users/oukeh/OneDrive/桌面/code-mod-example/code-mod-framework/lib/libnx_min/nx/lib\libnx_min.a(hid.o)
 .bss.g_mouseHeld
                0x0000000000053170        0x8 C:/Users/oukeh/OneDrive/桌面/code-mod-example/code-mod-framework/lib/libnx_min/nx/lib\libnx_min.a(hid.o)
 .bss.g_mouseOld
                0x0000000000053178        0x8 C:/Users/oukeh/OneDrive/桌面/code-mod-example/code-mod-framework/lib/libnx_min/nx/lib\libnx_min.a(hid.o)
 .bss.g_mouseTimestamp
                0x0000000000053180        0x8 C:/Users/oukeh/OneDrive/桌面/code-mod-example/code-mod-framework/lib/libnx_min/nx/lib\libnx_min.a(hid.o)
 .bss.g_mouseUp
                0x0000000000053188        0x8 C:/Users/oukeh/OneDrive/桌面/code-mod-example/code-mod-framework/lib/libnx_min/nx/lib\libnx_min.a(hid.o)
 .bss.g_refCnt  0x0000000000053190        0x8 C:/Users/oukeh/OneDrive/桌面/code-mod-example/code-mod-framework/lib/libnx_min/nx/lib\libnx_min.a(hid.o)
 .bss.g_sevenSixAxisSensorBuffer
                0x0000000000053198        0x8 C:/Users/oukeh/OneDrive/桌面/code-mod-example/code-mod-framework/lib/libnx_min/nx/lib\libnx_min.a(hid.o)
 .bss.g_sevenSixAxisSensorTmem0
                0x00000000000531a0       0x28 C:/Users/oukeh/OneDrive/桌面/code-mod-example/code-mod-framework/lib/libnx_min/nx/lib\libnx_min.a(hid.o)
 .bss.g_sevenSixAxisSensorTmem1
                0x00000000000531c8       0x28 C:/Users/oukeh/OneDrive/桌面/code-mod-example/code-mod-framework/lib/libnx_min/nx/lib\libnx_min.a(hid.o)
 .bss.g_sixaxisEnabled
                0x00000000000531f0        0xa C:/Users/oukeh/OneDrive/桌面/code-mod-example/code-mod-framework/lib/libnx_min/nx/lib\libnx_min.a(hid.o)
 *fill*         0x00000000000531fa        0x6 
 .bss.g_sixaxisLayouts
                0x0000000000053200     0x4650 C:/Users/oukeh/OneDrive/桌面/code-mod-example/code-mod-framework/lib/libnx_min/nx/lib\libnx_min.a(hid.o)
 .bss.g_touchEntry
                0x0000000000057850      0x298 C:/Users/oukeh/OneDrive/桌面/code-mod-example/code-mod-framework/lib/libnx_min/nx/lib\libnx_min.a(hid.o)
 .bss.g_touchTimestamp
                0x0000000000057ae8        0x8 C:/Users/oukeh/OneDrive/桌面/code-mod-example/code-mod-framework/lib/libnx_min/nx/lib\libnx_min.a(hid.o)
 .bss.g_refCnt  0x0000000000057af0        0x8 C:/Users/oukeh/OneDrive/桌面/code-mod-example/code-mod-framework/lib/libnx_min/nx/lib\libnx_min.a(time.o)
 .bss.g_timeLocalSystemClock
                0x0000000000057af8        0xc C:/Users/oukeh/OneDrive/桌面/code-mod-example/code-mod-framework/lib/libnx_min/nx/lib\libnx_min.a(time.o)
 *fill*         0x0000000000057b04        0x4 
 .bss.g_timeNetworkSystemClock
                0x0000000000057b08        0xc C:/Users/oukeh/OneDrive/桌面/code-mod-example/code-mod-framework/lib/libnx_min/nx/lib\libnx_min.a(time.o)
 *fill*         0x0000000000057b14        0x4 
 .bss.g_timeSrv
                0x0000000000057b18        0xc C:/Users/oukeh/OneDrive/桌面/code-mod-example/code-mod-framework/lib/libnx_min/nx/lib\libnx_min.a(time.o)
 *fill*         0x0000000000057b24        0x4 
 .bss.g_timeTimeZoneService
                0x0000000000057b28        0xc C:/Users/oukeh/OneDrive/桌面/code-mod-example/code-mod-framework/lib/libnx_min/nx/lib\libnx_min.a(time.o)
 *fill*         0x0000000000057b34        0x4 
 .bss.g_timeUserSystemClock
                0x0000000000057b38        0xc C:/Users/oukeh/OneDrive/桌面/code-mod-example/code-mod-framework/lib/libnx_min/nx/lib\libnx_min.a(time.o)
 *fill*         0x0000000000057b44        0x4 
 .bss.__nx_applet_AppletAttribute
                0x0000000000057b48       0x80 C:/Users/oukeh/OneDrive/桌面/code-mod-example/code-mod-framework/lib/libnx_min/nx/lib\libnx_min.a(applet.o)
                0x0000000000057b48                __nx_applet_AppletAttribute
 .bss.__nx_applet_PerformanceConfiguration
                0x0000000000057bc8        0x8 C:/Users/oukeh/OneDrive/桌面/code-mod-example/code-mod-framework/lib/libnx_min/nx/lib\libnx_min.a(applet.o)
                0x0000000000057bc8                __nx_applet_PerformanceConfiguration
 .bss.__nx_applet_exit_mode
                0x0000000000057bd0        0x4 C:/Users/oukeh/OneDrive/桌面/code-mod-example/code-mod-framework/lib/libnx_min/nx/lib\libnx_min.a(applet.o)
                0x0000000000057bd0                __nx_applet_exit_mode
 .bss.g_appletCpuBoostMode
                0x0000000000057bd4        0x4 C:/Users/oukeh/OneDrive/桌面/code-mod-example/code-mod-framework/lib/libnx_min/nx/lib\libnx_min.a(applet.o)
 .bss.g_appletExitProcessFlag
                0x0000000000057bd8        0x1 C:/Users/oukeh/OneDrive/桌面/code-mod-example/code-mod-framework/lib/libnx_min/nx/lib\libnx_min.a(applet.o)
 *fill*         0x0000000000057bd9        0x7 
 .bss.g_appletFirstHook
                0x0000000000057be0       0x18 C:/Users/oukeh/OneDrive/桌面/code-mod-example/code-mod-framework/lib/libnx_min/nx/lib\libnx_min.a(applet.o)
 .bss.g_appletFocusState
                0x0000000000057bf8        0x1 C:/Users/oukeh/OneDrive/桌面/code-mod-example/code-mod-framework/lib/libnx_min/nx/lib\libnx_min.a(applet.o)
 *fill*         0x0000000000057bf9        0x7 
 .bss.g_appletIApplicationCreator
                0x0000000000057c00        0xc C:/Users/oukeh/OneDrive/桌面/code-mod-example/code-mod-framework/lib/libnx_min/nx/lib\libnx_min.a(applet.o)
 *fill*         0x0000000000057c0c        0x4 
 .bss.g_appletIAudioController
                0x0000000000057c10        0xc C:/Users/oukeh/OneDrive/桌面/code-mod-example/code-mod-framework/lib/libnx_min/nx/lib\libnx_min.a(applet.o)
 *fill*         0x0000000000057c1c        0x4 
 .bss.g_appletICommonStateGetter
                0x0000000000057c20        0xc C:/Users/oukeh/OneDrive/桌面/code-mod-example/code-mod-framework/lib/libnx_min/nx/lib\libnx_min.a(applet.o)
 *fill*         0x0000000000057c2c        0x4 
 .bss.g_appletIDebugFunctions
                0x0000000000057c30        0xc C:/Users/oukeh/OneDrive/桌面/code-mod-example/code-mod-framework/lib/libnx_min/nx/lib\libnx_min.a(applet.o)
 *fill*         0x0000000000057c3c        0x4 
 .bss.g_appletIDisplayController
                0x0000000000057c40        0xc C:/Users/oukeh/OneDrive/桌面/code-mod-example/code-mod-framework/lib/libnx_min/nx/lib\libnx_min.a(applet.o)
 *fill*         0x0000000000057c4c        0x4 
 .bss.g_appletIFunctions
                0x0000000000057c50        0xc C:/Users/oukeh/OneDrive/桌面/code-mod-example/code-mod-framework/lib/libnx_min/nx/lib\libnx_min.a(applet.o)
 *fill*         0x0000000000057c5c        0x4 
 .bss.g_appletIGlobalStateController
                0x0000000000057c60        0xc C:/Users/oukeh/OneDrive/桌面/code-mod-example/code-mod-framework/lib/libnx_min/nx/lib\libnx_min.a(applet.o)
 *fill*         0x0000000000057c6c        0x4 
 .bss.g_appletILibraryAppletCreator
                0x0000000000057c70        0xc C:/Users/oukeh/OneDrive/桌面/code-mod-example/code-mod-framework/lib/libnx_min/nx/lib\libnx_min.a(applet.o)
 *fill*         0x0000000000057c7c        0x4 
 .bss.g_appletILibraryAppletSelfAccessor
                0x0000000000057c80        0xc C:/Users/oukeh/OneDrive/桌面/code-mod-example/code-mod-framework/lib/libnx_min/nx/lib\libnx_min.a(applet.o)
 *fill*         0x0000000000057c8c        0x4 
 .bss.g_appletIProcessWindingController
                0x0000000000057c90        0xc C:/Users/oukeh/OneDrive/桌面/code-mod-example/code-mod-framework/lib/libnx_min/nx/lib\libnx_min.a(applet.o)
 *fill*         0x0000000000057c9c        0x4 
 .bss.g_appletISelfController
                0x0000000000057ca0        0xc C:/Users/oukeh/OneDrive/桌面/code-mod-example/code-mod-framework/lib/libnx_min/nx/lib\libnx_min.a(applet.o)
 *fill*         0x0000000000057cac        0x4 
 .bss.g_appletIWindowController
                0x0000000000057cb0        0xc C:/Users/oukeh/OneDrive/桌面/code-mod-example/code-mod-framework/lib/libnx_min/nx/lib\libnx_min.a(applet.o)
 *fill*         0x0000000000057cbc        0x4 
 .bss.g_appletLibraryAppletLaunchableEvent
                0x0000000000057cc0        0xc C:/Users/oukeh/OneDrive/桌面/code-mod-example/code-mod-framework/lib/libnx_min/nx/lib\libnx_min.a(applet.o)
 *fill*         0x0000000000057ccc        0x4 
 .bss.g_appletMessageEvent
                0x0000000000057cd0        0xc C:/Users/oukeh/OneDrive/桌面/code-mod-example/code-mod-framework/lib/libnx_min/nx/lib\libnx_min.a(applet.o)
 .bss.g_appletNotifiedRunning
                0x0000000000057cdc        0x1 C:/Users/oukeh/OneDrive/桌面/code-mod-example/code-mod-framework/lib/libnx_min/nx/lib\libnx_min.a(applet.o)
 .bss.g_appletOperationMode
                0x0000000000057cdd        0x1 C:/Users/oukeh/OneDrive/桌面/code-mod-example/code-mod-framework/lib/libnx_min/nx/lib\libnx_min.a(applet.o)
 *fill*         0x0000000000057cde        0x2 
 .bss.g_appletPerformanceMode
                0x0000000000057ce0        0x4 C:/Users/oukeh/OneDrive/桌面/code-mod-example/code-mod-framework/lib/libnx_min/nx/lib\libnx_min.a(applet.o)
 *fill*         0x0000000000057ce4        0x4 
 .bss.g_appletProxySession
                0x0000000000057ce8        0xc C:/Users/oukeh/OneDrive/桌面/code-mod-example/code-mod-framework/lib/libnx_min/nx/lib\libnx_min.a(applet.o)
 .bss.g_appletRecordingInitialized
                0x0000000000057cf4        0x4 C:/Users/oukeh/OneDrive/桌面/code-mod-example/code-mod-framework/lib/libnx_min/nx/lib\libnx_min.a(applet.o)
 .bss.g_appletRecordingTmem
                0x0000000000057cf8       0x28 C:/Users/oukeh/OneDrive/桌面/code-mod-example/code-mod-framework/lib/libnx_min/nx/lib\libnx_min.a(applet.o)
 .bss.g_appletResourceUserId
                0x0000000000057d20        0x8 C:/Users/oukeh/OneDrive/桌面/code-mod-example/code-mod-framework/lib/libnx_min/nx/lib\libnx_min.a(applet.o)
 .bss.g_appletSrv
                0x0000000000057d28        0xc C:/Users/oukeh/OneDrive/桌面/code-mod-example/code-mod-framework/lib/libnx_min/nx/lib\libnx_min.a(applet.o)
 .bss.g_appletThemeColorType
                0x0000000000057d34        0x4 C:/Users/oukeh/OneDrive/桌面/code-mod-example/code-mod-framework/lib/libnx_min/nx/lib\libnx_min.a(applet.o)
 .bss.g_refCnt  0x0000000000057d38        0x8 C:/Users/oukeh/OneDrive/桌面/code-mod-example/code-mod-framework/lib/libnx_min/nx/lib\libnx_min.a(applet.o)
 .bss.__bootticks
                0x0000000000057d40        0x8 C:/Users/oukeh/OneDrive/桌面/code-mod-example/code-mod-framework/lib/libnx_min/nx/lib\libnx_min.a(newlib.o)
 .bss.__boottime
                0x0000000000057d48        0x8 C:/Users/oukeh/OneDrive/桌面/code-mod-example/code-mod-framework/lib/libnx_min/nx/lib\libnx_min.a(newlib.o)
 .bss.__nx_time_type
                0x0000000000057d50        0x4 C:/Users/oukeh/OneDrive/桌面/code-mod-example/code-mod-framework/lib/libnx_min/nx/lib\libnx_min.a(newlib.o)
                0x0000000000057d50                __nx_time_type
 *fill*         0x0000000000057d54        0x4 
 .bss.g_threadList
                0x0000000000057d58        0x8 C:/Users/oukeh/OneDrive/桌面/code-mod-example/code-mod-framework/lib/libnx_min/nx/lib\libnx_min.a(thread.o)
 .bss.g_threadMutex
                0x0000000000057d60        0x4 C:/Users/oukeh/OneDrive/桌面/code-mod-example/code-mod-framework/lib/libnx_min/nx/lib\libnx_min.a(thread.o)
 *fill*         0x0000000000057d64        0x4 
 .bss.g_tlsDestructors
                0x0000000000057d68       0xd0 C:/Users/oukeh/OneDrive/桌面/code-mod-example/code-mod-framework/lib/libnx_min/nx/lib\libnx_min.a(thread.o)
 .bss.g_tlsUsageMask
                0x0000000000057e38        0x8 C:/Users/oukeh/OneDrive/桌面/code-mod-example/code-mod-framework/lib/libnx_min/nx/lib\libnx_min.a(thread.o)
 .bss.g_JitKernelPatchCached
                0x0000000000057e40        0x1 C:/Users/oukeh/OneDrive/桌面/code-mod-example/code-mod-framework/lib/libnx_min/nx/lib\libnx_min.a(detect.o)
 .bss.g_JitKernelPatchDetected
                0x0000000000057e41        0x1 C:/Users/oukeh/OneDrive/桌面/code-mod-example/code-mod-framework/lib/libnx_min/nx/lib\libnx_min.a(detect.o)
 *fill*         0x0000000000057e42        0x2 
 .bss.g_JitKernelPatchMutex
                0x0000000000057e44        0x4 C:/Users/oukeh/OneDrive/桌面/code-mod-example/code-mod-framework/lib/libnx_min/nx/lib\libnx_min.a(detect.o)
 .bss.g_Version
                0x0000000000057e48        0x4 C:/Users/oukeh/OneDrive/桌面/code-mod-example/code-mod-framework/lib/libnx_min/nx/lib\libnx_min.a(detect.o)
 .bss.g_VersionCached
                0x0000000000057e4c        0x1 C:/Users/oukeh/OneDrive/桌面/code-mod-example/code-mod-framework/lib/libnx_min/nx/lib\libnx_min.a(detect.o)
 *fill*         0x0000000000057e4d        0x3 
 .bss.g_VersionMutex
                0x0000000000057e50        0x4 C:/Users/oukeh/OneDrive/桌面/code-mod-example/code-mod-framework/lib/libnx_min/nx/lib\libnx_min.a(detect.o)
 *fill*         0x0000000000057e54        0x4 
 .bss.g_apmISession
                0x0000000000057e58        0xc C:/Users/oukeh/OneDrive/桌面/code-mod-example/code-mod-framework/lib/libnx_min/nx/lib\libnx_min.a(apm.o)
 *fill*         0x0000000000057e64        0x4 
 .bss.g_apmSrv  0x0000000000057e68        0xc C:/Users/oukeh/OneDrive/桌面/code-mod-example/code-mod-framework/lib/libnx_min/nx/lib\libnx_min.a(apm.o)
 *fill*         0x0000000000057e74        0x4 
 .bss.g_refCnt  0x0000000000057e78        0x8 C:/Users/oukeh/OneDrive/桌面/code-mod-example/code-mod-framework/lib/libnx_min/nx/lib\libnx_min.a(apm.o)
 .bss.__malloc_current_mallinfo
                0x0000000000057e80       0x28 c:/devkitpro/devkita64/bin/../lib/gcc/aarch64-none-elf/9.2.0/../../../../aarch64-none-elf/lib/pic\libg.a(lib_a-mallocr.o)
                0x0000000000057e80                __malloc_current_mallinfo
 .bss.__malloc_max_sbrked_mem
                0x0000000000057ea8        0x8 c:/devkitpro/devkita64/bin/../lib/gcc/aarch64-none-elf/9.2.0/../../../../aarch64-none-elf/lib/pic\libg.a(lib_a-mallocr.o)
                0x0000000000057ea8                __malloc_max_sbrked_mem
 .bss.__malloc_max_total_mem
                0x0000000000057eb0        0x8 c:/devkitpro/devkita64/bin/../lib/gcc/aarch64-none-elf/9.2.0/../../../../aarch64-none-elf/lib/pic\libg.a(lib_a-mallocr.o)
                0x0000000000057eb0                __malloc_max_total_mem
 .bss.__malloc_top_pad
                0x0000000000057eb8        0x8 c:/devkitpro/devkita64/bin/../lib/gcc/aarch64-none-elf/9.2.0/../../../../aarch64-none-elf/lib/pic\libg.a(lib_a-mallocr.o)
                0x0000000000057eb8                __malloc_top_pad
 .bss.__malloc_recursive_mutex
                0x0000000000057ec0        0xc c:/devkitpro/devkita64/bin/../lib/gcc/aarch64-none-elf/9.2.0/../../../../aarch64-none-elf/lib/pic\libg.a(lib_a-mlock.o)
 .bss.alloced.4188
                0x0000000000057ecc        0x4 c:/devkitpro/devkita64/bin/../lib/gcc/aarch64-none-elf/9.2.0/../../../../aarch64-none-elf/lib/pic\libg.a(lib_a-setenv_r.o)
 .bss.__atexit_recursive_mutex
                0x0000000000057ed0        0xc c:/devkitpro/devkita64/bin/../lib/gcc/aarch64-none-elf/9.2.0/../../../../aarch64-none-elf/lib/pic\libg.a(lib_a-__call_atexit.o)
                0x0000000000057ed0                __atexit_recursive_mutex
 *fill*         0x0000000000057edc        0x4 
 .bss.initial_env
                0x0000000000057ee0        0x8 c:/devkitpro/devkita64/bin/../lib/gcc/aarch64-none-elf/9.2.0/../../../../aarch64-none-elf/lib/pic\libg.a(lib_a-environ.o)
 .bss.__env_recursive_mutex
                0x0000000000057ee8        0xc c:/devkitpro/devkita64/bin/../lib/gcc/aarch64-none-elf/9.2.0/../../../../aarch64-none-elf/lib/pic\libg.a(lib_a-envlock.o)
 *fill*         0x0000000000057ef4        0x4 
 .bss._PathLocale
                0x0000000000057ef8        0x8 c:/devkitpro/devkita64/bin/../lib/gcc/aarch64-none-elf/9.2.0/../../../../aarch64-none-elf/lib/pic\libg.a(lib_a-locale.o)
                0x0000000000057ef8                _PathLocale
 .bss.global_locale_string
                0x0000000000057f00       0xe7 c:/devkitpro/devkita64/bin/../lib/gcc/aarch64-none-elf/9.2.0/../../../../aarch64-none-elf/lib/pic\libg.a(lib_a-locale.o)
 *fill*         0x0000000000057fe7        0x1 
 .bss.new_categories.4670
                0x0000000000057fe8       0xe0 c:/devkitpro/devkita64/bin/../lib/gcc/aarch64-none-elf/9.2.0/../../../../aarch64-none-elf/lib/pic\libg.a(lib_a-locale.o)
 .bss.saved_categories.4671
                0x00000000000580c8       0xe0 c:/devkitpro/devkita64/bin/../lib/gcc/aarch64-none-elf/9.2.0/../../../../aarch64-none-elf/lib/pic\libg.a(lib_a-locale.o)
 .bss.heap_start.5367
                0x00000000000581a8        0x8 c:/devkitpro/devkita64/bin/../lib/gcc/aarch64-none-elf/9.2.0/../../../../aarch64-none-elf/lib/pic\libsysbase.a(sbrk.o)
 .bss.fake_heap_end
                0x00000000000581b0        0x8 c:/devkitpro/devkita64/bin/../lib/gcc/aarch64-none-elf/9.2.0/../../../../aarch64-none-elf/lib/pic\libsysbase.a(malloc_vars.o)
                0x00000000000581b0                fake_heap_end
 .bss.fake_heap_start
                0x00000000000581b8        0x8 c:/devkitpro/devkita64/bin/../lib/gcc/aarch64-none-elf/9.2.0/../../../../aarch64-none-elf/lib/pic\libsysbase.a(malloc_vars.o)
                0x00000000000581b8                fake_heap_start
 .bss.temp_cwd  0x00000000000581c0      0x400 c:/devkitpro/devkita64/bin/../lib/gcc/aarch64-none-elf/9.2.0/../../../../aarch64-none-elf/lib/pic\libsysbase.a(chdir.o)
 *(COMMON)
 COMMON         0x00000000000585c0        0xc C:/Users/oukeh/OneDrive/桌面/code-mod-example/code-mod-framework/lib/libnx_min/nx/lib\libnx_min.a(argv.o)
                0x00000000000585c0                __system_argv
                0x00000000000585c8                __system_argc
 *fill*         0x00000000000585cc        0x4 
 COMMON         0x00000000000585d0      0x348 C:/Users/oukeh/OneDrive/桌面/code-mod-example/code-mod-framework/lib/libnx_min/nx/lib\libnx_min.a(init.o)
                0x00000000000585d0                __nx_exceptiondump
                0x0000000000058910                __stack_top
                0x0000000000058918                . = ALIGN (0x8)
                0x0000000000058918                __tls_start = .
                0x000000000005cd20                . = (. + (SIZEOF (.tdata) + SIZEOF (.tbss)))
 *fill*         0x0000000000058918     0x4408 
                0x000000000005cd20                __tls_end = .
                0x000000000005cd20                __bss_end__ = .
                0x000000000005cd20                __end__ = ABSOLUTE (.)
                0x000000000005d000                . = ALIGN (0x1000)
                0x000000000005d000                __argdata__ = ABSOLUTE (.)

/DISCARD/
 *(.group .comment .note)

.stab
 *(.stab)

.stabstr
 *(.stabstr)

.stab.excl
 *(.stab.excl)

.stab.exclstr
 *(.stab.exclstr)

.stab.index
 *(.stab.index)

.stab.indexstr
 *(.stab.indexstr)

.debug
 *(.debug)

.line
 *(.line)

.debug_srcinfo
 *(.debug_srcinfo)

.debug_sfnames
 *(.debug_sfnames)

.debug_aranges
 *(.debug_aranges)

.debug_pubnames
 *(.debug_pubnames)

.debug_info
 *(.debug_info)

.debug_abbrev
 *(.debug_abbrev)

.debug_line
 *(.debug_line)

.debug_frame
 *(.debug_frame)

.debug_str
 *(.debug_str)

.debug_loc
 *(.debug_loc)

.debug_macinfo
 *(.debug_macinfo)
LOAD c:/devkitpro/devkita64/bin/../lib/gcc/aarch64-none-elf/9.2.0/pic/crti.o
LOAD c:/devkitpro/devkita64/bin/../lib/gcc/aarch64-none-elf/9.2.0/pic/crtbegin.o
LOAD main.o
LOAD acmd_wrapper.o
LOAD saltysd_helper.o
LOAD lua_bind_hash.o
LOAD l2c_imports.o
LOAD raygun_printer.o
LOAD C:/Users/oukeh/OneDrive/桌面/code-mod-example/code-mod-framework/lib/libnx_min/nx/lib\libnx_min.a
LOAD c:/devkitpro/devkita64/bin/../lib/gcc/aarch64-none-elf/9.2.0/../../../../aarch64-none-elf/lib/pic\libstdc++.a
LOAD c:/devkitpro/devkita64/bin/../lib/gcc/aarch64-none-elf/9.2.0/../../../../aarch64-none-elf/lib/pic\libm.a
START GROUP
LOAD c:/devkitpro/devkita64/bin/../lib/gcc/aarch64-none-elf/9.2.0/pic\libgcc.a
LOAD c:/devkitpro/devkita64/bin/../lib/gcc/aarch64-none-elf/9.2.0/../../../../aarch64-none-elf/lib/pic\libg.a
LOAD c:/devkitpro/devkita64/bin/../lib/gcc/aarch64-none-elf/9.2.0/../../../../aarch64-none-elf/lib/pic\libc.a
LOAD c:/devkitpro/devkita64/bin/../lib/gcc/aarch64-none-elf/9.2.0/../../../../aarch64-none-elf/lib/pic\libsysbase.a
END GROUP
LOAD c:/devkitpro/devkita64/bin/../lib/gcc/aarch64-none-elf/9.2.0/pic/crtend.o
LOAD c:/devkitpro/devkita64/bin/../lib/gcc/aarch64-none-elf/9.2.0/pic/crtn.o
OUTPUT(C:/Users/oukeh/OneDrive/桌面/code-mod-example/code-mod-example.elf elf64-littleaarch64)
