Archive member included to satisfy reference by file (symbol)

C:/Users/oukeh/OneDrive/桌面/code-mod-example/code-mod-framework/lib/libnx_min/nx/lib\libnx_min.a(switch_crt0.o)
                              (_start)
C:/Users/oukeh/OneDrive/桌面/code-mod-example/code-mod-framework/lib/libnx_min/nx/lib\libnx_min.a(exception.o)
                              C:/Users/oukeh/OneDrive/桌面/code-mod-example/code-mod-framework/lib/libnx_min/nx/lib\libnx_min.a(switch_crt0.o) (__libnx_exception_entry)
C:/Users/oukeh/OneDrive/桌面/code-mod-example/code-mod-framework/lib/libnx_min/nx/lib\libnx_min.a(argv.o)
                              C:/Users/oukeh/OneDrive/桌面/code-mod-example/code-mod-framework/lib/libnx_min/nx/lib\libnx_min.a(switch_crt0.o) (__system_argv)
C:/Users/oukeh/OneDrive/桌面/code-mod-example/code-mod-framework/lib/libnx_min/nx/lib\libnx_min.a(env.o)
                              C:/Users/oukeh/OneDrive/桌面/code-mod-example/code-mod-framework/lib/libnx_min/nx/lib\libnx_min.a(argv.o) (envIsNso)
C:/Users/oukeh/OneDrive/桌面/code-mod-example/code-mod-framework/lib/libnx_min/nx/lib\libnx_min.a(init.o)
                              C:/Users/oukeh/OneDrive/桌面/code-mod-example/code-mod-framework/lib/libnx_min/nx/lib\libnx_min.a(exception.o) (__nx_exceptiondump)
C:/Users/oukeh/OneDrive/桌面/code-mod-example/code-mod-framework/lib/libnx_min/nx/lib\libnx_min.a(hosversion.o)
                              C:/Users/oukeh/OneDrive/桌面/code-mod-example/code-mod-framework/lib/libnx_min/nx/lib\libnx_min.a(init.o) (hosversionSet)
C:/Users/oukeh/OneDrive/桌面/code-mod-example/code-mod-framework/lib/libnx_min/nx/lib\libnx_min.a(dynamic.o)
                              C:/Users/oukeh/OneDrive/桌面/code-mod-example/code-mod-framework/lib/libnx_min/nx/lib\libnx_min.a(switch_crt0.o) (__nx_dynamic)
C:/Users/oukeh/OneDrive/桌面/code-mod-example/code-mod-framework/lib/libnx_min/nx/lib\libnx_min.a(fs_dev.o)
                              C:/Users/oukeh/OneDrive/桌面/code-mod-example/code-mod-framework/lib/libnx_min/nx/lib\libnx_min.a(init.o) (fsdevMountSdmc)
C:/Users/oukeh/OneDrive/桌面/code-mod-example/code-mod-framework/lib/libnx_min/nx/lib\libnx_min.a(decode_utf8.o)
                              C:/Users/oukeh/OneDrive/桌面/code-mod-example/code-mod-framework/lib/libnx_min/nx/lib\libnx_min.a(fs_dev.o) (decode_utf8)
C:/Users/oukeh/OneDrive/桌面/code-mod-example/code-mod-framework/lib/libnx_min/nx/lib\libnx_min.a(svc.o)
                              C:/Users/oukeh/OneDrive/桌面/code-mod-example/code-mod-framework/lib/libnx_min/nx/lib\libnx_min.a(init.o) (svcSetHeapSize)
C:/Users/oukeh/OneDrive/桌面/code-mod-example/code-mod-framework/lib/libnx_min/nx/lib\libnx_min.a(readtp.o)
                              C:/Users/oukeh/OneDrive/桌面/code-mod-example/code-mod-framework/lib/libnx_min/nx/lib\libnx_min.a(fs_dev.o) (__aarch64_read_tp)
C:/Users/oukeh/OneDrive/桌面/code-mod-example/code-mod-framework/lib/libnx_min/nx/lib\libnx_min.a(virtmem.o)
                              C:/Users/oukeh/OneDrive/桌面/code-mod-example/code-mod-framework/lib/libnx_min/nx/lib\libnx_min.a(init.o) (virtmemSetup)
C:/Users/oukeh/OneDrive/桌面/code-mod-example/code-mod-framework/lib/libnx_min/nx/lib\libnx_min.a(mutex.o)
                              C:/Users/oukeh/OneDrive/桌面/code-mod-example/code-mod-framework/lib/libnx_min/nx/lib\libnx_min.a(virtmem.o) (mutexLock)
C:/Users/oukeh/OneDrive/桌面/code-mod-example/code-mod-framework/lib/libnx_min/nx/lib\libnx_min.a(fs.o)
                              C:/Users/oukeh/OneDrive/桌面/code-mod-example/code-mod-framework/lib/libnx_min/nx/lib\libnx_min.a(init.o) (fsInitialize)
C:/Users/oukeh/OneDrive/桌面/code-mod-example/code-mod-framework/lib/libnx_min/nx/lib\libnx_min.a(set.o)
                              C:/Users/oukeh/OneDrive/桌面/code-mod-example/code-mod-framework/lib/libnx_min/nx/lib\libnx_min.a(init.o) (setsysInitialize)
C:/Users/oukeh/OneDrive/桌面/code-mod-example/code-mod-framework/lib/libnx_min/nx/lib\libnx_min.a(fatal.o)
                              C:/Users/oukeh/OneDrive/桌面/code-mod-example/code-mod-framework/lib/libnx_min/nx/lib\libnx_min.a(env.o) (fatalSimple)
C:/Users/oukeh/OneDrive/桌面/code-mod-example/code-mod-framework/lib/libnx_min/nx/lib\libnx_min.a(sm.o)
                              C:/Users/oukeh/OneDrive/桌面/code-mod-example/code-mod-framework/lib/libnx_min/nx/lib\libnx_min.a(env.o) (smAddOverrideHandle)
C:/Users/oukeh/OneDrive/桌面/code-mod-example/code-mod-framework/lib/libnx_min/nx/lib\libnx_min.a(hid.o)
                              C:/Users/oukeh/OneDrive/桌面/code-mod-example/code-mod-framework/lib/libnx_min/nx/lib\libnx_min.a(init.o) (hidExit)
C:/Users/oukeh/OneDrive/桌面/code-mod-example/code-mod-framework/lib/libnx_min/nx/lib\libnx_min.a(time.o)
                              C:/Users/oukeh/OneDrive/桌面/code-mod-example/code-mod-framework/lib/libnx_min/nx/lib\libnx_min.a(init.o) (timeExit)
C:/Users/oukeh/OneDrive/桌面/code-mod-example/code-mod-framework/lib/libnx_min/nx/lib\libnx_min.a(applet.o)
                              C:/Users/oukeh/OneDrive/桌面/code-mod-example/code-mod-framework/lib/libnx_min/nx/lib\libnx_min.a(hid.o) (appletGetAppletResourceUserId)
C:/Users/oukeh/OneDrive/桌面/code-mod-example/code-mod-framework/lib/libnx_min/nx/lib\libnx_min.a(newlib.o)
                              C:/Users/oukeh/OneDrive/桌面/code-mod-example/code-mod-framework/lib/libnx_min/nx/lib\libnx_min.a(init.o) (__libnx_init_time)
C:/Users/oukeh/OneDrive/桌面/code-mod-example/code-mod-framework/lib/libnx_min/nx/lib\libnx_min.a(thread.o)
                              C:/Users/oukeh/OneDrive/桌面/code-mod-example/code-mod-framework/lib/libnx_min/nx/lib\libnx_min.a(newlib.o) (threadCreate)
C:/Users/oukeh/OneDrive/桌面/code-mod-example/code-mod-framework/lib/libnx_min/nx/lib\libnx_min.a(condvar.o)
                              C:/Users/oukeh/OneDrive/桌面/code-mod-example/code-mod-framework/lib/libnx_min/nx/lib\libnx_min.a(newlib.o) (condvarWaitTimeout)
C:/Users/oukeh/OneDrive/桌面/code-mod-example/code-mod-framework/lib/libnx_min/nx/lib\libnx_min.a(event.o)
                              C:/Users/oukeh/OneDrive/桌面/code-mod-example/code-mod-framework/lib/libnx_min/nx/lib\libnx_min.a(set.o) (eventLoadRemote)
C:/Users/oukeh/OneDrive/桌面/code-mod-example/code-mod-framework/lib/libnx_min/nx/lib\libnx_min.a(tmem.o)
                              C:/Users/oukeh/OneDrive/桌面/code-mod-example/code-mod-framework/lib/libnx_min/nx/lib\libnx_min.a(applet.o) (tmemCreate)
C:/Users/oukeh/OneDrive/桌面/code-mod-example/code-mod-framework/lib/libnx_min/nx/lib\libnx_min.a(rwlock.o)
                              C:/Users/oukeh/OneDrive/桌面/code-mod-example/code-mod-framework/lib/libnx_min/nx/lib\libnx_min.a(hid.o) (rwlockReadLock)
C:/Users/oukeh/OneDrive/桌面/code-mod-example/code-mod-framework/lib/libnx_min/nx/lib\libnx_min.a(wait.o)
                              C:/Users/oukeh/OneDrive/桌面/code-mod-example/code-mod-framework/lib/libnx_min/nx/lib\libnx_min.a(applet.o) (waitObjects)
C:/Users/oukeh/OneDrive/桌面/code-mod-example/code-mod-framework/lib/libnx_min/nx/lib\libnx_min.a(shmem.o)
                              C:/Users/oukeh/OneDrive/桌面/code-mod-example/code-mod-framework/lib/libnx_min/nx/lib\libnx_min.a(hid.o) (shmemLoadRemote)
C:/Users/oukeh/OneDrive/桌面/code-mod-example/code-mod-framework/lib/libnx_min/nx/lib\libnx_min.a(detect.o)
                              C:/Users/oukeh/OneDrive/桌面/code-mod-example/code-mod-framework/lib/libnx_min/nx/lib\libnx_min.a(fatal.o) (detectKernelVersion)
C:/Users/oukeh/OneDrive/桌面/code-mod-example/code-mod-framework/lib/libnx_min/nx/lib\libnx_min.a(apm.o)
                              C:/Users/oukeh/OneDrive/桌面/code-mod-example/code-mod-framework/lib/libnx_min/nx/lib\libnx_min.a(applet.o) (apmExit)
c:/devkitpro/devkita64/bin/../lib/gcc/aarch64-none-elf/9.2.0/../../../../aarch64-none-elf/lib/pic\libg.a(lib_a-bsearch.o)
                              C:/Users/oukeh/OneDrive/桌面/code-mod-example/code-mod-framework/lib/libnx_min/nx/lib\libnx_min.a(fs_dev.o) (bsearch)
c:/devkitpro/devkita64/bin/../lib/gcc/aarch64-none-elf/9.2.0/../../../../aarch64-none-elf/lib/pic\libg.a(lib_a-ctype_.o)
                              C:/Users/oukeh/OneDrive/桌面/code-mod-example/code-mod-framework/lib/libnx_min/nx/lib\libnx_min.a(argv.o) (_ctype_)
c:/devkitpro/devkita64/bin/../lib/gcc/aarch64-none-elf/9.2.0/../../../../aarch64-none-elf/lib/pic\libg.a(lib_a-errno.o)
                              C:/Users/oukeh/OneDrive/桌面/code-mod-example/code-mod-framework/lib/libnx_min/nx/lib\libnx_min.a(fs_dev.o) (__errno)
c:/devkitpro/devkita64/bin/../lib/gcc/aarch64-none-elf/9.2.0/../../../../aarch64-none-elf/lib/pic\libg.a(lib_a-exit.o)
                              C:/Users/oukeh/OneDrive/桌面/code-mod-example/code-mod-framework/lib/libnx_min/nx/lib\libnx_min.a(switch_crt0.o) (exit)
c:/devkitpro/devkita64/bin/../lib/gcc/aarch64-none-elf/9.2.0/../../../../aarch64-none-elf/lib/pic\libg.a(lib_a-fini.o)
                              main.o (__libc_fini_array)
c:/devkitpro/devkita64/bin/../lib/gcc/aarch64-none-elf/9.2.0/../../../../aarch64-none-elf/lib/pic\libg.a(lib_a-impure.o)
                              c:/devkitpro/devkita64/bin/../lib/gcc/aarch64-none-elf/9.2.0/../../../../aarch64-none-elf/lib/pic\libg.a(lib_a-exit.o) (_global_impure_ptr)
c:/devkitpro/devkita64/bin/../lib/gcc/aarch64-none-elf/9.2.0/../../../../aarch64-none-elf/lib/pic\libg.a(lib_a-init.o)
                              main.o (__libc_init_array)
c:/devkitpro/devkita64/bin/../lib/gcc/aarch64-none-elf/9.2.0/../../../../aarch64-none-elf/lib/pic\libg.a(lib_a-malign.o)
                              C:/Users/oukeh/OneDrive/桌面/code-mod-example/code-mod-framework/lib/libnx_min/nx/lib\libnx_min.a(hid.o) (memalign)
c:/devkitpro/devkita64/bin/../lib/gcc/aarch64-none-elf/9.2.0/../../../../aarch64-none-elf/lib/pic\libg.a(lib_a-malignr.o)
                              c:/devkitpro/devkita64/bin/../lib/gcc/aarch64-none-elf/9.2.0/../../../../aarch64-none-elf/lib/pic\libg.a(lib_a-malign.o) (_memalign_r)
c:/devkitpro/devkita64/bin/../lib/gcc/aarch64-none-elf/9.2.0/../../../../aarch64-none-elf/lib/pic\libg.a(lib_a-malloc.o)
                              C:/Users/oukeh/OneDrive/桌面/code-mod-example/code-mod-framework/lib/libnx_min/nx/lib\libnx_min.a(newlib.o) (malloc)
c:/devkitpro/devkita64/bin/../lib/gcc/aarch64-none-elf/9.2.0/../../../../aarch64-none-elf/lib/pic\libg.a(lib_a-mallocr.o)
                              c:/devkitpro/devkita64/bin/../lib/gcc/aarch64-none-elf/9.2.0/../../../../aarch64-none-elf/lib/pic\libg.a(lib_a-malignr.o) (_malloc_r)
c:/devkitpro/devkita64/bin/../lib/gcc/aarch64-none-elf/9.2.0/../../../../aarch64-none-elf/lib/pic\libg.a(lib_a-memcpy.o)
                              C:/Users/oukeh/OneDrive/桌面/code-mod-example/code-mod-framework/lib/libnx_min/nx/lib\libnx_min.a(fs_dev.o) (memcpy)
c:/devkitpro/devkita64/bin/../lib/gcc/aarch64-none-elf/9.2.0/../../../../aarch64-none-elf/lib/pic\libg.a(lib_a-memset.o)
                              C:/Users/oukeh/OneDrive/桌面/code-mod-example/code-mod-framework/lib/libnx_min/nx/lib\libnx_min.a(argv.o) (memset)
c:/devkitpro/devkita64/bin/../lib/gcc/aarch64-none-elf/9.2.0/../../../../aarch64-none-elf/lib/pic\libg.a(lib_a-mlock.o)
                              c:/devkitpro/devkita64/bin/../lib/gcc/aarch64-none-elf/9.2.0/../../../../aarch64-none-elf/lib/pic\libg.a(lib_a-malignr.o) (__malloc_lock)
c:/devkitpro/devkita64/bin/../lib/gcc/aarch64-none-elf/9.2.0/../../../../aarch64-none-elf/lib/pic\libg.a(lib_a-setenv.o)
                              C:/Users/oukeh/OneDrive/桌面/code-mod-example/code-mod-framework/lib/libnx_min/nx/lib\libnx_min.a(newlib.o) (setenv)
c:/devkitpro/devkita64/bin/../lib/gcc/aarch64-none-elf/9.2.0/../../../../aarch64-none-elf/lib/pic\libg.a(lib_a-setenv_r.o)
                              c:/devkitpro/devkita64/bin/../lib/gcc/aarch64-none-elf/9.2.0/../../../../aarch64-none-elf/lib/pic\libg.a(lib_a-setenv.o) (_setenv_r)
c:/devkitpro/devkita64/bin/../lib/gcc/aarch64-none-elf/9.2.0/../../../../aarch64-none-elf/lib/pic\libg.a(lib_a-strchr.o)
                              raygun_printer.o (strchr)
c:/devkitpro/devkita64/bin/../lib/gcc/aarch64-none-elf/9.2.0/../../../../aarch64-none-elf/lib/pic\libg.a(lib_a-strcpy.o)
                              C:/Users/oukeh/OneDrive/桌面/code-mod-example/code-mod-framework/lib/libnx_min/nx/lib\libnx_min.a(env.o) (strcpy)
c:/devkitpro/devkita64/bin/../lib/gcc/aarch64-none-elf/9.2.0/../../../../aarch64-none-elf/lib/pic\libg.a(lib_a-strlen.o)
                              acmd_wrapper.o (strlen)
c:/devkitpro/devkita64/bin/../lib/gcc/aarch64-none-elf/9.2.0/../../../../aarch64-none-elf/lib/pic\libg.a(lib_a-strncat.o)
                              C:/Users/oukeh/OneDrive/桌面/code-mod-example/code-mod-framework/lib/libnx_min/nx/lib\libnx_min.a(fs_dev.o) (strncat)
c:/devkitpro/devkita64/bin/../lib/gcc/aarch64-none-elf/9.2.0/../../../../aarch64-none-elf/lib/pic\libg.a(lib_a-strncmp.o)
                              saltysd_helper.o (strncmp)
c:/devkitpro/devkita64/bin/../lib/gcc/aarch64-none-elf/9.2.0/../../../../aarch64-none-elf/lib/pic\libg.a(lib_a-strncpy.o)
                              C:/Users/oukeh/OneDrive/桌面/code-mod-example/code-mod-framework/lib/libnx_min/nx/lib\libnx_min.a(argv.o) (strncpy)
c:/devkitpro/devkita64/bin/../lib/gcc/aarch64-none-elf/9.2.0/../../../../aarch64-none-elf/lib/pic\libg.a(lib_a-strnlen.o)
                              C:/Users/oukeh/OneDrive/桌面/code-mod-example/code-mod-framework/lib/libnx_min/nx/lib\libnx_min.a(fs_dev.o) (strnlen)
c:/devkitpro/devkita64/bin/../lib/gcc/aarch64-none-elf/9.2.0/../../../../aarch64-none-elf/lib/pic\libg.a(lib_a-toupper.o)
                              raygun_printer.o (toupper)
c:/devkitpro/devkita64/bin/../lib/gcc/aarch64-none-elf/9.2.0/../../../../aarch64-none-elf/lib/pic\libg.a(lib_a-vsnprintf.o)
                              raygun_printer.o (vsnprintf)
c:/devkitpro/devkita64/bin/../lib/gcc/aarch64-none-elf/9.2.0/../../../../aarch64-none-elf/lib/pic\libg.a(lib_a-__call_atexit.o)
                              c:/devkitpro/devkita64/bin/../lib/gcc/aarch64-none-elf/9.2.0/../../../../aarch64-none-elf/lib/pic\libg.a(lib_a-exit.o) (__call_exitprocs)
c:/devkitpro/devkita64/bin/../lib/gcc/aarch64-none-elf/9.2.0/../../../../aarch64-none-elf/lib/pic\libg.a(lib_a-environ.o)
                              c:/devkitpro/devkita64/bin/../lib/gcc/aarch64-none-elf/9.2.0/../../../../aarch64-none-elf/lib/pic\libg.a(lib_a-setenv_r.o) (environ)
c:/devkitpro/devkita64/bin/../lib/gcc/aarch64-none-elf/9.2.0/../../../../aarch64-none-elf/lib/pic\libg.a(lib_a-envlock.o)
                              c:/devkitpro/devkita64/bin/../lib/gcc/aarch64-none-elf/9.2.0/../../../../aarch64-none-elf/lib/pic\libg.a(lib_a-setenv_r.o) (__env_lock)
c:/devkitpro/devkita64/bin/../lib/gcc/aarch64-none-elf/9.2.0/../../../../aarch64-none-elf/lib/pic\libg.a(lib_a-freer.o)
                              c:/devkitpro/devkita64/bin/../lib/gcc/aarch64-none-elf/9.2.0/../../../../aarch64-none-elf/lib/pic\libg.a(lib_a-malignr.o) (_free_r)
c:/devkitpro/devkita64/bin/../lib/gcc/aarch64-none-elf/9.2.0/../../../../aarch64-none-elf/lib/pic\libg.a(lib_a-getenv_r.o)
                              c:/devkitpro/devkita64/bin/../lib/gcc/aarch64-none-elf/9.2.0/../../../../aarch64-none-elf/lib/pic\libg.a(lib_a-setenv_r.o) (_findenv_r)
c:/devkitpro/devkita64/bin/../lib/gcc/aarch64-none-elf/9.2.0/../../../../aarch64-none-elf/lib/pic\libg.a(lib_a-reallocr.o)
                              c:/devkitpro/devkita64/bin/../lib/gcc/aarch64-none-elf/9.2.0/../../../../aarch64-none-elf/lib/pic\libg.a(lib_a-setenv_r.o) (_realloc_r)
c:/devkitpro/devkita64/bin/../lib/gcc/aarch64-none-elf/9.2.0/../../../../aarch64-none-elf/lib/pic\libg.a(lib_a-svfprintf.o)
                              c:/devkitpro/devkita64/bin/../lib/gcc/aarch64-none-elf/9.2.0/../../../../aarch64-none-elf/lib/pic\libg.a(lib_a-vsnprintf.o) (_svfprintf_r)
c:/devkitpro/devkita64/bin/../lib/gcc/aarch64-none-elf/9.2.0/../../../../aarch64-none-elf/lib/pic\libg.a(lib_a-wcrtomb.o)
                              c:/devkitpro/devkita64/bin/../lib/gcc/aarch64-none-elf/9.2.0/../../../../aarch64-none-elf/lib/pic\libg.a(lib_a-svfprintf.o) (_wcrtomb_r)
c:/devkitpro/devkita64/bin/../lib/gcc/aarch64-none-elf/9.2.0/../../../../aarch64-none-elf/lib/pic\libg.a(lib_a-wcsrtombs.o)
                              c:/devkitpro/devkita64/bin/../lib/gcc/aarch64-none-elf/9.2.0/../../../../aarch64-none-elf/lib/pic\libg.a(lib_a-svfprintf.o) (_wcsrtombs_r)
c:/devkitpro/devkita64/bin/../lib/gcc/aarch64-none-elf/9.2.0/../../../../aarch64-none-elf/lib/pic\libg.a(lib_a-dtoa.o)
                              c:/devkitpro/devkita64/bin/../lib/gcc/aarch64-none-elf/9.2.0/../../../../aarch64-none-elf/lib/pic\libg.a(lib_a-svfprintf.o) (_dtoa_r)
c:/devkitpro/devkita64/bin/../lib/gcc/aarch64-none-elf/9.2.0/../../../../aarch64-none-elf/lib/pic\libg.a(lib_a-localeconv.o)
                              c:/devkitpro/devkita64/bin/../lib/gcc/aarch64-none-elf/9.2.0/../../../../aarch64-none-elf/lib/pic\libg.a(lib_a-svfprintf.o) (_localeconv_r)
c:/devkitpro/devkita64/bin/../lib/gcc/aarch64-none-elf/9.2.0/../../../../aarch64-none-elf/lib/pic\libg.a(lib_a-locale.o)
                              c:/devkitpro/devkita64/bin/../lib/gcc/aarch64-none-elf/9.2.0/../../../../aarch64-none-elf/lib/pic\libg.a(lib_a-svfprintf.o) (__global_locale)
c:/devkitpro/devkita64/bin/../lib/gcc/aarch64-none-elf/9.2.0/../../../../aarch64-none-elf/lib/pic\libg.a(lib_a-mbtowc_r.o)
                              c:/devkitpro/devkita64/bin/../lib/gcc/aarch64-none-elf/9.2.0/../../../../aarch64-none-elf/lib/pic\libg.a(lib_a-locale.o) (__ascii_mbtowc)
c:/devkitpro/devkita64/bin/../lib/gcc/aarch64-none-elf/9.2.0/../../../../aarch64-none-elf/lib/pic\libg.a(lib_a-memchr.o)
                              c:/devkitpro/devkita64/bin/../lib/gcc/aarch64-none-elf/9.2.0/../../../../aarch64-none-elf/lib/pic\libg.a(lib_a-svfprintf.o) (memchr)
c:/devkitpro/devkita64/bin/../lib/gcc/aarch64-none-elf/9.2.0/../../../../aarch64-none-elf/lib/pic\libg.a(lib_a-memmove.o)
                              c:/devkitpro/devkita64/bin/../lib/gcc/aarch64-none-elf/9.2.0/../../../../aarch64-none-elf/lib/pic\libg.a(lib_a-reallocr.o) (memmove)
c:/devkitpro/devkita64/bin/../lib/gcc/aarch64-none-elf/9.2.0/../../../../aarch64-none-elf/lib/pic\libg.a(lib_a-mprec.o)
                              c:/devkitpro/devkita64/bin/../lib/gcc/aarch64-none-elf/9.2.0/../../../../aarch64-none-elf/lib/pic\libg.a(lib_a-dtoa.o) (_Balloc)
c:/devkitpro/devkita64/bin/../lib/gcc/aarch64-none-elf/9.2.0/../../../../aarch64-none-elf/lib/pic\libg.a(lib_a-s_frexp.o)
                              c:/devkitpro/devkita64/bin/../lib/gcc/aarch64-none-elf/9.2.0/../../../../aarch64-none-elf/lib/pic\libg.a(lib_a-svfprintf.o) (frexp)
c:/devkitpro/devkita64/bin/../lib/gcc/aarch64-none-elf/9.2.0/../../../../aarch64-none-elf/lib/pic\libg.a(lib_a-strcasecmp.o)
                              c:/devkitpro/devkita64/bin/../lib/gcc/aarch64-none-elf/9.2.0/../../../../aarch64-none-elf/lib/pic\libg.a(lib_a-locale.o) (strcasecmp)
c:/devkitpro/devkita64/bin/../lib/gcc/aarch64-none-elf/9.2.0/../../../../aarch64-none-elf/lib/pic\libg.a(lib_a-strcat.o)
                              c:/devkitpro/devkita64/bin/../lib/gcc/aarch64-none-elf/9.2.0/../../../../aarch64-none-elf/lib/pic\libg.a(lib_a-locale.o) (strcat)
c:/devkitpro/devkita64/bin/../lib/gcc/aarch64-none-elf/9.2.0/../../../../aarch64-none-elf/lib/pic\libg.a(lib_a-strcmp.o)
                              c:/devkitpro/devkita64/bin/../lib/gcc/aarch64-none-elf/9.2.0/../../../../aarch64-none-elf/lib/pic\libg.a(lib_a-locale.o) (strcmp)
c:/devkitpro/devkita64/bin/../lib/gcc/aarch64-none-elf/9.2.0/../../../../aarch64-none-elf/lib/pic\libg.a(lib_a-strlcpy.o)
                              c:/devkitpro/devkita64/bin/../lib/gcc/aarch64-none-elf/9.2.0/../../../../aarch64-none-elf/lib/pic\libg.a(lib_a-locale.o) (strlcpy)
c:/devkitpro/devkita64/bin/../lib/gcc/aarch64-none-elf/9.2.0/../../../../aarch64-none-elf/lib/pic\libg.a(lib_a-strncasecmp.o)
                              c:/devkitpro/devkita64/bin/../lib/gcc/aarch64-none-elf/9.2.0/../../../../aarch64-none-elf/lib/pic\libg.a(lib_a-locale.o) (strncasecmp)
c:/devkitpro/devkita64/bin/../lib/gcc/aarch64-none-elf/9.2.0/../../../../aarch64-none-elf/lib/pic\libg.a(lib_a-strtol.o)
                              c:/devkitpro/devkita64/bin/../lib/gcc/aarch64-none-elf/9.2.0/../../../../aarch64-none-elf/lib/pic\libg.a(lib_a-locale.o) (strtol)
c:/devkitpro/devkita64/bin/../lib/gcc/aarch64-none-elf/9.2.0/../../../../aarch64-none-elf/lib/pic\libg.a(lib_a-svfiprintf.o)
                              c:/devkitpro/devkita64/bin/../lib/gcc/aarch64-none-elf/9.2.0/../../../../aarch64-none-elf/lib/pic\libg.a(lib_a-svfprintf.o) (__state_table)
c:/devkitpro/devkita64/bin/../lib/gcc/aarch64-none-elf/9.2.0/../../../../aarch64-none-elf/lib/pic\libg.a(lib_a-wcsnrtombs.o)
                              c:/devkitpro/devkita64/bin/../lib/gcc/aarch64-none-elf/9.2.0/../../../../aarch64-none-elf/lib/pic\libg.a(lib_a-wcsrtombs.o) (_wcsnrtombs_r)
c:/devkitpro/devkita64/bin/../lib/gcc/aarch64-none-elf/9.2.0/../../../../aarch64-none-elf/lib/pic\libg.a(lib_a-wctomb_r.o)
                              c:/devkitpro/devkita64/bin/../lib/gcc/aarch64-none-elf/9.2.0/../../../../aarch64-none-elf/lib/pic\libg.a(lib_a-locale.o) (__ascii_wctomb)
c:/devkitpro/devkita64/bin/../lib/gcc/aarch64-none-elf/9.2.0/../../../../aarch64-none-elf/lib/pic\libg.a(lib_a-callocr.o)
                              c:/devkitpro/devkita64/bin/../lib/gcc/aarch64-none-elf/9.2.0/../../../../aarch64-none-elf/lib/pic\libg.a(lib_a-mprec.o) (_calloc_r)
c:/devkitpro/devkita64/bin/../lib/gcc/aarch64-none-elf/9.2.0/../../../../aarch64-none-elf/lib/pic\libsysbase.a(iosupport.o)
                              C:/Users/oukeh/OneDrive/桌面/code-mod-example/code-mod-framework/lib/libnx_min/nx/lib\libnx_min.a(fs_dev.o) (setDefaultDevice)
c:/devkitpro/devkita64/bin/../lib/gcc/aarch64-none-elf/9.2.0/../../../../aarch64-none-elf/lib/pic\libsysbase.a(sbrk.o)
                              c:/devkitpro/devkita64/bin/../lib/gcc/aarch64-none-elf/9.2.0/../../../../aarch64-none-elf/lib/pic\libg.a(lib_a-mallocr.o) (_sbrk_r)
c:/devkitpro/devkita64/bin/../lib/gcc/aarch64-none-elf/9.2.0/../../../../aarch64-none-elf/lib/pic\libsysbase.a(_exit.o)
                              c:/devkitpro/devkita64/bin/../lib/gcc/aarch64-none-elf/9.2.0/../../../../aarch64-none-elf/lib/pic\libg.a(lib_a-exit.o) (_exit)
c:/devkitpro/devkita64/bin/../lib/gcc/aarch64-none-elf/9.2.0/../../../../aarch64-none-elf/lib/pic\libsysbase.a(malloc_vars.o)
                              main.o (fake_heap_start)
c:/devkitpro/devkita64/bin/../lib/gcc/aarch64-none-elf/9.2.0/../../../../aarch64-none-elf/lib/pic\libsysbase.a(chdir.o)
                              C:/Users/oukeh/OneDrive/桌面/code-mod-example/code-mod-framework/lib/libnx_min/nx/lib\libnx_min.a(fs_dev.o) (chdir)
c:/devkitpro/devkita64/bin/../lib/gcc/aarch64-none-elf/9.2.0/../../../../aarch64-none-elf/lib/pic\libsysbase.a(locks.o)
                              C:/Users/oukeh/OneDrive/桌面/code-mod-example/code-mod-framework/lib/libnx_min/nx/lib\libnx_min.a(newlib.o) (timespec2nsec)
c:/devkitpro/devkita64/bin/../lib/gcc/aarch64-none-elf/9.2.0/../../../../aarch64-none-elf/lib/pic\libsysbase.a(getreent.o)
                              C:/Users/oukeh/OneDrive/桌面/code-mod-example/code-mod-framework/lib/libnx_min/nx/lib\libnx_min.a(fs_dev.o) (__getreent)
c:/devkitpro/devkita64/bin/../lib/gcc/aarch64-none-elf/9.2.0/../../../../aarch64-none-elf/lib/pic\libsysbase.a(clocks.o)
                              c:/devkitpro/devkita64/bin/../lib/gcc/aarch64-none-elf/9.2.0/../../../../aarch64-none-elf/lib/pic\libsysbase.a(locks.o) (clock_gettime)
c:/devkitpro/devkita64/bin/../lib/gcc/aarch64-none-elf/9.2.0/pic\libgcc.a(trunctfdf2.o)
                              c:/devkitpro/devkita64/bin/../lib/gcc/aarch64-none-elf/9.2.0/../../../../aarch64-none-elf/lib/pic\libg.a(lib_a-svfprintf.o) (__trunctfdf2)
c:/devkitpro/devkita64/bin/../lib/gcc/aarch64-none-elf/9.2.0/pic\libgcc.a(sfp-exceptions.o)
                              c:/devkitpro/devkita64/bin/../lib/gcc/aarch64-none-elf/9.2.0/pic\libgcc.a(trunctfdf2.o) (__sfp_handle_exceptions)
c:/devkitpro/devkita64/bin/../lib/gcc/aarch64-none-elf/9.2.0/../../../../aarch64-none-elf/lib/pic\libg.a(lib_a-strrchr.o)
                              c:/devkitpro/devkita64/bin/../lib/gcc/aarch64-none-elf/9.2.0/../../../../aarch64-none-elf/lib/pic\libsysbase.a(chdir.o) (strrchr)

Allocating common symbols
Common symbol       size              file

__nx_exceptiondump  0x340             C:/Users/oukeh/OneDrive/桌面/code-mod-example/code-mod-framework/lib/libnx_min/nx/lib\libnx_min.a(init.o)
__system_argv       0x8               C:/Users/oukeh/OneDrive/桌面/code-mod-example/code-mod-framework/lib/libnx_min/nx/lib\libnx_min.a(argv.o)
__system_argc       0x4               C:/Users/oukeh/OneDrive/桌面/code-mod-example/code-mod-framework/lib/libnx_min/nx/lib\libnx_min.a(argv.o)
__stack_top         0x8               C:/Users/oukeh/OneDrive/桌面/code-mod-example/code-mod-framework/lib/libnx_min/nx/lib\libnx_min.a(init.o)

Discarded input sections

 .text          0x0000000000000000        0x0 c:/devkitpro/devkita64/bin/../lib/gcc/aarch64-none-elf/9.2.0/pic/crti.o
 .data          0x0000000000000000        0x0 c:/devkitpro/devkita64/bin/../lib/gcc/aarch64-none-elf/9.2.0/pic/crti.o
 .bss           0x0000000000000000        0x0 c:/devkitpro/devkita64/bin/../lib/gcc/aarch64-none-elf/9.2.0/pic/crti.o
 .text          0x0000000000000000        0x0 c:/devkitpro/devkita64/bin/../lib/gcc/aarch64-none-elf/9.2.0/pic/crtbegin.o
 .data          0x0000000000000000        0x0 c:/devkitpro/devkita64/bin/../lib/gcc/aarch64-none-elf/9.2.0/pic/crtbegin.o
 .bss           0x0000000000000000        0x0 c:/devkitpro/devkita64/bin/../lib/gcc/aarch64-none-elf/9.2.0/pic/crtbegin.o
 .data.__dso_handle
                0x0000000000000000        0x8 c:/devkitpro/devkita64/bin/../lib/gcc/aarch64-none-elf/9.2.0/pic/crtbegin.o
 .comment       0x0000000000000000       0x23 c:/devkitpro/devkita64/bin/../lib/gcc/aarch64-none-elf/9.2.0/pic/crtbegin.o
 .comment       0x0000000000000000       0x23 main.o
 .data          0x0000000000000000        0x0 acmd_wrapper.o
 .bss           0x0000000000000000        0x0 acmd_wrapper.o
 .comment       0x0000000000000000       0x23 acmd_wrapper.o
 .data          0x0000000000000000        0x0 saltysd_helper.o
 .comment       0x0000000000000000       0x23 saltysd_helper.o
 .data          0x0000000000000000        0x0 lua_bind_hash.o
 .bss           0x0000000000000000        0x0 lua_bind_hash.o
 .comment       0x0000000000000000       0x23 lua_bind_hash.o
 .data          0x0000000000000000        0x0 l2c_imports.o
 .bss           0x0000000000000000        0x0 l2c_imports.o
 .comment       0x0000000000000000       0x23 l2c_imports.o
 .data          0x0000000000000000        0x0 raygun_printer.o
 .bss           0x0000000000000000        0x0 raygun_printer.o
 .comment       0x0000000000000000       0x23 raygun_printer.o
 .text          0x0000000000000000        0x0 C:/Users/oukeh/OneDrive/桌面/code-mod-example/code-mod-framework/lib/libnx_min/nx/lib\libnx_min.a(switch_crt0.o)
 .data          0x0000000000000000        0x0 C:/Users/oukeh/OneDrive/桌面/code-mod-example/code-mod-framework/lib/libnx_min/nx/lib\libnx_min.a(switch_crt0.o)
 .bss           0x0000000000000000        0x0 C:/Users/oukeh/OneDrive/桌面/code-mod-example/code-mod-framework/lib/libnx_min/nx/lib\libnx_min.a(switch_crt0.o)
 .debug_line    0x0000000000000000       0xc3 C:/Users/oukeh/OneDrive/桌面/code-mod-example/code-mod-framework/lib/libnx_min/nx/lib\libnx_min.a(switch_crt0.o)
 .debug_info    0x0000000000000000       0x2e C:/Users/oukeh/OneDrive/桌面/code-mod-example/code-mod-framework/lib/libnx_min/nx/lib\libnx_min.a(switch_crt0.o)
 .debug_abbrev  0x0000000000000000       0x14 C:/Users/oukeh/OneDrive/桌面/code-mod-example/code-mod-framework/lib/libnx_min/nx/lib\libnx_min.a(switch_crt0.o)
 .debug_aranges
                0x0000000000000000       0x30 C:/Users/oukeh/OneDrive/桌面/code-mod-example/code-mod-framework/lib/libnx_min/nx/lib\libnx_min.a(switch_crt0.o)
 .debug_str     0x0000000000000000       0xc1 C:/Users/oukeh/OneDrive/桌面/code-mod-example/code-mod-framework/lib/libnx_min/nx/lib\libnx_min.a(switch_crt0.o)
 .text          0x0000000000000000        0x0 C:/Users/oukeh/OneDrive/桌面/code-mod-example/code-mod-framework/lib/libnx_min/nx/lib\libnx_min.a(exception.o)
 .data          0x0000000000000000        0x0 C:/Users/oukeh/OneDrive/桌面/code-mod-example/code-mod-framework/lib/libnx_min/nx/lib\libnx_min.a(exception.o)
 .bss           0x0000000000000000        0x0 C:/Users/oukeh/OneDrive/桌面/code-mod-example/code-mod-framework/lib/libnx_min/nx/lib\libnx_min.a(exception.o)
 .debug_line    0x0000000000000000      0x11e C:/Users/oukeh/OneDrive/桌面/code-mod-example/code-mod-framework/lib/libnx_min/nx/lib\libnx_min.a(exception.o)
 .debug_info    0x0000000000000000       0x22 C:/Users/oukeh/OneDrive/桌面/code-mod-example/code-mod-framework/lib/libnx_min/nx/lib\libnx_min.a(exception.o)
 .debug_abbrev  0x0000000000000000       0x12 C:/Users/oukeh/OneDrive/桌面/code-mod-example/code-mod-framework/lib/libnx_min/nx/lib\libnx_min.a(exception.o)
 .debug_aranges
                0x0000000000000000       0x40 C:/Users/oukeh/OneDrive/桌面/code-mod-example/code-mod-framework/lib/libnx_min/nx/lib\libnx_min.a(exception.o)
 .debug_str     0x0000000000000000       0xbf C:/Users/oukeh/OneDrive/桌面/code-mod-example/code-mod-framework/lib/libnx_min/nx/lib\libnx_min.a(exception.o)
 .debug_ranges  0x0000000000000000       0x40 C:/Users/oukeh/OneDrive/桌面/code-mod-example/code-mod-framework/lib/libnx_min/nx/lib\libnx_min.a(exception.o)
 .text          0x0000000000000000        0x0 C:/Users/oukeh/OneDrive/桌面/code-mod-example/code-mod-framework/lib/libnx_min/nx/lib\libnx_min.a(argv.o)
 .data          0x0000000000000000        0x0 C:/Users/oukeh/OneDrive/桌面/code-mod-example/code-mod-framework/lib/libnx_min/nx/lib\libnx_min.a(argv.o)
 .bss           0x0000000000000000        0x0 C:/Users/oukeh/OneDrive/桌面/code-mod-example/code-mod-framework/lib/libnx_min/nx/lib\libnx_min.a(argv.o)
 .debug_info    0x0000000000000000      0xe43 C:/Users/oukeh/OneDrive/桌面/code-mod-example/code-mod-framework/lib/libnx_min/nx/lib\libnx_min.a(argv.o)
 .debug_abbrev  0x0000000000000000      0x2de C:/Users/oukeh/OneDrive/桌面/code-mod-example/code-mod-framework/lib/libnx_min/nx/lib\libnx_min.a(argv.o)
 .debug_loc     0x0000000000000000      0x6a8 C:/Users/oukeh/OneDrive/桌面/code-mod-example/code-mod-framework/lib/libnx_min/nx/lib\libnx_min.a(argv.o)
 .debug_aranges
                0x0000000000000000       0x30 C:/Users/oukeh/OneDrive/桌面/code-mod-example/code-mod-framework/lib/libnx_min/nx/lib\libnx_min.a(argv.o)
 .debug_ranges  0x0000000000000000       0x20 C:/Users/oukeh/OneDrive/桌面/code-mod-example/code-mod-framework/lib/libnx_min/nx/lib\libnx_min.a(argv.o)
 .debug_line    0x0000000000000000      0x64d C:/Users/oukeh/OneDrive/桌面/code-mod-example/code-mod-framework/lib/libnx_min/nx/lib\libnx_min.a(argv.o)
 .debug_str     0x0000000000000000      0x874 C:/Users/oukeh/OneDrive/桌面/code-mod-example/code-mod-framework/lib/libnx_min/nx/lib\libnx_min.a(argv.o)
 .comment       0x0000000000000000       0x23 C:/Users/oukeh/OneDrive/桌面/code-mod-example/code-mod-framework/lib/libnx_min/nx/lib\libnx_min.a(argv.o)
 .text          0x0000000000000000        0x0 C:/Users/oukeh/OneDrive/桌面/code-mod-example/code-mod-framework/lib/libnx_min/nx/lib\libnx_min.a(env.o)
 .data          0x0000000000000000        0x0 C:/Users/oukeh/OneDrive/桌面/code-mod-example/code-mod-framework/lib/libnx_min/nx/lib\libnx_min.a(env.o)
 .bss           0x0000000000000000        0x0 C:/Users/oukeh/OneDrive/桌面/code-mod-example/code-mod-framework/lib/libnx_min/nx/lib\libnx_min.a(env.o)
 .debug_info    0x0000000000000000     0x111a C:/Users/oukeh/OneDrive/桌面/code-mod-example/code-mod-framework/lib/libnx_min/nx/lib\libnx_min.a(env.o)
 .debug_abbrev  0x0000000000000000      0x322 C:/Users/oukeh/OneDrive/桌面/code-mod-example/code-mod-framework/lib/libnx_min/nx/lib\libnx_min.a(env.o)
 .debug_loc     0x0000000000000000      0x362 C:/Users/oukeh/OneDrive/桌面/code-mod-example/code-mod-framework/lib/libnx_min/nx/lib\libnx_min.a(env.o)
 .debug_aranges
                0x0000000000000000      0x130 C:/Users/oukeh/OneDrive/桌面/code-mod-example/code-mod-framework/lib/libnx_min/nx/lib\libnx_min.a(env.o)
 .debug_ranges  0x0000000000000000      0x120 C:/Users/oukeh/OneDrive/桌面/code-mod-example/code-mod-framework/lib/libnx_min/nx/lib\libnx_min.a(env.o)
 .debug_line    0x0000000000000000      0x6fe C:/Users/oukeh/OneDrive/桌面/code-mod-example/code-mod-framework/lib/libnx_min/nx/lib\libnx_min.a(env.o)
 .debug_str     0x0000000000000000     0x107e C:/Users/oukeh/OneDrive/桌面/code-mod-example/code-mod-framework/lib/libnx_min/nx/lib\libnx_min.a(env.o)
 .comment       0x0000000000000000       0x23 C:/Users/oukeh/OneDrive/桌面/code-mod-example/code-mod-framework/lib/libnx_min/nx/lib\libnx_min.a(env.o)
 .text          0x0000000000000000        0x0 C:/Users/oukeh/OneDrive/桌面/code-mod-example/code-mod-framework/lib/libnx_min/nx/lib\libnx_min.a(init.o)
 .data          0x0000000000000000        0x0 C:/Users/oukeh/OneDrive/桌面/code-mod-example/code-mod-framework/lib/libnx_min/nx/lib\libnx_min.a(init.o)
 .bss           0x0000000000000000        0x0 C:/Users/oukeh/OneDrive/桌面/code-mod-example/code-mod-framework/lib/libnx_min/nx/lib\libnx_min.a(init.o)
 .text.__libnx_init
                0x0000000000000000       0x28 C:/Users/oukeh/OneDrive/桌面/code-mod-example/code-mod-framework/lib/libnx_min/nx/lib\libnx_min.a(init.o)
 .text.__libnx_exit
                0x0000000000000000       0x20 C:/Users/oukeh/OneDrive/桌面/code-mod-example/code-mod-framework/lib/libnx_min/nx/lib\libnx_min.a(init.o)
 .debug_info    0x0000000000000000      0xce2 C:/Users/oukeh/OneDrive/桌面/code-mod-example/code-mod-framework/lib/libnx_min/nx/lib\libnx_min.a(init.o)
 .debug_abbrev  0x0000000000000000      0x2a1 C:/Users/oukeh/OneDrive/桌面/code-mod-example/code-mod-framework/lib/libnx_min/nx/lib\libnx_min.a(init.o)
 .debug_loc     0x0000000000000000      0x34a C:/Users/oukeh/OneDrive/桌面/code-mod-example/code-mod-framework/lib/libnx_min/nx/lib\libnx_min.a(init.o)
 .debug_aranges
                0x0000000000000000       0x70 C:/Users/oukeh/OneDrive/桌面/code-mod-example/code-mod-framework/lib/libnx_min/nx/lib\libnx_min.a(init.o)
 .debug_ranges  0x0000000000000000       0xa0 C:/Users/oukeh/OneDrive/桌面/code-mod-example/code-mod-framework/lib/libnx_min/nx/lib\libnx_min.a(init.o)
 .debug_line    0x0000000000000000      0x685 C:/Users/oukeh/OneDrive/桌面/code-mod-example/code-mod-framework/lib/libnx_min/nx/lib\libnx_min.a(init.o)
 .debug_str     0x0000000000000000      0xf19 C:/Users/oukeh/OneDrive/桌面/code-mod-example/code-mod-framework/lib/libnx_min/nx/lib\libnx_min.a(init.o)
 .comment       0x0000000000000000       0x23 C:/Users/oukeh/OneDrive/桌面/code-mod-example/code-mod-framework/lib/libnx_min/nx/lib\libnx_min.a(init.o)
 .text          0x0000000000000000        0x0 C:/Users/oukeh/OneDrive/桌面/code-mod-example/code-mod-framework/lib/libnx_min/nx/lib\libnx_min.a(hosversion.o)
 .data          0x0000000000000000        0x0 C:/Users/oukeh/OneDrive/桌面/code-mod-example/code-mod-framework/lib/libnx_min/nx/lib\libnx_min.a(hosversion.o)
 .bss           0x0000000000000000        0x0 C:/Users/oukeh/OneDrive/桌面/code-mod-example/code-mod-framework/lib/libnx_min/nx/lib\libnx_min.a(hosversion.o)
 .debug_info    0x0000000000000000      0x103 C:/Users/oukeh/OneDrive/桌面/code-mod-example/code-mod-framework/lib/libnx_min/nx/lib\libnx_min.a(hosversion.o)
 .debug_abbrev  0x0000000000000000       0xa2 C:/Users/oukeh/OneDrive/桌面/code-mod-example/code-mod-framework/lib/libnx_min/nx/lib\libnx_min.a(hosversion.o)
 .debug_aranges
                0x0000000000000000       0x40 C:/Users/oukeh/OneDrive/桌面/code-mod-example/code-mod-framework/lib/libnx_min/nx/lib\libnx_min.a(hosversion.o)
 .debug_ranges  0x0000000000000000       0x30 C:/Users/oukeh/OneDrive/桌面/code-mod-example/code-mod-framework/lib/libnx_min/nx/lib\libnx_min.a(hosversion.o)
 .debug_line    0x0000000000000000      0x1b0 C:/Users/oukeh/OneDrive/桌面/code-mod-example/code-mod-framework/lib/libnx_min/nx/lib\libnx_min.a(hosversion.o)
 .debug_str     0x0000000000000000      0x234 C:/Users/oukeh/OneDrive/桌面/code-mod-example/code-mod-framework/lib/libnx_min/nx/lib\libnx_min.a(hosversion.o)
 .comment       0x0000000000000000       0x23 C:/Users/oukeh/OneDrive/桌面/code-mod-example/code-mod-framework/lib/libnx_min/nx/lib\libnx_min.a(hosversion.o)
 .text          0x0000000000000000        0x0 C:/Users/oukeh/OneDrive/桌面/code-mod-example/code-mod-framework/lib/libnx_min/nx/lib\libnx_min.a(dynamic.o)
 .data          0x0000000000000000        0x0 C:/Users/oukeh/OneDrive/桌面/code-mod-example/code-mod-framework/lib/libnx_min/nx/lib\libnx_min.a(dynamic.o)
 .bss           0x0000000000000000        0x0 C:/Users/oukeh/OneDrive/桌面/code-mod-example/code-mod-framework/lib/libnx_min/nx/lib\libnx_min.a(dynamic.o)
 .debug_info    0x0000000000000000      0x3c9 C:/Users/oukeh/OneDrive/桌面/code-mod-example/code-mod-framework/lib/libnx_min/nx/lib\libnx_min.a(dynamic.o)
 .debug_abbrev  0x0000000000000000      0x16b C:/Users/oukeh/OneDrive/桌面/code-mod-example/code-mod-framework/lib/libnx_min/nx/lib\libnx_min.a(dynamic.o)
 .debug_loc     0x0000000000000000      0x1b8 C:/Users/oukeh/OneDrive/桌面/code-mod-example/code-mod-framework/lib/libnx_min/nx/lib\libnx_min.a(dynamic.o)
 .debug_aranges
                0x0000000000000000       0x30 C:/Users/oukeh/OneDrive/桌面/code-mod-example/code-mod-framework/lib/libnx_min/nx/lib\libnx_min.a(dynamic.o)
 .debug_ranges  0x0000000000000000       0x20 C:/Users/oukeh/OneDrive/桌面/code-mod-example/code-mod-framework/lib/libnx_min/nx/lib\libnx_min.a(dynamic.o)
 .debug_line    0x0000000000000000      0x2df C:/Users/oukeh/OneDrive/桌面/code-mod-example/code-mod-framework/lib/libnx_min/nx/lib\libnx_min.a(dynamic.o)
 .debug_str     0x0000000000000000      0x837 C:/Users/oukeh/OneDrive/桌面/code-mod-example/code-mod-framework/lib/libnx_min/nx/lib\libnx_min.a(dynamic.o)
 .comment       0x0000000000000000       0x23 C:/Users/oukeh/OneDrive/桌面/code-mod-example/code-mod-framework/lib/libnx_min/nx/lib\libnx_min.a(dynamic.o)
 .text          0x0000000000000000        0x0 C:/Users/oukeh/OneDrive/桌面/code-mod-example/code-mod-framework/lib/libnx_min/nx/lib\libnx_min.a(fs_dev.o)
 .data          0x0000000000000000        0x0 C:/Users/oukeh/OneDrive/桌面/code-mod-example/code-mod-framework/lib/libnx_min/nx/lib\libnx_min.a(fs_dev.o)
 .bss           0x0000000000000000        0x0 C:/Users/oukeh/OneDrive/桌面/code-mod-example/code-mod-framework/lib/libnx_min/nx/lib\libnx_min.a(fs_dev.o)
 .debug_info    0x0000000000000000     0x411e C:/Users/oukeh/OneDrive/桌面/code-mod-example/code-mod-framework/lib/libnx_min/nx/lib\libnx_min.a(fs_dev.o)
 .debug_abbrev  0x0000000000000000      0x5b7 C:/Users/oukeh/OneDrive/桌面/code-mod-example/code-mod-framework/lib/libnx_min/nx/lib\libnx_min.a(fs_dev.o)
 .debug_loc     0x0000000000000000     0x4332 C:/Users/oukeh/OneDrive/桌面/code-mod-example/code-mod-framework/lib/libnx_min/nx/lib\libnx_min.a(fs_dev.o)
 .debug_aranges
                0x0000000000000000      0x2a0 C:/Users/oukeh/OneDrive/桌面/code-mod-example/code-mod-framework/lib/libnx_min/nx/lib\libnx_min.a(fs_dev.o)
 .debug_ranges  0x0000000000000000      0x670 C:/Users/oukeh/OneDrive/桌面/code-mod-example/code-mod-framework/lib/libnx_min/nx/lib\libnx_min.a(fs_dev.o)
 .debug_line    0x0000000000000000     0x1a73 C:/Users/oukeh/OneDrive/桌面/code-mod-example/code-mod-framework/lib/libnx_min/nx/lib\libnx_min.a(fs_dev.o)
 .debug_str     0x0000000000000000     0x1939 C:/Users/oukeh/OneDrive/桌面/code-mod-example/code-mod-framework/lib/libnx_min/nx/lib\libnx_min.a(fs_dev.o)
 .comment       0x0000000000000000       0x23 C:/Users/oukeh/OneDrive/桌面/code-mod-example/code-mod-framework/lib/libnx_min/nx/lib\libnx_min.a(fs_dev.o)
 .text          0x0000000000000000        0x0 C:/Users/oukeh/OneDrive/桌面/code-mod-example/code-mod-framework/lib/libnx_min/nx/lib\libnx_min.a(decode_utf8.o)
 .data          0x0000000000000000        0x0 C:/Users/oukeh/OneDrive/桌面/code-mod-example/code-mod-framework/lib/libnx_min/nx/lib\libnx_min.a(decode_utf8.o)
 .bss           0x0000000000000000        0x0 C:/Users/oukeh/OneDrive/桌面/code-mod-example/code-mod-framework/lib/libnx_min/nx/lib\libnx_min.a(decode_utf8.o)
 .debug_info    0x0000000000000000      0x170 C:/Users/oukeh/OneDrive/桌面/code-mod-example/code-mod-framework/lib/libnx_min/nx/lib\libnx_min.a(decode_utf8.o)
 .debug_abbrev  0x0000000000000000       0x9e C:/Users/oukeh/OneDrive/桌面/code-mod-example/code-mod-framework/lib/libnx_min/nx/lib\libnx_min.a(decode_utf8.o)
 .debug_loc     0x0000000000000000      0x334 C:/Users/oukeh/OneDrive/桌面/code-mod-example/code-mod-framework/lib/libnx_min/nx/lib\libnx_min.a(decode_utf8.o)
 .debug_aranges
                0x0000000000000000       0x30 C:/Users/oukeh/OneDrive/桌面/code-mod-example/code-mod-framework/lib/libnx_min/nx/lib\libnx_min.a(decode_utf8.o)
 .debug_ranges  0x0000000000000000       0x20 C:/Users/oukeh/OneDrive/桌面/code-mod-example/code-mod-framework/lib/libnx_min/nx/lib\libnx_min.a(decode_utf8.o)
 .debug_line    0x0000000000000000      0x28a C:/Users/oukeh/OneDrive/桌面/code-mod-example/code-mod-framework/lib/libnx_min/nx/lib\libnx_min.a(decode_utf8.o)
 .debug_str     0x0000000000000000      0x259 C:/Users/oukeh/OneDrive/桌面/code-mod-example/code-mod-framework/lib/libnx_min/nx/lib\libnx_min.a(decode_utf8.o)
 .comment       0x0000000000000000       0x23 C:/Users/oukeh/OneDrive/桌面/code-mod-example/code-mod-framework/lib/libnx_min/nx/lib\libnx_min.a(decode_utf8.o)
 .text          0x0000000000000000        0x0 C:/Users/oukeh/OneDrive/桌面/code-mod-example/code-mod-framework/lib/libnx_min/nx/lib\libnx_min.a(svc.o)
 .data          0x0000000000000000        0x0 C:/Users/oukeh/OneDrive/桌面/code-mod-example/code-mod-framework/lib/libnx_min/nx/lib\libnx_min.a(svc.o)
 .bss           0x0000000000000000        0x0 C:/Users/oukeh/OneDrive/桌面/code-mod-example/code-mod-framework/lib/libnx_min/nx/lib\libnx_min.a(svc.o)
 .debug_line    0x0000000000000000      0x92d C:/Users/oukeh/OneDrive/桌面/code-mod-example/code-mod-framework/lib/libnx_min/nx/lib\libnx_min.a(svc.o)
 .debug_info    0x0000000000000000       0x22 C:/Users/oukeh/OneDrive/桌面/code-mod-example/code-mod-framework/lib/libnx_min/nx/lib\libnx_min.a(svc.o)
 .debug_abbrev  0x0000000000000000       0x12 C:/Users/oukeh/OneDrive/桌面/code-mod-example/code-mod-framework/lib/libnx_min/nx/lib\libnx_min.a(svc.o)
 .debug_aranges
                0x0000000000000000      0x660 C:/Users/oukeh/OneDrive/桌面/code-mod-example/code-mod-framework/lib/libnx_min/nx/lib\libnx_min.a(svc.o)
 .debug_str     0x0000000000000000       0xb8 C:/Users/oukeh/OneDrive/桌面/code-mod-example/code-mod-framework/lib/libnx_min/nx/lib\libnx_min.a(svc.o)
 .debug_ranges  0x0000000000000000      0x660 C:/Users/oukeh/OneDrive/桌面/code-mod-example/code-mod-framework/lib/libnx_min/nx/lib\libnx_min.a(svc.o)
 .text          0x0000000000000000        0x0 C:/Users/oukeh/OneDrive/桌面/code-mod-example/code-mod-framework/lib/libnx_min/nx/lib\libnx_min.a(readtp.o)
 .data          0x0000000000000000        0x0 C:/Users/oukeh/OneDrive/桌面/code-mod-example/code-mod-framework/lib/libnx_min/nx/lib\libnx_min.a(readtp.o)
 .bss           0x0000000000000000        0x0 C:/Users/oukeh/OneDrive/桌面/code-mod-example/code-mod-framework/lib/libnx_min/nx/lib\libnx_min.a(readtp.o)
 .debug_line    0x0000000000000000       0x93 C:/Users/oukeh/OneDrive/桌面/code-mod-example/code-mod-framework/lib/libnx_min/nx/lib\libnx_min.a(readtp.o)
 .debug_info    0x0000000000000000       0x2e C:/Users/oukeh/OneDrive/桌面/code-mod-example/code-mod-framework/lib/libnx_min/nx/lib\libnx_min.a(readtp.o)
 .debug_abbrev  0x0000000000000000       0x14 C:/Users/oukeh/OneDrive/桌面/code-mod-example/code-mod-framework/lib/libnx_min/nx/lib\libnx_min.a(readtp.o)
 .debug_aranges
                0x0000000000000000       0x30 C:/Users/oukeh/OneDrive/桌面/code-mod-example/code-mod-framework/lib/libnx_min/nx/lib\libnx_min.a(readtp.o)
 .debug_str     0x0000000000000000       0xbc C:/Users/oukeh/OneDrive/桌面/code-mod-example/code-mod-framework/lib/libnx_min/nx/lib\libnx_min.a(readtp.o)
 .text          0x0000000000000000        0x0 C:/Users/oukeh/OneDrive/桌面/code-mod-example/code-mod-framework/lib/libnx_min/nx/lib\libnx_min.a(virtmem.o)
 .data          0x0000000000000000        0x0 C:/Users/oukeh/OneDrive/桌面/code-mod-example/code-mod-framework/lib/libnx_min/nx/lib\libnx_min.a(virtmem.o)
 .bss           0x0000000000000000        0x0 C:/Users/oukeh/OneDrive/桌面/code-mod-example/code-mod-framework/lib/libnx_min/nx/lib\libnx_min.a(virtmem.o)
 .debug_info    0x0000000000000000      0xb52 C:/Users/oukeh/OneDrive/桌面/code-mod-example/code-mod-framework/lib/libnx_min/nx/lib\libnx_min.a(virtmem.o)
 .debug_abbrev  0x0000000000000000      0x2cf C:/Users/oukeh/OneDrive/桌面/code-mod-example/code-mod-framework/lib/libnx_min/nx/lib\libnx_min.a(virtmem.o)
 .debug_loc     0x0000000000000000      0x668 C:/Users/oukeh/OneDrive/桌面/code-mod-example/code-mod-framework/lib/libnx_min/nx/lib\libnx_min.a(virtmem.o)
 .debug_aranges
                0x0000000000000000       0x70 C:/Users/oukeh/OneDrive/桌面/code-mod-example/code-mod-framework/lib/libnx_min/nx/lib\libnx_min.a(virtmem.o)
 .debug_ranges  0x0000000000000000      0x170 C:/Users/oukeh/OneDrive/桌面/code-mod-example/code-mod-framework/lib/libnx_min/nx/lib\libnx_min.a(virtmem.o)
 .debug_line    0x0000000000000000      0x60f C:/Users/oukeh/OneDrive/桌面/code-mod-example/code-mod-framework/lib/libnx_min/nx/lib\libnx_min.a(virtmem.o)
 .debug_str     0x0000000000000000      0xbfa C:/Users/oukeh/OneDrive/桌面/code-mod-example/code-mod-framework/lib/libnx_min/nx/lib\libnx_min.a(virtmem.o)
 .comment       0x0000000000000000       0x23 C:/Users/oukeh/OneDrive/桌面/code-mod-example/code-mod-framework/lib/libnx_min/nx/lib\libnx_min.a(virtmem.o)
 .text          0x0000000000000000        0x0 C:/Users/oukeh/OneDrive/桌面/code-mod-example/code-mod-framework/lib/libnx_min/nx/lib\libnx_min.a(mutex.o)
 .data          0x0000000000000000        0x0 C:/Users/oukeh/OneDrive/桌面/code-mod-example/code-mod-framework/lib/libnx_min/nx/lib\libnx_min.a(mutex.o)
 .bss           0x0000000000000000        0x0 C:/Users/oukeh/OneDrive/桌面/code-mod-example/code-mod-framework/lib/libnx_min/nx/lib\libnx_min.a(mutex.o)
 .debug_info    0x0000000000000000      0x782 C:/Users/oukeh/OneDrive/桌面/code-mod-example/code-mod-framework/lib/libnx_min/nx/lib\libnx_min.a(mutex.o)
 .debug_abbrev  0x0000000000000000      0x1fe C:/Users/oukeh/OneDrive/桌面/code-mod-example/code-mod-framework/lib/libnx_min/nx/lib\libnx_min.a(mutex.o)
 .debug_loc     0x0000000000000000      0x3d1 C:/Users/oukeh/OneDrive/桌面/code-mod-example/code-mod-framework/lib/libnx_min/nx/lib\libnx_min.a(mutex.o)
 .debug_aranges
                0x0000000000000000       0x80 C:/Users/oukeh/OneDrive/桌面/code-mod-example/code-mod-framework/lib/libnx_min/nx/lib\libnx_min.a(mutex.o)
 .debug_ranges  0x0000000000000000      0x470 C:/Users/oukeh/OneDrive/桌面/code-mod-example/code-mod-framework/lib/libnx_min/nx/lib\libnx_min.a(mutex.o)
 .debug_line    0x0000000000000000      0x5e6 C:/Users/oukeh/OneDrive/桌面/code-mod-example/code-mod-framework/lib/libnx_min/nx/lib\libnx_min.a(mutex.o)
 .debug_str     0x0000000000000000      0x3a4 C:/Users/oukeh/OneDrive/桌面/code-mod-example/code-mod-framework/lib/libnx_min/nx/lib\libnx_min.a(mutex.o)
 .comment       0x0000000000000000       0x23 C:/Users/oukeh/OneDrive/桌面/code-mod-example/code-mod-framework/lib/libnx_min/nx/lib\libnx_min.a(mutex.o)
 .text          0x0000000000000000        0x0 C:/Users/oukeh/OneDrive/桌面/code-mod-example/code-mod-framework/lib/libnx_min/nx/lib\libnx_min.a(fs.o)
 .data          0x0000000000000000        0x0 C:/Users/oukeh/OneDrive/桌面/code-mod-example/code-mod-framework/lib/libnx_min/nx/lib\libnx_min.a(fs.o)
 .bss           0x0000000000000000        0x0 C:/Users/oukeh/OneDrive/桌面/code-mod-example/code-mod-framework/lib/libnx_min/nx/lib\libnx_min.a(fs.o)
 .debug_info    0x0000000000000000    0x148db C:/Users/oukeh/OneDrive/桌面/code-mod-example/code-mod-framework/lib/libnx_min/nx/lib\libnx_min.a(fs.o)
 .debug_abbrev  0x0000000000000000      0x6cd C:/Users/oukeh/OneDrive/桌面/code-mod-example/code-mod-framework/lib/libnx_min/nx/lib\libnx_min.a(fs.o)
 .debug_loc     0x0000000000000000    0x23e9b C:/Users/oukeh/OneDrive/桌面/code-mod-example/code-mod-framework/lib/libnx_min/nx/lib\libnx_min.a(fs.o)
 .debug_aranges
                0x0000000000000000      0x4a0 C:/Users/oukeh/OneDrive/桌面/code-mod-example/code-mod-framework/lib/libnx_min/nx/lib\libnx_min.a(fs.o)
 .debug_ranges  0x0000000000000000     0xb5b0 C:/Users/oukeh/OneDrive/桌面/code-mod-example/code-mod-framework/lib/libnx_min/nx/lib\libnx_min.a(fs.o)
 .debug_line    0x0000000000000000     0xb1b2 C:/Users/oukeh/OneDrive/桌面/code-mod-example/code-mod-framework/lib/libnx_min/nx/lib\libnx_min.a(fs.o)
 .debug_str     0x0000000000000000     0x23e6 C:/Users/oukeh/OneDrive/桌面/code-mod-example/code-mod-framework/lib/libnx_min/nx/lib\libnx_min.a(fs.o)
 .comment       0x0000000000000000       0x23 C:/Users/oukeh/OneDrive/桌面/code-mod-example/code-mod-framework/lib/libnx_min/nx/lib\libnx_min.a(fs.o)
 .text          0x0000000000000000        0x0 C:/Users/oukeh/OneDrive/桌面/code-mod-example/code-mod-framework/lib/libnx_min/nx/lib\libnx_min.a(set.o)
 .data          0x0000000000000000        0x0 C:/Users/oukeh/OneDrive/桌面/code-mod-example/code-mod-framework/lib/libnx_min/nx/lib\libnx_min.a(set.o)
 .bss           0x0000000000000000        0x0 C:/Users/oukeh/OneDrive/桌面/code-mod-example/code-mod-framework/lib/libnx_min/nx/lib\libnx_min.a(set.o)
 .debug_info    0x0000000000000000     0x692b C:/Users/oukeh/OneDrive/桌面/code-mod-example/code-mod-framework/lib/libnx_min/nx/lib\libnx_min.a(set.o)
 .debug_abbrev  0x0000000000000000      0x5eb C:/Users/oukeh/OneDrive/桌面/code-mod-example/code-mod-framework/lib/libnx_min/nx/lib\libnx_min.a(set.o)
 .debug_loc     0x0000000000000000     0xc88f C:/Users/oukeh/OneDrive/桌面/code-mod-example/code-mod-framework/lib/libnx_min/nx/lib\libnx_min.a(set.o)
 .debug_aranges
                0x0000000000000000      0x1d0 C:/Users/oukeh/OneDrive/桌面/code-mod-example/code-mod-framework/lib/libnx_min/nx/lib\libnx_min.a(set.o)
 .debug_ranges  0x0000000000000000     0x25f0 C:/Users/oukeh/OneDrive/桌面/code-mod-example/code-mod-framework/lib/libnx_min/nx/lib\libnx_min.a(set.o)
 .debug_line    0x0000000000000000     0x3101 C:/Users/oukeh/OneDrive/桌面/code-mod-example/code-mod-framework/lib/libnx_min/nx/lib\libnx_min.a(set.o)
 .debug_str     0x0000000000000000     0x1b23 C:/Users/oukeh/OneDrive/桌面/code-mod-example/code-mod-framework/lib/libnx_min/nx/lib\libnx_min.a(set.o)
 .comment       0x0000000000000000       0x23 C:/Users/oukeh/OneDrive/桌面/code-mod-example/code-mod-framework/lib/libnx_min/nx/lib\libnx_min.a(set.o)
 .text          0x0000000000000000        0x0 C:/Users/oukeh/OneDrive/桌面/code-mod-example/code-mod-framework/lib/libnx_min/nx/lib\libnx_min.a(fatal.o)
 .data          0x0000000000000000        0x0 C:/Users/oukeh/OneDrive/桌面/code-mod-example/code-mod-framework/lib/libnx_min/nx/lib\libnx_min.a(fatal.o)
 .bss           0x0000000000000000        0x0 C:/Users/oukeh/OneDrive/桌面/code-mod-example/code-mod-framework/lib/libnx_min/nx/lib\libnx_min.a(fatal.o)
 .debug_info    0x0000000000000000      0xd6e C:/Users/oukeh/OneDrive/桌面/code-mod-example/code-mod-framework/lib/libnx_min/nx/lib\libnx_min.a(fatal.o)
 .debug_abbrev  0x0000000000000000      0x393 C:/Users/oukeh/OneDrive/桌面/code-mod-example/code-mod-framework/lib/libnx_min/nx/lib\libnx_min.a(fatal.o)
 .debug_loc     0x0000000000000000      0x895 C:/Users/oukeh/OneDrive/桌面/code-mod-example/code-mod-framework/lib/libnx_min/nx/lib\libnx_min.a(fatal.o)
 .debug_aranges
                0x0000000000000000       0x60 C:/Users/oukeh/OneDrive/桌面/code-mod-example/code-mod-framework/lib/libnx_min/nx/lib\libnx_min.a(fatal.o)
 .debug_ranges  0x0000000000000000      0x240 C:/Users/oukeh/OneDrive/桌面/code-mod-example/code-mod-framework/lib/libnx_min/nx/lib\libnx_min.a(fatal.o)
 .debug_line    0x0000000000000000      0x5c9 C:/Users/oukeh/OneDrive/桌面/code-mod-example/code-mod-framework/lib/libnx_min/nx/lib\libnx_min.a(fatal.o)
 .debug_str     0x0000000000000000      0x763 C:/Users/oukeh/OneDrive/桌面/code-mod-example/code-mod-framework/lib/libnx_min/nx/lib\libnx_min.a(fatal.o)
 .comment       0x0000000000000000       0x23 C:/Users/oukeh/OneDrive/桌面/code-mod-example/code-mod-framework/lib/libnx_min/nx/lib\libnx_min.a(fatal.o)
 .text          0x0000000000000000        0x0 C:/Users/oukeh/OneDrive/桌面/code-mod-example/code-mod-framework/lib/libnx_min/nx/lib\libnx_min.a(sm.o)
 .data          0x0000000000000000        0x0 C:/Users/oukeh/OneDrive/桌面/code-mod-example/code-mod-framework/lib/libnx_min/nx/lib\libnx_min.a(sm.o)
 .bss           0x0000000000000000        0x0 C:/Users/oukeh/OneDrive/桌面/code-mod-example/code-mod-framework/lib/libnx_min/nx/lib\libnx_min.a(sm.o)
 .debug_info    0x0000000000000000     0x34eb C:/Users/oukeh/OneDrive/桌面/code-mod-example/code-mod-framework/lib/libnx_min/nx/lib\libnx_min.a(sm.o)
 .debug_abbrev  0x0000000000000000      0x4c4 C:/Users/oukeh/OneDrive/桌面/code-mod-example/code-mod-framework/lib/libnx_min/nx/lib\libnx_min.a(sm.o)
 .debug_loc     0x0000000000000000     0x5a55 C:/Users/oukeh/OneDrive/桌面/code-mod-example/code-mod-framework/lib/libnx_min/nx/lib\libnx_min.a(sm.o)
 .debug_aranges
                0x0000000000000000       0xe0 C:/Users/oukeh/OneDrive/桌面/code-mod-example/code-mod-framework/lib/libnx_min/nx/lib\libnx_min.a(sm.o)
 .debug_ranges  0x0000000000000000     0x1160 C:/Users/oukeh/OneDrive/桌面/code-mod-example/code-mod-framework/lib/libnx_min/nx/lib\libnx_min.a(sm.o)
 .debug_line    0x0000000000000000     0x175a C:/Users/oukeh/OneDrive/桌面/code-mod-example/code-mod-framework/lib/libnx_min/nx/lib\libnx_min.a(sm.o)
 .debug_str     0x0000000000000000     0x150b C:/Users/oukeh/OneDrive/桌面/code-mod-example/code-mod-framework/lib/libnx_min/nx/lib\libnx_min.a(sm.o)
 .comment       0x0000000000000000       0x23 C:/Users/oukeh/OneDrive/桌面/code-mod-example/code-mod-framework/lib/libnx_min/nx/lib\libnx_min.a(sm.o)
 .text          0x0000000000000000        0x0 C:/Users/oukeh/OneDrive/桌面/code-mod-example/code-mod-framework/lib/libnx_min/nx/lib\libnx_min.a(hid.o)
 .data          0x0000000000000000        0x0 C:/Users/oukeh/OneDrive/桌面/code-mod-example/code-mod-framework/lib/libnx_min/nx/lib\libnx_min.a(hid.o)
 .bss           0x0000000000000000        0x0 C:/Users/oukeh/OneDrive/桌面/code-mod-example/code-mod-framework/lib/libnx_min/nx/lib\libnx_min.a(hid.o)
 .debug_info    0x0000000000000000     0xb19f C:/Users/oukeh/OneDrive/桌面/code-mod-example/code-mod-framework/lib/libnx_min/nx/lib\libnx_min.a(hid.o)
 .debug_abbrev  0x0000000000000000      0x743 C:/Users/oukeh/OneDrive/桌面/code-mod-example/code-mod-framework/lib/libnx_min/nx/lib\libnx_min.a(hid.o)
 .debug_loc     0x0000000000000000    0x1192e C:/Users/oukeh/OneDrive/桌面/code-mod-example/code-mod-framework/lib/libnx_min/nx/lib\libnx_min.a(hid.o)
 .debug_aranges
                0x0000000000000000      0x450 C:/Users/oukeh/OneDrive/桌面/code-mod-example/code-mod-framework/lib/libnx_min/nx/lib\libnx_min.a(hid.o)
 .debug_ranges  0x0000000000000000     0x3140 C:/Users/oukeh/OneDrive/桌面/code-mod-example/code-mod-framework/lib/libnx_min/nx/lib\libnx_min.a(hid.o)
 .debug_line    0x0000000000000000     0x5037 C:/Users/oukeh/OneDrive/桌面/code-mod-example/code-mod-framework/lib/libnx_min/nx/lib\libnx_min.a(hid.o)
 .debug_str     0x0000000000000000     0x338c C:/Users/oukeh/OneDrive/桌面/code-mod-example/code-mod-framework/lib/libnx_min/nx/lib\libnx_min.a(hid.o)
 .comment       0x0000000000000000       0x23 C:/Users/oukeh/OneDrive/桌面/code-mod-example/code-mod-framework/lib/libnx_min/nx/lib\libnx_min.a(hid.o)
 .text          0x0000000000000000        0x0 C:/Users/oukeh/OneDrive/桌面/code-mod-example/code-mod-framework/lib/libnx_min/nx/lib\libnx_min.a(time.o)
 .data          0x0000000000000000        0x0 C:/Users/oukeh/OneDrive/桌面/code-mod-example/code-mod-framework/lib/libnx_min/nx/lib\libnx_min.a(time.o)
 .bss           0x0000000000000000        0x0 C:/Users/oukeh/OneDrive/桌面/code-mod-example/code-mod-framework/lib/libnx_min/nx/lib\libnx_min.a(time.o)
 .debug_info    0x0000000000000000     0x2f93 C:/Users/oukeh/OneDrive/桌面/code-mod-example/code-mod-framework/lib/libnx_min/nx/lib\libnx_min.a(time.o)
 .debug_abbrev  0x0000000000000000      0x544 C:/Users/oukeh/OneDrive/桌面/code-mod-example/code-mod-framework/lib/libnx_min/nx/lib\libnx_min.a(time.o)
 .debug_loc     0x0000000000000000     0x36b5 C:/Users/oukeh/OneDrive/桌面/code-mod-example/code-mod-framework/lib/libnx_min/nx/lib\libnx_min.a(time.o)
 .debug_aranges
                0x0000000000000000       0xa0 C:/Users/oukeh/OneDrive/桌面/code-mod-example/code-mod-framework/lib/libnx_min/nx/lib\libnx_min.a(time.o)
 .debug_ranges  0x0000000000000000      0xa70 C:/Users/oukeh/OneDrive/桌面/code-mod-example/code-mod-framework/lib/libnx_min/nx/lib\libnx_min.a(time.o)
 .debug_line    0x0000000000000000     0x10ba C:/Users/oukeh/OneDrive/桌面/code-mod-example/code-mod-framework/lib/libnx_min/nx/lib\libnx_min.a(time.o)
 .debug_str     0x0000000000000000     0x151b C:/Users/oukeh/OneDrive/桌面/code-mod-example/code-mod-framework/lib/libnx_min/nx/lib\libnx_min.a(time.o)
 .comment       0x0000000000000000       0x23 C:/Users/oukeh/OneDrive/桌面/code-mod-example/code-mod-framework/lib/libnx_min/nx/lib\libnx_min.a(time.o)
 .text          0x0000000000000000        0x0 C:/Users/oukeh/OneDrive/桌面/code-mod-example/code-mod-framework/lib/libnx_min/nx/lib\libnx_min.a(applet.o)
 .data          0x0000000000000000        0x0 C:/Users/oukeh/OneDrive/桌面/code-mod-example/code-mod-framework/lib/libnx_min/nx/lib\libnx_min.a(applet.o)
 .bss           0x0000000000000000        0x0 C:/Users/oukeh/OneDrive/桌面/code-mod-example/code-mod-framework/lib/libnx_min/nx/lib\libnx_min.a(applet.o)
 .data.__nx_applet_type
                0x0000000000000000        0x4 C:/Users/oukeh/OneDrive/桌面/code-mod-example/code-mod-framework/lib/libnx_min/nx/lib\libnx_min.a(applet.o)
 .debug_info    0x0000000000000000    0x1572b C:/Users/oukeh/OneDrive/桌面/code-mod-example/code-mod-framework/lib/libnx_min/nx/lib\libnx_min.a(applet.o)
 .debug_abbrev  0x0000000000000000      0x76e C:/Users/oukeh/OneDrive/桌面/code-mod-example/code-mod-framework/lib/libnx_min/nx/lib\libnx_min.a(applet.o)
 .debug_loc     0x0000000000000000    0x20f04 C:/Users/oukeh/OneDrive/桌面/code-mod-example/code-mod-framework/lib/libnx_min/nx/lib\libnx_min.a(applet.o)
 .debug_aranges
                0x0000000000000000      0x730 C:/Users/oukeh/OneDrive/桌面/code-mod-example/code-mod-framework/lib/libnx_min/nx/lib\libnx_min.a(applet.o)
 .debug_ranges  0x0000000000000000     0x8b40 C:/Users/oukeh/OneDrive/桌面/code-mod-example/code-mod-framework/lib/libnx_min/nx/lib\libnx_min.a(applet.o)
 .debug_line    0x0000000000000000     0xadb0 C:/Users/oukeh/OneDrive/桌面/code-mod-example/code-mod-framework/lib/libnx_min/nx/lib\libnx_min.a(applet.o)
 .debug_str     0x0000000000000000     0x30c0 C:/Users/oukeh/OneDrive/桌面/code-mod-example/code-mod-framework/lib/libnx_min/nx/lib\libnx_min.a(applet.o)
 .comment       0x0000000000000000       0x23 C:/Users/oukeh/OneDrive/桌面/code-mod-example/code-mod-framework/lib/libnx_min/nx/lib\libnx_min.a(applet.o)
 .text          0x0000000000000000        0x0 C:/Users/oukeh/OneDrive/桌面/code-mod-example/code-mod-framework/lib/libnx_min/nx/lib\libnx_min.a(newlib.o)
 .data          0x0000000000000000        0x0 C:/Users/oukeh/OneDrive/桌面/code-mod-example/code-mod-framework/lib/libnx_min/nx/lib\libnx_min.a(newlib.o)
 .bss           0x0000000000000000        0x0 C:/Users/oukeh/OneDrive/桌面/code-mod-example/code-mod-framework/lib/libnx_min/nx/lib\libnx_min.a(newlib.o)
 .debug_info    0x0000000000000000     0x2bc2 C:/Users/oukeh/OneDrive/桌面/code-mod-example/code-mod-framework/lib/libnx_min/nx/lib\libnx_min.a(newlib.o)
 .debug_abbrev  0x0000000000000000      0x571 C:/Users/oukeh/OneDrive/桌面/code-mod-example/code-mod-framework/lib/libnx_min/nx/lib\libnx_min.a(newlib.o)
 .debug_loc     0x0000000000000000     0x192e C:/Users/oukeh/OneDrive/桌面/code-mod-example/code-mod-framework/lib/libnx_min/nx/lib\libnx_min.a(newlib.o)
 .debug_aranges
                0x0000000000000000      0x1f0 C:/Users/oukeh/OneDrive/桌面/code-mod-example/code-mod-framework/lib/libnx_min/nx/lib\libnx_min.a(newlib.o)
 .debug_ranges  0x0000000000000000      0x4e0 C:/Users/oukeh/OneDrive/桌面/code-mod-example/code-mod-framework/lib/libnx_min/nx/lib\libnx_min.a(newlib.o)
 .debug_line    0x0000000000000000     0x10e9 C:/Users/oukeh/OneDrive/桌面/code-mod-example/code-mod-framework/lib/libnx_min/nx/lib\libnx_min.a(newlib.o)
 .debug_str     0x0000000000000000     0x18ae C:/Users/oukeh/OneDrive/桌面/code-mod-example/code-mod-framework/lib/libnx_min/nx/lib\libnx_min.a(newlib.o)
 .comment       0x0000000000000000       0x23 C:/Users/oukeh/OneDrive/桌面/code-mod-example/code-mod-framework/lib/libnx_min/nx/lib\libnx_min.a(newlib.o)
 .text          0x0000000000000000        0x0 C:/Users/oukeh/OneDrive/桌面/code-mod-example/code-mod-framework/lib/libnx_min/nx/lib\libnx_min.a(thread.o)
 .data          0x0000000000000000        0x0 C:/Users/oukeh/OneDrive/桌面/code-mod-example/code-mod-framework/lib/libnx_min/nx/lib\libnx_min.a(thread.o)
 .bss           0x0000000000000000        0x0 C:/Users/oukeh/OneDrive/桌面/code-mod-example/code-mod-framework/lib/libnx_min/nx/lib\libnx_min.a(thread.o)
 .debug_info    0x0000000000000000     0x1a68 C:/Users/oukeh/OneDrive/桌面/code-mod-example/code-mod-framework/lib/libnx_min/nx/lib\libnx_min.a(thread.o)
 .debug_abbrev  0x0000000000000000      0x492 C:/Users/oukeh/OneDrive/桌面/code-mod-example/code-mod-framework/lib/libnx_min/nx/lib\libnx_min.a(thread.o)
 .debug_loc     0x0000000000000000      0xbd2 C:/Users/oukeh/OneDrive/桌面/code-mod-example/code-mod-framework/lib/libnx_min/nx/lib\libnx_min.a(thread.o)
 .debug_aranges
                0x0000000000000000      0x100 C:/Users/oukeh/OneDrive/桌面/code-mod-example/code-mod-framework/lib/libnx_min/nx/lib\libnx_min.a(thread.o)
 .debug_ranges  0x0000000000000000      0x320 C:/Users/oukeh/OneDrive/桌面/code-mod-example/code-mod-framework/lib/libnx_min/nx/lib\libnx_min.a(thread.o)
 .debug_line    0x0000000000000000      0xa2c C:/Users/oukeh/OneDrive/桌面/code-mod-example/code-mod-framework/lib/libnx_min/nx/lib\libnx_min.a(thread.o)
 .debug_str     0x0000000000000000      0xfee C:/Users/oukeh/OneDrive/桌面/code-mod-example/code-mod-framework/lib/libnx_min/nx/lib\libnx_min.a(thread.o)
 .comment       0x0000000000000000       0x23 C:/Users/oukeh/OneDrive/桌面/code-mod-example/code-mod-framework/lib/libnx_min/nx/lib\libnx_min.a(thread.o)
 .text          0x0000000000000000        0x0 C:/Users/oukeh/OneDrive/桌面/code-mod-example/code-mod-framework/lib/libnx_min/nx/lib\libnx_min.a(condvar.o)
 .data          0x0000000000000000        0x0 C:/Users/oukeh/OneDrive/桌面/code-mod-example/code-mod-framework/lib/libnx_min/nx/lib\libnx_min.a(condvar.o)
 .bss           0x0000000000000000        0x0 C:/Users/oukeh/OneDrive/桌面/code-mod-example/code-mod-framework/lib/libnx_min/nx/lib\libnx_min.a(condvar.o)
 .debug_info    0x0000000000000000      0x396 C:/Users/oukeh/OneDrive/桌面/code-mod-example/code-mod-framework/lib/libnx_min/nx/lib\libnx_min.a(condvar.o)
 .debug_abbrev  0x0000000000000000      0x1aa C:/Users/oukeh/OneDrive/桌面/code-mod-example/code-mod-framework/lib/libnx_min/nx/lib\libnx_min.a(condvar.o)
 .debug_loc     0x0000000000000000      0x1c1 C:/Users/oukeh/OneDrive/桌面/code-mod-example/code-mod-framework/lib/libnx_min/nx/lib\libnx_min.a(condvar.o)
 .debug_aranges
                0x0000000000000000       0x30 C:/Users/oukeh/OneDrive/桌面/code-mod-example/code-mod-framework/lib/libnx_min/nx/lib\libnx_min.a(condvar.o)
 .debug_ranges  0x0000000000000000       0x60 C:/Users/oukeh/OneDrive/桌面/code-mod-example/code-mod-framework/lib/libnx_min/nx/lib\libnx_min.a(condvar.o)
 .debug_line    0x0000000000000000      0x398 C:/Users/oukeh/OneDrive/桌面/code-mod-example/code-mod-framework/lib/libnx_min/nx/lib\libnx_min.a(condvar.o)
 .debug_str     0x0000000000000000      0x350 C:/Users/oukeh/OneDrive/桌面/code-mod-example/code-mod-framework/lib/libnx_min/nx/lib\libnx_min.a(condvar.o)
 .comment       0x0000000000000000       0x23 C:/Users/oukeh/OneDrive/桌面/code-mod-example/code-mod-framework/lib/libnx_min/nx/lib\libnx_min.a(condvar.o)
 .text          0x0000000000000000        0x0 C:/Users/oukeh/OneDrive/桌面/code-mod-example/code-mod-framework/lib/libnx_min/nx/lib\libnx_min.a(event.o)
 .data          0x0000000000000000        0x0 C:/Users/oukeh/OneDrive/桌面/code-mod-example/code-mod-framework/lib/libnx_min/nx/lib\libnx_min.a(event.o)
 .bss           0x0000000000000000        0x0 C:/Users/oukeh/OneDrive/桌面/code-mod-example/code-mod-framework/lib/libnx_min/nx/lib\libnx_min.a(event.o)
 .debug_info    0x0000000000000000      0x702 C:/Users/oukeh/OneDrive/桌面/code-mod-example/code-mod-framework/lib/libnx_min/nx/lib\libnx_min.a(event.o)
 .debug_abbrev  0x0000000000000000      0x28b C:/Users/oukeh/OneDrive/桌面/code-mod-example/code-mod-framework/lib/libnx_min/nx/lib\libnx_min.a(event.o)
 .debug_loc     0x0000000000000000      0x2e3 C:/Users/oukeh/OneDrive/桌面/code-mod-example/code-mod-framework/lib/libnx_min/nx/lib\libnx_min.a(event.o)
 .debug_aranges
                0x0000000000000000       0x80 C:/Users/oukeh/OneDrive/桌面/code-mod-example/code-mod-framework/lib/libnx_min/nx/lib\libnx_min.a(event.o)
 .debug_ranges  0x0000000000000000       0xe0 C:/Users/oukeh/OneDrive/桌面/code-mod-example/code-mod-framework/lib/libnx_min/nx/lib\libnx_min.a(event.o)
 .debug_line    0x0000000000000000      0x3a9 C:/Users/oukeh/OneDrive/桌面/code-mod-example/code-mod-framework/lib/libnx_min/nx/lib\libnx_min.a(event.o)
 .debug_str     0x0000000000000000      0x950 C:/Users/oukeh/OneDrive/桌面/code-mod-example/code-mod-framework/lib/libnx_min/nx/lib\libnx_min.a(event.o)
 .comment       0x0000000000000000       0x23 C:/Users/oukeh/OneDrive/桌面/code-mod-example/code-mod-framework/lib/libnx_min/nx/lib\libnx_min.a(event.o)
 .text          0x0000000000000000        0x0 C:/Users/oukeh/OneDrive/桌面/code-mod-example/code-mod-framework/lib/libnx_min/nx/lib\libnx_min.a(tmem.o)
 .data          0x0000000000000000        0x0 C:/Users/oukeh/OneDrive/桌面/code-mod-example/code-mod-framework/lib/libnx_min/nx/lib\libnx_min.a(tmem.o)
 .bss           0x0000000000000000        0x0 C:/Users/oukeh/OneDrive/桌面/code-mod-example/code-mod-framework/lib/libnx_min/nx/lib\libnx_min.a(tmem.o)
 .debug_info    0x0000000000000000     0x100a C:/Users/oukeh/OneDrive/桌面/code-mod-example/code-mod-framework/lib/libnx_min/nx/lib\libnx_min.a(tmem.o)
 .debug_abbrev  0x0000000000000000      0x3a2 C:/Users/oukeh/OneDrive/桌面/code-mod-example/code-mod-framework/lib/libnx_min/nx/lib\libnx_min.a(tmem.o)
 .debug_loc     0x0000000000000000      0x6e2 C:/Users/oukeh/OneDrive/桌面/code-mod-example/code-mod-framework/lib/libnx_min/nx/lib\libnx_min.a(tmem.o)
 .debug_aranges
                0x0000000000000000       0x80 C:/Users/oukeh/OneDrive/桌面/code-mod-example/code-mod-framework/lib/libnx_min/nx/lib\libnx_min.a(tmem.o)
 .debug_ranges  0x0000000000000000       0xf0 C:/Users/oukeh/OneDrive/桌面/code-mod-example/code-mod-framework/lib/libnx_min/nx/lib\libnx_min.a(tmem.o)
 .debug_line    0x0000000000000000      0x507 C:/Users/oukeh/OneDrive/桌面/code-mod-example/code-mod-framework/lib/libnx_min/nx/lib\libnx_min.a(tmem.o)
 .debug_str     0x0000000000000000      0xd4f C:/Users/oukeh/OneDrive/桌面/code-mod-example/code-mod-framework/lib/libnx_min/nx/lib\libnx_min.a(tmem.o)
 .comment       0x0000000000000000       0x23 C:/Users/oukeh/OneDrive/桌面/code-mod-example/code-mod-framework/lib/libnx_min/nx/lib\libnx_min.a(tmem.o)
 .text          0x0000000000000000        0x0 C:/Users/oukeh/OneDrive/桌面/code-mod-example/code-mod-framework/lib/libnx_min/nx/lib\libnx_min.a(rwlock.o)
 .data          0x0000000000000000        0x0 C:/Users/oukeh/OneDrive/桌面/code-mod-example/code-mod-framework/lib/libnx_min/nx/lib\libnx_min.a(rwlock.o)
 .bss           0x0000000000000000        0x0 C:/Users/oukeh/OneDrive/桌面/code-mod-example/code-mod-framework/lib/libnx_min/nx/lib\libnx_min.a(rwlock.o)
 .debug_info    0x0000000000000000      0x659 C:/Users/oukeh/OneDrive/桌面/code-mod-example/code-mod-framework/lib/libnx_min/nx/lib\libnx_min.a(rwlock.o)
 .debug_abbrev  0x0000000000000000      0x1cc C:/Users/oukeh/OneDrive/桌面/code-mod-example/code-mod-framework/lib/libnx_min/nx/lib\libnx_min.a(rwlock.o)
 .debug_loc     0x0000000000000000      0x4ab C:/Users/oukeh/OneDrive/桌面/code-mod-example/code-mod-framework/lib/libnx_min/nx/lib\libnx_min.a(rwlock.o)
 .debug_aranges
                0x0000000000000000       0x70 C:/Users/oukeh/OneDrive/桌面/code-mod-example/code-mod-framework/lib/libnx_min/nx/lib\libnx_min.a(rwlock.o)
 .debug_ranges  0x0000000000000000      0x130 C:/Users/oukeh/OneDrive/桌面/code-mod-example/code-mod-framework/lib/libnx_min/nx/lib\libnx_min.a(rwlock.o)
 .debug_line    0x0000000000000000      0x3eb C:/Users/oukeh/OneDrive/桌面/code-mod-example/code-mod-framework/lib/libnx_min/nx/lib\libnx_min.a(rwlock.o)
 .debug_str     0x0000000000000000      0x346 C:/Users/oukeh/OneDrive/桌面/code-mod-example/code-mod-framework/lib/libnx_min/nx/lib\libnx_min.a(rwlock.o)
 .comment       0x0000000000000000       0x23 C:/Users/oukeh/OneDrive/桌面/code-mod-example/code-mod-framework/lib/libnx_min/nx/lib\libnx_min.a(rwlock.o)
 .text          0x0000000000000000        0x0 C:/Users/oukeh/OneDrive/桌面/code-mod-example/code-mod-framework/lib/libnx_min/nx/lib\libnx_min.a(wait.o)
 .data          0x0000000000000000        0x0 C:/Users/oukeh/OneDrive/桌面/code-mod-example/code-mod-framework/lib/libnx_min/nx/lib\libnx_min.a(wait.o)
 .bss           0x0000000000000000        0x0 C:/Users/oukeh/OneDrive/桌面/code-mod-example/code-mod-framework/lib/libnx_min/nx/lib\libnx_min.a(wait.o)
 .debug_info    0x0000000000000000      0xe46 C:/Users/oukeh/OneDrive/桌面/code-mod-example/code-mod-framework/lib/libnx_min/nx/lib\libnx_min.a(wait.o)
 .debug_abbrev  0x0000000000000000      0x35d C:/Users/oukeh/OneDrive/桌面/code-mod-example/code-mod-framework/lib/libnx_min/nx/lib\libnx_min.a(wait.o)
 .debug_loc     0x0000000000000000      0xeb6 C:/Users/oukeh/OneDrive/桌面/code-mod-example/code-mod-framework/lib/libnx_min/nx/lib\libnx_min.a(wait.o)
 .debug_aranges
                0x0000000000000000       0x60 C:/Users/oukeh/OneDrive/桌面/code-mod-example/code-mod-framework/lib/libnx_min/nx/lib\libnx_min.a(wait.o)
 .debug_ranges  0x0000000000000000      0x290 C:/Users/oukeh/OneDrive/桌面/code-mod-example/code-mod-framework/lib/libnx_min/nx/lib\libnx_min.a(wait.o)
 .debug_line    0x0000000000000000      0x7bb C:/Users/oukeh/OneDrive/桌面/code-mod-example/code-mod-framework/lib/libnx_min/nx/lib\libnx_min.a(wait.o)
 .debug_str     0x0000000000000000      0xa07 C:/Users/oukeh/OneDrive/桌面/code-mod-example/code-mod-framework/lib/libnx_min/nx/lib\libnx_min.a(wait.o)
 .comment       0x0000000000000000       0x23 C:/Users/oukeh/OneDrive/桌面/code-mod-example/code-mod-framework/lib/libnx_min/nx/lib\libnx_min.a(wait.o)
 .text          0x0000000000000000        0x0 C:/Users/oukeh/OneDrive/桌面/code-mod-example/code-mod-framework/lib/libnx_min/nx/lib\libnx_min.a(shmem.o)
 .data          0x0000000000000000        0x0 C:/Users/oukeh/OneDrive/桌面/code-mod-example/code-mod-framework/lib/libnx_min/nx/lib\libnx_min.a(shmem.o)
 .bss           0x0000000000000000        0x0 C:/Users/oukeh/OneDrive/桌面/code-mod-example/code-mod-framework/lib/libnx_min/nx/lib\libnx_min.a(shmem.o)
 .debug_info    0x0000000000000000      0xe91 C:/Users/oukeh/OneDrive/桌面/code-mod-example/code-mod-framework/lib/libnx_min/nx/lib\libnx_min.a(shmem.o)
 .debug_abbrev  0x0000000000000000      0x377 C:/Users/oukeh/OneDrive/桌面/code-mod-example/code-mod-framework/lib/libnx_min/nx/lib\libnx_min.a(shmem.o)
 .debug_loc     0x0000000000000000      0x442 C:/Users/oukeh/OneDrive/桌面/code-mod-example/code-mod-framework/lib/libnx_min/nx/lib\libnx_min.a(shmem.o)
 .debug_aranges
                0x0000000000000000       0x70 C:/Users/oukeh/OneDrive/桌面/code-mod-example/code-mod-framework/lib/libnx_min/nx/lib\libnx_min.a(shmem.o)
 .debug_ranges  0x0000000000000000       0xe0 C:/Users/oukeh/OneDrive/桌面/code-mod-example/code-mod-framework/lib/libnx_min/nx/lib\libnx_min.a(shmem.o)
 .debug_line    0x0000000000000000      0x401 C:/Users/oukeh/OneDrive/桌面/code-mod-example/code-mod-framework/lib/libnx_min/nx/lib\libnx_min.a(shmem.o)
 .debug_str     0x0000000000000000      0xc9a C:/Users/oukeh/OneDrive/桌面/code-mod-example/code-mod-framework/lib/libnx_min/nx/lib\libnx_min.a(shmem.o)
 .comment       0x0000000000000000       0x23 C:/Users/oukeh/OneDrive/桌面/code-mod-example/code-mod-framework/lib/libnx_min/nx/lib\libnx_min.a(shmem.o)
 .text          0x0000000000000000        0x0 C:/Users/oukeh/OneDrive/桌面/code-mod-example/code-mod-framework/lib/libnx_min/nx/lib\libnx_min.a(detect.o)
 .data          0x0000000000000000        0x0 C:/Users/oukeh/OneDrive/桌面/code-mod-example/code-mod-framework/lib/libnx_min/nx/lib\libnx_min.a(detect.o)
 .bss           0x0000000000000000        0x0 C:/Users/oukeh/OneDrive/桌面/code-mod-example/code-mod-framework/lib/libnx_min/nx/lib\libnx_min.a(detect.o)
 .debug_info    0x0000000000000000     0x103a C:/Users/oukeh/OneDrive/桌面/code-mod-example/code-mod-framework/lib/libnx_min/nx/lib\libnx_min.a(detect.o)
 .debug_abbrev  0x0000000000000000      0x31e C:/Users/oukeh/OneDrive/桌面/code-mod-example/code-mod-framework/lib/libnx_min/nx/lib\libnx_min.a(detect.o)
 .debug_loc     0x0000000000000000       0xb3 C:/Users/oukeh/OneDrive/桌面/code-mod-example/code-mod-framework/lib/libnx_min/nx/lib\libnx_min.a(detect.o)
 .debug_aranges
                0x0000000000000000       0x60 C:/Users/oukeh/OneDrive/桌面/code-mod-example/code-mod-framework/lib/libnx_min/nx/lib\libnx_min.a(detect.o)
 .debug_ranges  0x0000000000000000      0x130 C:/Users/oukeh/OneDrive/桌面/code-mod-example/code-mod-framework/lib/libnx_min/nx/lib\libnx_min.a(detect.o)
 .debug_line    0x0000000000000000      0x48e C:/Users/oukeh/OneDrive/桌面/code-mod-example/code-mod-framework/lib/libnx_min/nx/lib\libnx_min.a(detect.o)
 .debug_str     0x0000000000000000      0xea7 C:/Users/oukeh/OneDrive/桌面/code-mod-example/code-mod-framework/lib/libnx_min/nx/lib\libnx_min.a(detect.o)
 .comment       0x0000000000000000       0x23 C:/Users/oukeh/OneDrive/桌面/code-mod-example/code-mod-framework/lib/libnx_min/nx/lib\libnx_min.a(detect.o)
 .text          0x0000000000000000        0x0 C:/Users/oukeh/OneDrive/桌面/code-mod-example/code-mod-framework/lib/libnx_min/nx/lib\libnx_min.a(apm.o)
 .data          0x0000000000000000        0x0 C:/Users/oukeh/OneDrive/桌面/code-mod-example/code-mod-framework/lib/libnx_min/nx/lib\libnx_min.a(apm.o)
 .bss           0x0000000000000000        0x0 C:/Users/oukeh/OneDrive/桌面/code-mod-example/code-mod-framework/lib/libnx_min/nx/lib\libnx_min.a(apm.o)
 .debug_info    0x0000000000000000     0x1b13 C:/Users/oukeh/OneDrive/桌面/code-mod-example/code-mod-framework/lib/libnx_min/nx/lib\libnx_min.a(apm.o)
 .debug_abbrev  0x0000000000000000      0x442 C:/Users/oukeh/OneDrive/桌面/code-mod-example/code-mod-framework/lib/libnx_min/nx/lib\libnx_min.a(apm.o)
 .debug_loc     0x0000000000000000     0x239a C:/Users/oukeh/OneDrive/桌面/code-mod-example/code-mod-framework/lib/libnx_min/nx/lib\libnx_min.a(apm.o)
 .debug_aranges
                0x0000000000000000       0x80 C:/Users/oukeh/OneDrive/桌面/code-mod-example/code-mod-framework/lib/libnx_min/nx/lib\libnx_min.a(apm.o)
 .debug_ranges  0x0000000000000000      0x630 C:/Users/oukeh/OneDrive/桌面/code-mod-example/code-mod-framework/lib/libnx_min/nx/lib\libnx_min.a(apm.o)
 .debug_line    0x0000000000000000      0xbdc C:/Users/oukeh/OneDrive/桌面/code-mod-example/code-mod-framework/lib/libnx_min/nx/lib\libnx_min.a(apm.o)
 .debug_str     0x0000000000000000      0xa22 C:/Users/oukeh/OneDrive/桌面/code-mod-example/code-mod-framework/lib/libnx_min/nx/lib\libnx_min.a(apm.o)
 .comment       0x0000000000000000       0x23 C:/Users/oukeh/OneDrive/桌面/code-mod-example/code-mod-framework/lib/libnx_min/nx/lib\libnx_min.a(apm.o)
 .text          0x0000000000000000        0x0 c:/devkitpro/devkita64/bin/../lib/gcc/aarch64-none-elf/9.2.0/../../../../aarch64-none-elf/lib/pic\libg.a(lib_a-bsearch.o)
 .data          0x0000000000000000        0x0 c:/devkitpro/devkita64/bin/../lib/gcc/aarch64-none-elf/9.2.0/../../../../aarch64-none-elf/lib/pic\libg.a(lib_a-bsearch.o)
 .bss           0x0000000000000000        0x0 c:/devkitpro/devkita64/bin/../lib/gcc/aarch64-none-elf/9.2.0/../../../../aarch64-none-elf/lib/pic\libg.a(lib_a-bsearch.o)
 .comment       0x0000000000000000       0x23 c:/devkitpro/devkita64/bin/../lib/gcc/aarch64-none-elf/9.2.0/../../../../aarch64-none-elf/lib/pic\libg.a(lib_a-bsearch.o)
 .text          0x0000000000000000        0x0 c:/devkitpro/devkita64/bin/../lib/gcc/aarch64-none-elf/9.2.0/../../../../aarch64-none-elf/lib/pic\libg.a(lib_a-ctype_.o)
 .data          0x0000000000000000        0x0 c:/devkitpro/devkita64/bin/../lib/gcc/aarch64-none-elf/9.2.0/../../../../aarch64-none-elf/lib/pic\libg.a(lib_a-ctype_.o)
 .bss           0x0000000000000000        0x0 c:/devkitpro/devkita64/bin/../lib/gcc/aarch64-none-elf/9.2.0/../../../../aarch64-none-elf/lib/pic\libg.a(lib_a-ctype_.o)
 .comment       0x0000000000000000       0x23 c:/devkitpro/devkita64/bin/../lib/gcc/aarch64-none-elf/9.2.0/../../../../aarch64-none-elf/lib/pic\libg.a(lib_a-ctype_.o)
 .text          0x0000000000000000        0x0 c:/devkitpro/devkita64/bin/../lib/gcc/aarch64-none-elf/9.2.0/../../../../aarch64-none-elf/lib/pic\libg.a(lib_a-errno.o)
 .data          0x0000000000000000        0x0 c:/devkitpro/devkita64/bin/../lib/gcc/aarch64-none-elf/9.2.0/../../../../aarch64-none-elf/lib/pic\libg.a(lib_a-errno.o)
 .bss           0x0000000000000000        0x0 c:/devkitpro/devkita64/bin/../lib/gcc/aarch64-none-elf/9.2.0/../../../../aarch64-none-elf/lib/pic\libg.a(lib_a-errno.o)
 .comment       0x0000000000000000       0x23 c:/devkitpro/devkita64/bin/../lib/gcc/aarch64-none-elf/9.2.0/../../../../aarch64-none-elf/lib/pic\libg.a(lib_a-errno.o)
 .text          0x0000000000000000        0x0 c:/devkitpro/devkita64/bin/../lib/gcc/aarch64-none-elf/9.2.0/../../../../aarch64-none-elf/lib/pic\libg.a(lib_a-exit.o)
 .data          0x0000000000000000        0x0 c:/devkitpro/devkita64/bin/../lib/gcc/aarch64-none-elf/9.2.0/../../../../aarch64-none-elf/lib/pic\libg.a(lib_a-exit.o)
 .bss           0x0000000000000000        0x0 c:/devkitpro/devkita64/bin/../lib/gcc/aarch64-none-elf/9.2.0/../../../../aarch64-none-elf/lib/pic\libg.a(lib_a-exit.o)
 .comment       0x0000000000000000       0x23 c:/devkitpro/devkita64/bin/../lib/gcc/aarch64-none-elf/9.2.0/../../../../aarch64-none-elf/lib/pic\libg.a(lib_a-exit.o)
 .text          0x0000000000000000        0x0 c:/devkitpro/devkita64/bin/../lib/gcc/aarch64-none-elf/9.2.0/../../../../aarch64-none-elf/lib/pic\libg.a(lib_a-fini.o)
 .data          0x0000000000000000        0x0 c:/devkitpro/devkita64/bin/../lib/gcc/aarch64-none-elf/9.2.0/../../../../aarch64-none-elf/lib/pic\libg.a(lib_a-fini.o)
 .bss           0x0000000000000000        0x0 c:/devkitpro/devkita64/bin/../lib/gcc/aarch64-none-elf/9.2.0/../../../../aarch64-none-elf/lib/pic\libg.a(lib_a-fini.o)
 .comment       0x0000000000000000       0x23 c:/devkitpro/devkita64/bin/../lib/gcc/aarch64-none-elf/9.2.0/../../../../aarch64-none-elf/lib/pic\libg.a(lib_a-fini.o)
 .text          0x0000000000000000        0x0 c:/devkitpro/devkita64/bin/../lib/gcc/aarch64-none-elf/9.2.0/../../../../aarch64-none-elf/lib/pic\libg.a(lib_a-impure.o)
 .data          0x0000000000000000        0x0 c:/devkitpro/devkita64/bin/../lib/gcc/aarch64-none-elf/9.2.0/../../../../aarch64-none-elf/lib/pic\libg.a(lib_a-impure.o)
 .bss           0x0000000000000000        0x0 c:/devkitpro/devkita64/bin/../lib/gcc/aarch64-none-elf/9.2.0/../../../../aarch64-none-elf/lib/pic\libg.a(lib_a-impure.o)
 .comment       0x0000000000000000       0x23 c:/devkitpro/devkita64/bin/../lib/gcc/aarch64-none-elf/9.2.0/../../../../aarch64-none-elf/lib/pic\libg.a(lib_a-impure.o)
 .text          0x0000000000000000        0x0 c:/devkitpro/devkita64/bin/../lib/gcc/aarch64-none-elf/9.2.0/../../../../aarch64-none-elf/lib/pic\libg.a(lib_a-init.o)
 .data          0x0000000000000000        0x0 c:/devkitpro/devkita64/bin/../lib/gcc/aarch64-none-elf/9.2.0/../../../../aarch64-none-elf/lib/pic\libg.a(lib_a-init.o)
 .bss           0x0000000000000000        0x0 c:/devkitpro/devkita64/bin/../lib/gcc/aarch64-none-elf/9.2.0/../../../../aarch64-none-elf/lib/pic\libg.a(lib_a-init.o)
 .comment       0x0000000000000000       0x23 c:/devkitpro/devkita64/bin/../lib/gcc/aarch64-none-elf/9.2.0/../../../../aarch64-none-elf/lib/pic\libg.a(lib_a-init.o)
 .text          0x0000000000000000        0x0 c:/devkitpro/devkita64/bin/../lib/gcc/aarch64-none-elf/9.2.0/../../../../aarch64-none-elf/lib/pic\libg.a(lib_a-malign.o)
 .data          0x0000000000000000        0x0 c:/devkitpro/devkita64/bin/../lib/gcc/aarch64-none-elf/9.2.0/../../../../aarch64-none-elf/lib/pic\libg.a(lib_a-malign.o)
 .bss           0x0000000000000000        0x0 c:/devkitpro/devkita64/bin/../lib/gcc/aarch64-none-elf/9.2.0/../../../../aarch64-none-elf/lib/pic\libg.a(lib_a-malign.o)
 .comment       0x0000000000000000       0x23 c:/devkitpro/devkita64/bin/../lib/gcc/aarch64-none-elf/9.2.0/../../../../aarch64-none-elf/lib/pic\libg.a(lib_a-malign.o)
 .text          0x0000000000000000        0x0 c:/devkitpro/devkita64/bin/../lib/gcc/aarch64-none-elf/9.2.0/../../../../aarch64-none-elf/lib/pic\libg.a(lib_a-malignr.o)
 .data          0x0000000000000000        0x0 c:/devkitpro/devkita64/bin/../lib/gcc/aarch64-none-elf/9.2.0/../../../../aarch64-none-elf/lib/pic\libg.a(lib_a-malignr.o)
 .bss           0x0000000000000000        0x0 c:/devkitpro/devkita64/bin/../lib/gcc/aarch64-none-elf/9.2.0/../../../../aarch64-none-elf/lib/pic\libg.a(lib_a-malignr.o)
 .comment       0x0000000000000000       0x23 c:/devkitpro/devkita64/bin/../lib/gcc/aarch64-none-elf/9.2.0/../../../../aarch64-none-elf/lib/pic\libg.a(lib_a-malignr.o)
 .text          0x0000000000000000        0x0 c:/devkitpro/devkita64/bin/../lib/gcc/aarch64-none-elf/9.2.0/../../../../aarch64-none-elf/lib/pic\libg.a(lib_a-malloc.o)
 .data          0x0000000000000000        0x0 c:/devkitpro/devkita64/bin/../lib/gcc/aarch64-none-elf/9.2.0/../../../../aarch64-none-elf/lib/pic\libg.a(lib_a-malloc.o)
 .bss           0x0000000000000000        0x0 c:/devkitpro/devkita64/bin/../lib/gcc/aarch64-none-elf/9.2.0/../../../../aarch64-none-elf/lib/pic\libg.a(lib_a-malloc.o)
 .comment       0x0000000000000000       0x23 c:/devkitpro/devkita64/bin/../lib/gcc/aarch64-none-elf/9.2.0/../../../../aarch64-none-elf/lib/pic\libg.a(lib_a-malloc.o)
 .text          0x0000000000000000        0x0 c:/devkitpro/devkita64/bin/../lib/gcc/aarch64-none-elf/9.2.0/../../../../aarch64-none-elf/lib/pic\libg.a(lib_a-mallocr.o)
 .data          0x0000000000000000        0x0 c:/devkitpro/devkita64/bin/../lib/gcc/aarch64-none-elf/9.2.0/../../../../aarch64-none-elf/lib/pic\libg.a(lib_a-mallocr.o)
 .bss           0x0000000000000000        0x0 c:/devkitpro/devkita64/bin/../lib/gcc/aarch64-none-elf/9.2.0/../../../../aarch64-none-elf/lib/pic\libg.a(lib_a-mallocr.o)
 .comment       0x0000000000000000       0x23 c:/devkitpro/devkita64/bin/../lib/gcc/aarch64-none-elf/9.2.0/../../../../aarch64-none-elf/lib/pic\libg.a(lib_a-mallocr.o)
 .data          0x0000000000000000        0x0 c:/devkitpro/devkita64/bin/../lib/gcc/aarch64-none-elf/9.2.0/../../../../aarch64-none-elf/lib/pic\libg.a(lib_a-memcpy.o)
 .bss           0x0000000000000000        0x0 c:/devkitpro/devkita64/bin/../lib/gcc/aarch64-none-elf/9.2.0/../../../../aarch64-none-elf/lib/pic\libg.a(lib_a-memcpy.o)
 .data          0x0000000000000000        0x0 c:/devkitpro/devkita64/bin/../lib/gcc/aarch64-none-elf/9.2.0/../../../../aarch64-none-elf/lib/pic\libg.a(lib_a-memset.o)
 .bss           0x0000000000000000        0x0 c:/devkitpro/devkita64/bin/../lib/gcc/aarch64-none-elf/9.2.0/../../../../aarch64-none-elf/lib/pic\libg.a(lib_a-memset.o)
 .text          0x0000000000000000        0x0 c:/devkitpro/devkita64/bin/../lib/gcc/aarch64-none-elf/9.2.0/../../../../aarch64-none-elf/lib/pic\libg.a(lib_a-mlock.o)
 .data          0x0000000000000000        0x0 c:/devkitpro/devkita64/bin/../lib/gcc/aarch64-none-elf/9.2.0/../../../../aarch64-none-elf/lib/pic\libg.a(lib_a-mlock.o)
 .bss           0x0000000000000000        0x0 c:/devkitpro/devkita64/bin/../lib/gcc/aarch64-none-elf/9.2.0/../../../../aarch64-none-elf/lib/pic\libg.a(lib_a-mlock.o)
 .comment       0x0000000000000000       0x23 c:/devkitpro/devkita64/bin/../lib/gcc/aarch64-none-elf/9.2.0/../../../../aarch64-none-elf/lib/pic\libg.a(lib_a-mlock.o)
 .text          0x0000000000000000        0x0 c:/devkitpro/devkita64/bin/../lib/gcc/aarch64-none-elf/9.2.0/../../../../aarch64-none-elf/lib/pic\libg.a(lib_a-setenv.o)
 .data          0x0000000000000000        0x0 c:/devkitpro/devkita64/bin/../lib/gcc/aarch64-none-elf/9.2.0/../../../../aarch64-none-elf/lib/pic\libg.a(lib_a-setenv.o)
 .bss           0x0000000000000000        0x0 c:/devkitpro/devkita64/bin/../lib/gcc/aarch64-none-elf/9.2.0/../../../../aarch64-none-elf/lib/pic\libg.a(lib_a-setenv.o)
 .comment       0x0000000000000000       0x23 c:/devkitpro/devkita64/bin/../lib/gcc/aarch64-none-elf/9.2.0/../../../../aarch64-none-elf/lib/pic\libg.a(lib_a-setenv.o)
 .text          0x0000000000000000        0x0 c:/devkitpro/devkita64/bin/../lib/gcc/aarch64-none-elf/9.2.0/../../../../aarch64-none-elf/lib/pic\libg.a(lib_a-setenv_r.o)
 .data          0x0000000000000000        0x0 c:/devkitpro/devkita64/bin/../lib/gcc/aarch64-none-elf/9.2.0/../../../../aarch64-none-elf/lib/pic\libg.a(lib_a-setenv_r.o)
 .bss           0x0000000000000000        0x0 c:/devkitpro/devkita64/bin/../lib/gcc/aarch64-none-elf/9.2.0/../../../../aarch64-none-elf/lib/pic\libg.a(lib_a-setenv_r.o)
 .comment       0x0000000000000000       0x23 c:/devkitpro/devkita64/bin/../lib/gcc/aarch64-none-elf/9.2.0/../../../../aarch64-none-elf/lib/pic\libg.a(lib_a-setenv_r.o)
 .data          0x0000000000000000        0x0 c:/devkitpro/devkita64/bin/../lib/gcc/aarch64-none-elf/9.2.0/../../../../aarch64-none-elf/lib/pic\libg.a(lib_a-strchr.o)
 .bss           0x0000000000000000        0x0 c:/devkitpro/devkita64/bin/../lib/gcc/aarch64-none-elf/9.2.0/../../../../aarch64-none-elf/lib/pic\libg.a(lib_a-strchr.o)
 .data          0x0000000000000000        0x0 c:/devkitpro/devkita64/bin/../lib/gcc/aarch64-none-elf/9.2.0/../../../../aarch64-none-elf/lib/pic\libg.a(lib_a-strcpy.o)
 .bss           0x0000000000000000        0x0 c:/devkitpro/devkita64/bin/../lib/gcc/aarch64-none-elf/9.2.0/../../../../aarch64-none-elf/lib/pic\libg.a(lib_a-strcpy.o)
 .data          0x0000000000000000        0x0 c:/devkitpro/devkita64/bin/../lib/gcc/aarch64-none-elf/9.2.0/../../../../aarch64-none-elf/lib/pic\libg.a(lib_a-strlen.o)
 .bss           0x0000000000000000        0x0 c:/devkitpro/devkita64/bin/../lib/gcc/aarch64-none-elf/9.2.0/../../../../aarch64-none-elf/lib/pic\libg.a(lib_a-strlen.o)
 .text          0x0000000000000000        0x0 c:/devkitpro/devkita64/bin/../lib/gcc/aarch64-none-elf/9.2.0/../../../../aarch64-none-elf/lib/pic\libg.a(lib_a-strncat.o)
 .data          0x0000000000000000        0x0 c:/devkitpro/devkita64/bin/../lib/gcc/aarch64-none-elf/9.2.0/../../../../aarch64-none-elf/lib/pic\libg.a(lib_a-strncat.o)
 .bss           0x0000000000000000        0x0 c:/devkitpro/devkita64/bin/../lib/gcc/aarch64-none-elf/9.2.0/../../../../aarch64-none-elf/lib/pic\libg.a(lib_a-strncat.o)
 .comment       0x0000000000000000       0x23 c:/devkitpro/devkita64/bin/../lib/gcc/aarch64-none-elf/9.2.0/../../../../aarch64-none-elf/lib/pic\libg.a(lib_a-strncat.o)
 .data          0x0000000000000000        0x0 c:/devkitpro/devkita64/bin/../lib/gcc/aarch64-none-elf/9.2.0/../../../../aarch64-none-elf/lib/pic\libg.a(lib_a-strncmp.o)
 .bss           0x0000000000000000        0x0 c:/devkitpro/devkita64/bin/../lib/gcc/aarch64-none-elf/9.2.0/../../../../aarch64-none-elf/lib/pic\libg.a(lib_a-strncmp.o)
 .text          0x0000000000000000        0x0 c:/devkitpro/devkita64/bin/../lib/gcc/aarch64-none-elf/9.2.0/../../../../aarch64-none-elf/lib/pic\libg.a(lib_a-strncpy.o)
 .data          0x0000000000000000        0x0 c:/devkitpro/devkita64/bin/../lib/gcc/aarch64-none-elf/9.2.0/../../../../aarch64-none-elf/lib/pic\libg.a(lib_a-strncpy.o)
 .bss           0x0000000000000000        0x0 c:/devkitpro/devkita64/bin/../lib/gcc/aarch64-none-elf/9.2.0/../../../../aarch64-none-elf/lib/pic\libg.a(lib_a-strncpy.o)
 .comment       0x0000000000000000       0x23 c:/devkitpro/devkita64/bin/../lib/gcc/aarch64-none-elf/9.2.0/../../../../aarch64-none-elf/lib/pic\libg.a(lib_a-strncpy.o)
 .data          0x0000000000000000        0x0 c:/devkitpro/devkita64/bin/../lib/gcc/aarch64-none-elf/9.2.0/../../../../aarch64-none-elf/lib/pic\libg.a(lib_a-strnlen.o)
 .bss           0x0000000000000000        0x0 c:/devkitpro/devkita64/bin/../lib/gcc/aarch64-none-elf/9.2.0/../../../../aarch64-none-elf/lib/pic\libg.a(lib_a-strnlen.o)
 .text          0x0000000000000000        0x0 c:/devkitpro/devkita64/bin/../lib/gcc/aarch64-none-elf/9.2.0/../../../../aarch64-none-elf/lib/pic\libg.a(lib_a-toupper.o)
 .data          0x0000000000000000        0x0 c:/devkitpro/devkita64/bin/../lib/gcc/aarch64-none-elf/9.2.0/../../../../aarch64-none-elf/lib/pic\libg.a(lib_a-toupper.o)
 .bss           0x0000000000000000        0x0 c:/devkitpro/devkita64/bin/../lib/gcc/aarch64-none-elf/9.2.0/../../../../aarch64-none-elf/lib/pic\libg.a(lib_a-toupper.o)
 .comment       0x0000000000000000       0x23 c:/devkitpro/devkita64/bin/../lib/gcc/aarch64-none-elf/9.2.0/../../../../aarch64-none-elf/lib/pic\libg.a(lib_a-toupper.o)
 .text          0x0000000000000000        0x0 c:/devkitpro/devkita64/bin/../lib/gcc/aarch64-none-elf/9.2.0/../../../../aarch64-none-elf/lib/pic\libg.a(lib_a-vsnprintf.o)
 .data          0x0000000000000000        0x0 c:/devkitpro/devkita64/bin/../lib/gcc/aarch64-none-elf/9.2.0/../../../../aarch64-none-elf/lib/pic\libg.a(lib_a-vsnprintf.o)
 .bss           0x0000000000000000        0x0 c:/devkitpro/devkita64/bin/../lib/gcc/aarch64-none-elf/9.2.0/../../../../aarch64-none-elf/lib/pic\libg.a(lib_a-vsnprintf.o)
 .comment       0x0000000000000000       0x23 c:/devkitpro/devkita64/bin/../lib/gcc/aarch64-none-elf/9.2.0/../../../../aarch64-none-elf/lib/pic\libg.a(lib_a-vsnprintf.o)
 .text          0x0000000000000000        0x0 c:/devkitpro/devkita64/bin/../lib/gcc/aarch64-none-elf/9.2.0/../../../../aarch64-none-elf/lib/pic\libg.a(lib_a-__call_atexit.o)
 .data          0x0000000000000000        0x0 c:/devkitpro/devkita64/bin/../lib/gcc/aarch64-none-elf/9.2.0/../../../../aarch64-none-elf/lib/pic\libg.a(lib_a-__call_atexit.o)
 .bss           0x0000000000000000        0x0 c:/devkitpro/devkita64/bin/../lib/gcc/aarch64-none-elf/9.2.0/../../../../aarch64-none-elf/lib/pic\libg.a(lib_a-__call_atexit.o)
 .comment       0x0000000000000000       0x23 c:/devkitpro/devkita64/bin/../lib/gcc/aarch64-none-elf/9.2.0/../../../../aarch64-none-elf/lib/pic\libg.a(lib_a-__call_atexit.o)
 .text          0x0000000000000000        0x0 c:/devkitpro/devkita64/bin/../lib/gcc/aarch64-none-elf/9.2.0/../../../../aarch64-none-elf/lib/pic\libg.a(lib_a-environ.o)
 .data          0x0000000000000000        0x0 c:/devkitpro/devkita64/bin/../lib/gcc/aarch64-none-elf/9.2.0/../../../../aarch64-none-elf/lib/pic\libg.a(lib_a-environ.o)
 .bss           0x0000000000000000        0x0 c:/devkitpro/devkita64/bin/../lib/gcc/aarch64-none-elf/9.2.0/../../../../aarch64-none-elf/lib/pic\libg.a(lib_a-environ.o)
 .comment       0x0000000000000000       0x23 c:/devkitpro/devkita64/bin/../lib/gcc/aarch64-none-elf/9.2.0/../../../../aarch64-none-elf/lib/pic\libg.a(lib_a-environ.o)
 .text          0x0000000000000000        0x0 c:/devkitpro/devkita64/bin/../lib/gcc/aarch64-none-elf/9.2.0/../../../../aarch64-none-elf/lib/pic\libg.a(lib_a-envlock.o)
 .data          0x0000000000000000        0x0 c:/devkitpro/devkita64/bin/../lib/gcc/aarch64-none-elf/9.2.0/../../../../aarch64-none-elf/lib/pic\libg.a(lib_a-envlock.o)
 .bss           0x0000000000000000        0x0 c:/devkitpro/devkita64/bin/../lib/gcc/aarch64-none-elf/9.2.0/../../../../aarch64-none-elf/lib/pic\libg.a(lib_a-envlock.o)
 .comment       0x0000000000000000       0x23 c:/devkitpro/devkita64/bin/../lib/gcc/aarch64-none-elf/9.2.0/../../../../aarch64-none-elf/lib/pic\libg.a(lib_a-envlock.o)
 .text          0x0000000000000000        0x0 c:/devkitpro/devkita64/bin/../lib/gcc/aarch64-none-elf/9.2.0/../../../../aarch64-none-elf/lib/pic\libg.a(lib_a-freer.o)
 .data          0x0000000000000000        0x0 c:/devkitpro/devkita64/bin/../lib/gcc/aarch64-none-elf/9.2.0/../../../../aarch64-none-elf/lib/pic\libg.a(lib_a-freer.o)
 .bss           0x0000000000000000        0x0 c:/devkitpro/devkita64/bin/../lib/gcc/aarch64-none-elf/9.2.0/../../../../aarch64-none-elf/lib/pic\libg.a(lib_a-freer.o)
 .comment       0x0000000000000000       0x23 c:/devkitpro/devkita64/bin/../lib/gcc/aarch64-none-elf/9.2.0/../../../../aarch64-none-elf/lib/pic\libg.a(lib_a-freer.o)
 .text          0x0000000000000000        0x0 c:/devkitpro/devkita64/bin/../lib/gcc/aarch64-none-elf/9.2.0/../../../../aarch64-none-elf/lib/pic\libg.a(lib_a-getenv_r.o)
 .data          0x0000000000000000        0x0 c:/devkitpro/devkita64/bin/../lib/gcc/aarch64-none-elf/9.2.0/../../../../aarch64-none-elf/lib/pic\libg.a(lib_a-getenv_r.o)
 .bss           0x0000000000000000        0x0 c:/devkitpro/devkita64/bin/../lib/gcc/aarch64-none-elf/9.2.0/../../../../aarch64-none-elf/lib/pic\libg.a(lib_a-getenv_r.o)
 .comment       0x0000000000000000       0x23 c:/devkitpro/devkita64/bin/../lib/gcc/aarch64-none-elf/9.2.0/../../../../aarch64-none-elf/lib/pic\libg.a(lib_a-getenv_r.o)
 .text          0x0000000000000000        0x0 c:/devkitpro/devkita64/bin/../lib/gcc/aarch64-none-elf/9.2.0/../../../../aarch64-none-elf/lib/pic\libg.a(lib_a-reallocr.o)
 .data          0x0000000000000000        0x0 c:/devkitpro/devkita64/bin/../lib/gcc/aarch64-none-elf/9.2.0/../../../../aarch64-none-elf/lib/pic\libg.a(lib_a-reallocr.o)
 .bss           0x0000000000000000        0x0 c:/devkitpro/devkita64/bin/../lib/gcc/aarch64-none-elf/9.2.0/../../../../aarch64-none-elf/lib/pic\libg.a(lib_a-reallocr.o)
 .comment       0x0000000000000000       0x23 c:/devkitpro/devkita64/bin/../lib/gcc/aarch64-none-elf/9.2.0/../../../../aarch64-none-elf/lib/pic\libg.a(lib_a-reallocr.o)
 .text          0x0000000000000000        0x0 c:/devkitpro/devkita64/bin/../lib/gcc/aarch64-none-elf/9.2.0/../../../../aarch64-none-elf/lib/pic\libg.a(lib_a-svfprintf.o)
 .data          0x0000000000000000        0x0 c:/devkitpro/devkita64/bin/../lib/gcc/aarch64-none-elf/9.2.0/../../../../aarch64-none-elf/lib/pic\libg.a(lib_a-svfprintf.o)
 .bss           0x0000000000000000        0x0 c:/devkitpro/devkita64/bin/../lib/gcc/aarch64-none-elf/9.2.0/../../../../aarch64-none-elf/lib/pic\libg.a(lib_a-svfprintf.o)
 .comment       0x0000000000000000       0x23 c:/devkitpro/devkita64/bin/../lib/gcc/aarch64-none-elf/9.2.0/../../../../aarch64-none-elf/lib/pic\libg.a(lib_a-svfprintf.o)
 .text          0x0000000000000000        0x0 c:/devkitpro/devkita64/bin/../lib/gcc/aarch64-none-elf/9.2.0/../../../../aarch64-none-elf/lib/pic\libg.a(lib_a-wcrtomb.o)
 .data          0x0000000000000000        0x0 c:/devkitpro/devkita64/bin/../lib/gcc/aarch64-none-elf/9.2.0/../../../../aarch64-none-elf/lib/pic\libg.a(lib_a-wcrtomb.o)
 .bss           0x0000000000000000        0x0 c:/devkitpro/devkita64/bin/../lib/gcc/aarch64-none-elf/9.2.0/../../../../aarch64-none-elf/lib/pic\libg.a(lib_a-wcrtomb.o)
 .comment       0x0000000000000000       0x23 c:/devkitpro/devkita64/bin/../lib/gcc/aarch64-none-elf/9.2.0/../../../../aarch64-none-elf/lib/pic\libg.a(lib_a-wcrtomb.o)
 .text          0x0000000000000000        0x0 c:/devkitpro/devkita64/bin/../lib/gcc/aarch64-none-elf/9.2.0/../../../../aarch64-none-elf/lib/pic\libg.a(lib_a-wcsrtombs.o)
 .data          0x0000000000000000        0x0 c:/devkitpro/devkita64/bin/../lib/gcc/aarch64-none-elf/9.2.0/../../../../aarch64-none-elf/lib/pic\libg.a(lib_a-wcsrtombs.o)
 .bss           0x0000000000000000        0x0 c:/devkitpro/devkita64/bin/../lib/gcc/aarch64-none-elf/9.2.0/../../../../aarch64-none-elf/lib/pic\libg.a(lib_a-wcsrtombs.o)
 .comment       0x0000000000000000       0x23 c:/devkitpro/devkita64/bin/../lib/gcc/aarch64-none-elf/9.2.0/../../../../aarch64-none-elf/lib/pic\libg.a(lib_a-wcsrtombs.o)
 .text          0x0000000000000000        0x0 c:/devkitpro/devkita64/bin/../lib/gcc/aarch64-none-elf/9.2.0/../../../../aarch64-none-elf/lib/pic\libg.a(lib_a-dtoa.o)
 .data          0x0000000000000000        0x0 c:/devkitpro/devkita64/bin/../lib/gcc/aarch64-none-elf/9.2.0/../../../../aarch64-none-elf/lib/pic\libg.a(lib_a-dtoa.o)
 .bss           0x0000000000000000        0x0 c:/devkitpro/devkita64/bin/../lib/gcc/aarch64-none-elf/9.2.0/../../../../aarch64-none-elf/lib/pic\libg.a(lib_a-dtoa.o)
 .comment       0x0000000000000000       0x23 c:/devkitpro/devkita64/bin/../lib/gcc/aarch64-none-elf/9.2.0/../../../../aarch64-none-elf/lib/pic\libg.a(lib_a-dtoa.o)
 .text          0x0000000000000000        0x0 c:/devkitpro/devkita64/bin/../lib/gcc/aarch64-none-elf/9.2.0/../../../../aarch64-none-elf/lib/pic\libg.a(lib_a-localeconv.o)
 .data          0x0000000000000000        0x0 c:/devkitpro/devkita64/bin/../lib/gcc/aarch64-none-elf/9.2.0/../../../../aarch64-none-elf/lib/pic\libg.a(lib_a-localeconv.o)
 .bss           0x0000000000000000        0x0 c:/devkitpro/devkita64/bin/../lib/gcc/aarch64-none-elf/9.2.0/../../../../aarch64-none-elf/lib/pic\libg.a(lib_a-localeconv.o)
 .comment       0x0000000000000000       0x23 c:/devkitpro/devkita64/bin/../lib/gcc/aarch64-none-elf/9.2.0/../../../../aarch64-none-elf/lib/pic\libg.a(lib_a-localeconv.o)
 .text          0x0000000000000000        0x0 c:/devkitpro/devkita64/bin/../lib/gcc/aarch64-none-elf/9.2.0/../../../../aarch64-none-elf/lib/pic\libg.a(lib_a-locale.o)
 .data          0x0000000000000000        0x0 c:/devkitpro/devkita64/bin/../lib/gcc/aarch64-none-elf/9.2.0/../../../../aarch64-none-elf/lib/pic\libg.a(lib_a-locale.o)
 .bss           0x0000000000000000        0x0 c:/devkitpro/devkita64/bin/../lib/gcc/aarch64-none-elf/9.2.0/../../../../aarch64-none-elf/lib/pic\libg.a(lib_a-locale.o)
 .comment       0x0000000000000000       0x23 c:/devkitpro/devkita64/bin/../lib/gcc/aarch64-none-elf/9.2.0/../../../../aarch64-none-elf/lib/pic\libg.a(lib_a-locale.o)
 .text          0x0000000000000000        0x0 c:/devkitpro/devkita64/bin/../lib/gcc/aarch64-none-elf/9.2.0/../../../../aarch64-none-elf/lib/pic\libg.a(lib_a-mbtowc_r.o)
 .data          0x0000000000000000        0x0 c:/devkitpro/devkita64/bin/../lib/gcc/aarch64-none-elf/9.2.0/../../../../aarch64-none-elf/lib/pic\libg.a(lib_a-mbtowc_r.o)
 .bss           0x0000000000000000        0x0 c:/devkitpro/devkita64/bin/../lib/gcc/aarch64-none-elf/9.2.0/../../../../aarch64-none-elf/lib/pic\libg.a(lib_a-mbtowc_r.o)
 .comment       0x0000000000000000       0x23 c:/devkitpro/devkita64/bin/../lib/gcc/aarch64-none-elf/9.2.0/../../../../aarch64-none-elf/lib/pic\libg.a(lib_a-mbtowc_r.o)
 .data          0x0000000000000000        0x0 c:/devkitpro/devkita64/bin/../lib/gcc/aarch64-none-elf/9.2.0/../../../../aarch64-none-elf/lib/pic\libg.a(lib_a-memchr.o)
 .bss           0x0000000000000000        0x0 c:/devkitpro/devkita64/bin/../lib/gcc/aarch64-none-elf/9.2.0/../../../../aarch64-none-elf/lib/pic\libg.a(lib_a-memchr.o)
 .data          0x0000000000000000        0x0 c:/devkitpro/devkita64/bin/../lib/gcc/aarch64-none-elf/9.2.0/../../../../aarch64-none-elf/lib/pic\libg.a(lib_a-memmove.o)
 .bss           0x0000000000000000        0x0 c:/devkitpro/devkita64/bin/../lib/gcc/aarch64-none-elf/9.2.0/../../../../aarch64-none-elf/lib/pic\libg.a(lib_a-memmove.o)
 .text          0x0000000000000000        0x0 c:/devkitpro/devkita64/bin/../lib/gcc/aarch64-none-elf/9.2.0/../../../../aarch64-none-elf/lib/pic\libg.a(lib_a-mprec.o)
 .data          0x0000000000000000        0x0 c:/devkitpro/devkita64/bin/../lib/gcc/aarch64-none-elf/9.2.0/../../../../aarch64-none-elf/lib/pic\libg.a(lib_a-mprec.o)
 .bss           0x0000000000000000        0x0 c:/devkitpro/devkita64/bin/../lib/gcc/aarch64-none-elf/9.2.0/../../../../aarch64-none-elf/lib/pic\libg.a(lib_a-mprec.o)
 .comment       0x0000000000000000       0x23 c:/devkitpro/devkita64/bin/../lib/gcc/aarch64-none-elf/9.2.0/../../../../aarch64-none-elf/lib/pic\libg.a(lib_a-mprec.o)
 .text          0x0000000000000000        0x0 c:/devkitpro/devkita64/bin/../lib/gcc/aarch64-none-elf/9.2.0/../../../../aarch64-none-elf/lib/pic\libg.a(lib_a-s_frexp.o)
 .data          0x0000000000000000        0x0 c:/devkitpro/devkita64/bin/../lib/gcc/aarch64-none-elf/9.2.0/../../../../aarch64-none-elf/lib/pic\libg.a(lib_a-s_frexp.o)
 .bss           0x0000000000000000        0x0 c:/devkitpro/devkita64/bin/../lib/gcc/aarch64-none-elf/9.2.0/../../../../aarch64-none-elf/lib/pic\libg.a(lib_a-s_frexp.o)
 .comment       0x0000000000000000       0x23 c:/devkitpro/devkita64/bin/../lib/gcc/aarch64-none-elf/9.2.0/../../../../aarch64-none-elf/lib/pic\libg.a(lib_a-s_frexp.o)
 .text          0x0000000000000000        0x0 c:/devkitpro/devkita64/bin/../lib/gcc/aarch64-none-elf/9.2.0/../../../../aarch64-none-elf/lib/pic\libg.a(lib_a-strcasecmp.o)
 .data          0x0000000000000000        0x0 c:/devkitpro/devkita64/bin/../lib/gcc/aarch64-none-elf/9.2.0/../../../../aarch64-none-elf/lib/pic\libg.a(lib_a-strcasecmp.o)
 .bss           0x0000000000000000        0x0 c:/devkitpro/devkita64/bin/../lib/gcc/aarch64-none-elf/9.2.0/../../../../aarch64-none-elf/lib/pic\libg.a(lib_a-strcasecmp.o)
 .comment       0x0000000000000000       0x23 c:/devkitpro/devkita64/bin/../lib/gcc/aarch64-none-elf/9.2.0/../../../../aarch64-none-elf/lib/pic\libg.a(lib_a-strcasecmp.o)
 .text          0x0000000000000000        0x0 c:/devkitpro/devkita64/bin/../lib/gcc/aarch64-none-elf/9.2.0/../../../../aarch64-none-elf/lib/pic\libg.a(lib_a-strcat.o)
 .data          0x0000000000000000        0x0 c:/devkitpro/devkita64/bin/../lib/gcc/aarch64-none-elf/9.2.0/../../../../aarch64-none-elf/lib/pic\libg.a(lib_a-strcat.o)
 .bss           0x0000000000000000        0x0 c:/devkitpro/devkita64/bin/../lib/gcc/aarch64-none-elf/9.2.0/../../../../aarch64-none-elf/lib/pic\libg.a(lib_a-strcat.o)
 .comment       0x0000000000000000       0x23 c:/devkitpro/devkita64/bin/../lib/gcc/aarch64-none-elf/9.2.0/../../../../aarch64-none-elf/lib/pic\libg.a(lib_a-strcat.o)
 .data          0x0000000000000000        0x0 c:/devkitpro/devkita64/bin/../lib/gcc/aarch64-none-elf/9.2.0/../../../../aarch64-none-elf/lib/pic\libg.a(lib_a-strcmp.o)
 .bss           0x0000000000000000        0x0 c:/devkitpro/devkita64/bin/../lib/gcc/aarch64-none-elf/9.2.0/../../../../aarch64-none-elf/lib/pic\libg.a(lib_a-strcmp.o)
 .text          0x0000000000000000        0x0 c:/devkitpro/devkita64/bin/../lib/gcc/aarch64-none-elf/9.2.0/../../../../aarch64-none-elf/lib/pic\libg.a(lib_a-strlcpy.o)
 .data          0x0000000000000000        0x0 c:/devkitpro/devkita64/bin/../lib/gcc/aarch64-none-elf/9.2.0/../../../../aarch64-none-elf/lib/pic\libg.a(lib_a-strlcpy.o)
 .bss           0x0000000000000000        0x0 c:/devkitpro/devkita64/bin/../lib/gcc/aarch64-none-elf/9.2.0/../../../../aarch64-none-elf/lib/pic\libg.a(lib_a-strlcpy.o)
 .comment       0x0000000000000000       0x23 c:/devkitpro/devkita64/bin/../lib/gcc/aarch64-none-elf/9.2.0/../../../../aarch64-none-elf/lib/pic\libg.a(lib_a-strlcpy.o)
 .text          0x0000000000000000        0x0 c:/devkitpro/devkita64/bin/../lib/gcc/aarch64-none-elf/9.2.0/../../../../aarch64-none-elf/lib/pic\libg.a(lib_a-strncasecmp.o)
 .data          0x0000000000000000        0x0 c:/devkitpro/devkita64/bin/../lib/gcc/aarch64-none-elf/9.2.0/../../../../aarch64-none-elf/lib/pic\libg.a(lib_a-strncasecmp.o)
 .bss           0x0000000000000000        0x0 c:/devkitpro/devkita64/bin/../lib/gcc/aarch64-none-elf/9.2.0/../../../../aarch64-none-elf/lib/pic\libg.a(lib_a-strncasecmp.o)
 .comment       0x0000000000000000       0x23 c:/devkitpro/devkita64/bin/../lib/gcc/aarch64-none-elf/9.2.0/../../../../aarch64-none-elf/lib/pic\libg.a(lib_a-strncasecmp.o)
 .text          0x0000000000000000        0x0 c:/devkitpro/devkita64/bin/../lib/gcc/aarch64-none-elf/9.2.0/../../../../aarch64-none-elf/lib/pic\libg.a(lib_a-strtol.o)
 .data          0x0000000000000000        0x0 c:/devkitpro/devkita64/bin/../lib/gcc/aarch64-none-elf/9.2.0/../../../../aarch64-none-elf/lib/pic\libg.a(lib_a-strtol.o)
 .bss           0x0000000000000000        0x0 c:/devkitpro/devkita64/bin/../lib/gcc/aarch64-none-elf/9.2.0/../../../../aarch64-none-elf/lib/pic\libg.a(lib_a-strtol.o)
 .comment       0x0000000000000000       0x23 c:/devkitpro/devkita64/bin/../lib/gcc/aarch64-none-elf/9.2.0/../../../../aarch64-none-elf/lib/pic\libg.a(lib_a-strtol.o)
 .text          0x0000000000000000        0x0 c:/devkitpro/devkita64/bin/../lib/gcc/aarch64-none-elf/9.2.0/../../../../aarch64-none-elf/lib/pic\libg.a(lib_a-svfiprintf.o)
 .data          0x0000000000000000        0x0 c:/devkitpro/devkita64/bin/../lib/gcc/aarch64-none-elf/9.2.0/../../../../aarch64-none-elf/lib/pic\libg.a(lib_a-svfiprintf.o)
 .bss           0x0000000000000000        0x0 c:/devkitpro/devkita64/bin/../lib/gcc/aarch64-none-elf/9.2.0/../../../../aarch64-none-elf/lib/pic\libg.a(lib_a-svfiprintf.o)
 .comment       0x0000000000000000       0x23 c:/devkitpro/devkita64/bin/../lib/gcc/aarch64-none-elf/9.2.0/../../../../aarch64-none-elf/lib/pic\libg.a(lib_a-svfiprintf.o)
 .text          0x0000000000000000        0x0 c:/devkitpro/devkita64/bin/../lib/gcc/aarch64-none-elf/9.2.0/../../../../aarch64-none-elf/lib/pic\libg.a(lib_a-wcsnrtombs.o)
 .data          0x0000000000000000        0x0 c:/devkitpro/devkita64/bin/../lib/gcc/aarch64-none-elf/9.2.0/../../../../aarch64-none-elf/lib/pic\libg.a(lib_a-wcsnrtombs.o)
 .bss           0x0000000000000000        0x0 c:/devkitpro/devkita64/bin/../lib/gcc/aarch64-none-elf/9.2.0/../../../../aarch64-none-elf/lib/pic\libg.a(lib_a-wcsnrtombs.o)
 .comment       0x0000000000000000       0x23 c:/devkitpro/devkita64/bin/../lib/gcc/aarch64-none-elf/9.2.0/../../../../aarch64-none-elf/lib/pic\libg.a(lib_a-wcsnrtombs.o)
 .text          0x0000000000000000        0x0 c:/devkitpro/devkita64/bin/../lib/gcc/aarch64-none-elf/9.2.0/../../../../aarch64-none-elf/lib/pic\libg.a(lib_a-wctomb_r.o)
 .data          0x0000000000000000        0x0 c:/devkitpro/devkita64/bin/../lib/gcc/aarch64-none-elf/9.2.0/../../../../aarch64-none-elf/lib/pic\libg.a(lib_a-wctomb_r.o)
 .bss           0x0000000000000000        0x0 c:/devkitpro/devkita64/bin/../lib/gcc/aarch64-none-elf/9.2.0/../../../../aarch64-none-elf/lib/pic\libg.a(lib_a-wctomb_r.o)
 .comment       0x0000000000000000       0x23 c:/devkitpro/devkita64/bin/../lib/gcc/aarch64-none-elf/9.2.0/../../../../aarch64-none-elf/lib/pic\libg.a(lib_a-wctomb_r.o)
 .text          0x0000000000000000        0x0 c:/devkitpro/devkita64/bin/../lib/gcc/aarch64-none-elf/9.2.0/../../../../aarch64-none-elf/lib/pic\libg.a(lib_a-callocr.o)
 .data          0x0000000000000000        0x0 c:/devkitpro/devkita64/bin/../lib/gcc/aarch64-none-elf/9.2.0/../../../../aarch64-none-elf/lib/pic\libg.a(lib_a-callocr.o)
 .bss           0x0000000000000000        0x0 c:/devkitpro/devkita64/bin/../lib/gcc/aarch64-none-elf/9.2.0/../../../../aarch64-none-elf/lib/pic\libg.a(lib_a-callocr.o)
 .comment       0x0000000000000000       0x23 c:/devkitpro/devkita64/bin/../lib/gcc/aarch64-none-elf/9.2.0/../../../../aarch64-none-elf/lib/pic\libg.a(lib_a-callocr.o)
 .text          0x0000000000000000        0x0 c:/devkitpro/devkita64/bin/../lib/gcc/aarch64-none-elf/9.2.0/../../../../aarch64-none-elf/lib/pic\libsysbase.a(iosupport.o)
 .data          0x0000000000000000        0x0 c:/devkitpro/devkita64/bin/../lib/gcc/aarch64-none-elf/9.2.0/../../../../aarch64-none-elf/lib/pic\libsysbase.a(iosupport.o)
 .bss           0x0000000000000000        0x0 c:/devkitpro/devkita64/bin/../lib/gcc/aarch64-none-elf/9.2.0/../../../../aarch64-none-elf/lib/pic\libsysbase.a(iosupport.o)
 .comment       0x0000000000000000       0x23 c:/devkitpro/devkita64/bin/../lib/gcc/aarch64-none-elf/9.2.0/../../../../aarch64-none-elf/lib/pic\libsysbase.a(iosupport.o)
 .text          0x0000000000000000        0x0 c:/devkitpro/devkita64/bin/../lib/gcc/aarch64-none-elf/9.2.0/../../../../aarch64-none-elf/lib/pic\libsysbase.a(sbrk.o)
 .data          0x0000000000000000        0x0 c:/devkitpro/devkita64/bin/../lib/gcc/aarch64-none-elf/9.2.0/../../../../aarch64-none-elf/lib/pic\libsysbase.a(sbrk.o)
 .bss           0x0000000000000000        0x0 c:/devkitpro/devkita64/bin/../lib/gcc/aarch64-none-elf/9.2.0/../../../../aarch64-none-elf/lib/pic\libsysbase.a(sbrk.o)
 .comment       0x0000000000000000       0x23 c:/devkitpro/devkita64/bin/../lib/gcc/aarch64-none-elf/9.2.0/../../../../aarch64-none-elf/lib/pic\libsysbase.a(sbrk.o)
 .text          0x0000000000000000        0x0 c:/devkitpro/devkita64/bin/../lib/gcc/aarch64-none-elf/9.2.0/../../../../aarch64-none-elf/lib/pic\libsysbase.a(_exit.o)
 .data          0x0000000000000000        0x0 c:/devkitpro/devkita64/bin/../lib/gcc/aarch64-none-elf/9.2.0/../../../../aarch64-none-elf/lib/pic\libsysbase.a(_exit.o)
 .bss           0x0000000000000000        0x0 c:/devkitpro/devkita64/bin/../lib/gcc/aarch64-none-elf/9.2.0/../../../../aarch64-none-elf/lib/pic\libsysbase.a(_exit.o)
 .comment       0x0000000000000000       0x23 c:/devkitpro/devkita64/bin/../lib/gcc/aarch64-none-elf/9.2.0/../../../../aarch64-none-elf/lib/pic\libsysbase.a(_exit.o)
 .text          0x0000000000000000        0x0 c:/devkitpro/devkita64/bin/../lib/gcc/aarch64-none-elf/9.2.0/../../../../aarch64-none-elf/lib/pic\libsysbase.a(malloc_vars.o)
 .data          0x0000000000000000        0x0 c:/devkitpro/devkita64/bin/../lib/gcc/aarch64-none-elf/9.2.0/../../../../aarch64-none-elf/lib/pic\libsysbase.a(malloc_vars.o)
 .bss           0x0000000000000000        0x0 c:/devkitpro/devkita64/bin/../lib/gcc/aarch64-none-elf/9.2.0/../../../../aarch64-none-elf/lib/pic\libsysbase.a(malloc_vars.o)
 .comment       0x0000000000000000       0x23 c:/devkitpro/devkita64/bin/../lib/gcc/aarch64-none-elf/9.2.0/../../../../aarch64-none-elf/lib/pic\libsysbase.a(malloc_vars.o)
 .text          0x0000000000000000        0x0 c:/devkitpro/devkita64/bin/../lib/gcc/aarch64-none-elf/9.2.0/../../../../aarch64-none-elf/lib/pic\libsysbase.a(chdir.o)
 .data          0x0000000000000000        0x0 c:/devkitpro/devkita64/bin/../lib/gcc/aarch64-none-elf/9.2.0/../../../../aarch64-none-elf/lib/pic\libsysbase.a(chdir.o)
 .bss           0x0000000000000000        0x0 c:/devkitpro/devkita64/bin/../lib/gcc/aarch64-none-elf/9.2.0/../../../../aarch64-none-elf/lib/pic\libsysbase.a(chdir.o)
 .comment       0x0000000000000000       0x23 c:/devkitpro/devkita64/bin/../lib/gcc/aarch64-none-elf/9.2.0/../../../../aarch64-none-elf/lib/pic\libsysbase.a(chdir.o)
 .text          0x0000000000000000        0x0 c:/devkitpro/devkita64/bin/../lib/gcc/aarch64-none-elf/9.2.0/../../../../aarch64-none-elf/lib/pic\libsysbase.a(locks.o)
 .data          0x0000000000000000        0x0 c:/devkitpro/devkita64/bin/../lib/gcc/aarch64-none-elf/9.2.0/../../../../aarch64-none-elf/lib/pic\libsysbase.a(locks.o)
 .bss           0x0000000000000000        0x0 c:/devkitpro/devkita64/bin/../lib/gcc/aarch64-none-elf/9.2.0/../../../../aarch64-none-elf/lib/pic\libsysbase.a(locks.o)
 .comment       0x0000000000000000       0x23 c:/devkitpro/devkita64/bin/../lib/gcc/aarch64-none-elf/9.2.0/../../../../aarch64-none-elf/lib/pic\libsysbase.a(locks.o)
 .text          0x0000000000000000        0x0 c:/devkitpro/devkita64/bin/../lib/gcc/aarch64-none-elf/9.2.0/../../../../aarch64-none-elf/lib/pic\libsysbase.a(getreent.o)
 .data          0x0000000000000000        0x0 c:/devkitpro/devkita64/bin/../lib/gcc/aarch64-none-elf/9.2.0/../../../../aarch64-none-elf/lib/pic\libsysbase.a(getreent.o)
 .bss           0x0000000000000000        0x0 c:/devkitpro/devkita64/bin/../lib/gcc/aarch64-none-elf/9.2.0/../../../../aarch64-none-elf/lib/pic\libsysbase.a(getreent.o)
 .comment       0x0000000000000000       0x23 c:/devkitpro/devkita64/bin/../lib/gcc/aarch64-none-elf/9.2.0/../../../../aarch64-none-elf/lib/pic\libsysbase.a(getreent.o)
 .text          0x0000000000000000        0x0 c:/devkitpro/devkita64/bin/../lib/gcc/aarch64-none-elf/9.2.0/../../../../aarch64-none-elf/lib/pic\libsysbase.a(clocks.o)
 .data          0x0000000000000000        0x0 c:/devkitpro/devkita64/bin/../lib/gcc/aarch64-none-elf/9.2.0/../../../../aarch64-none-elf/lib/pic\libsysbase.a(clocks.o)
 .bss           0x0000000000000000        0x0 c:/devkitpro/devkita64/bin/../lib/gcc/aarch64-none-elf/9.2.0/../../../../aarch64-none-elf/lib/pic\libsysbase.a(clocks.o)
 .comment       0x0000000000000000       0x23 c:/devkitpro/devkita64/bin/../lib/gcc/aarch64-none-elf/9.2.0/../../../../aarch64-none-elf/lib/pic\libsysbase.a(clocks.o)
 .text          0x0000000000000000        0x0 c:/devkitpro/devkita64/bin/../lib/gcc/aarch64-none-elf/9.2.0/pic\libgcc.a(trunctfdf2.o)
 .data          0x0000000000000000        0x0 c:/devkitpro/devkita64/bin/../lib/gcc/aarch64-none-elf/9.2.0/pic\libgcc.a(trunctfdf2.o)
 .bss           0x0000000000000000        0x0 c:/devkitpro/devkita64/bin/../lib/gcc/aarch64-none-elf/9.2.0/pic\libgcc.a(trunctfdf2.o)
 .comment       0x0000000000000000       0x23 c:/devkitpro/devkita64/bin/../lib/gcc/aarch64-none-elf/9.2.0/pic\libgcc.a(trunctfdf2.o)
 .text          0x0000000000000000        0x0 c:/devkitpro/devkita64/bin/../lib/gcc/aarch64-none-elf/9.2.0/pic\libgcc.a(sfp-exceptions.o)
 .data          0x0000000000000000        0x0 c:/devkitpro/devkita64/bin/../lib/gcc/aarch64-none-elf/9.2.0/pic\libgcc.a(sfp-exceptions.o)
 .bss           0x0000000000000000        0x0 c:/devkitpro/devkita64/bin/../lib/gcc/aarch64-none-elf/9.2.0/pic\libgcc.a(sfp-exceptions.o)
 .comment       0x0000000000000000       0x23 c:/devkitpro/devkita64/bin/../lib/gcc/aarch64-none-elf/9.2.0/pic\libgcc.a(sfp-exceptions.o)
 .data          0x0000000000000000        0x0 c:/devkitpro/devkita64/bin/../lib/gcc/aarch64-none-elf/9.2.0/../../../../aarch64-none-elf/lib/pic\libg.a(lib_a-strrchr.o)
 .bss           0x0000000000000000        0x0 c:/devkitpro/devkita64/bin/../lib/gcc/aarch64-none-elf/9.2.0/../../../../aarch64-none-elf/lib/pic\libg.a(lib_a-strrchr.o)
 .text          0x0000000000000000        0x0 c:/devkitpro/devkita64/bin/../lib/gcc/aarch64-none-elf/9.2.0/pic/crtend.o
 .data          0x0000000000000000        0x0 c:/devkitpro/devkita64/bin/../lib/gcc/aarch64-none-elf/9.2.0/pic/crtend.o
 .bss           0x0000000000000000        0x0 c:/devkitpro/devkita64/bin/../lib/gcc/aarch64-none-elf/9.2.0/pic/crtend.o
 .comment       0x0000000000000000       0x23 c:/devkitpro/devkita64/bin/../lib/gcc/aarch64-none-elf/9.2.0/pic/crtend.o
 .text          0x0000000000000000        0x0 c:/devkitpro/devkita64/bin/../lib/gcc/aarch64-none-elf/9.2.0/pic/crtn.o
 .data          0x0000000000000000        0x0 c:/devkitpro/devkita64/bin/../lib/gcc/aarch64-none-elf/9.2.0/pic/crtn.o
 .bss           0x0000000000000000        0x0 c:/devkitpro/devkita64/bin/../lib/gcc/aarch64-none-elf/9.2.0/pic/crtn.o

Memory Configuration

Name             Origin             Length             Attributes
*default*        0x0000000000000000 0xffffffffffffffff

Linker script and memory map

                0x0000000000000000                PROVIDE (__start__ = 0x0)
                0x0000000000000000                . = __start__

.crt0           0x0000000000000000      0x158
 *(.crt0)
 .crt0          0x0000000000000000      0x158 C:/Users/oukeh/OneDrive/桌面/code-mod-example/code-mod-framework/lib/libnx_min/nx/lib\libnx_min.a(switch_crt0.o)
                0x0000000000000000                _start
                0x0000000000000120                __nx_exit
                0x0000000000000130                __nx_mod0
                0x0000000000000158                . = ALIGN (0x8)

.init           0x0000000000000158       0x38
 *(.init)
 .init          0x0000000000000158       0x18 c:/devkitpro/devkita64/bin/../lib/gcc/aarch64-none-elf/9.2.0/pic/crti.o
                0x0000000000000158                _init
 .init          0x0000000000000170       0x1c c:/devkitpro/devkita64/bin/../lib/gcc/aarch64-none-elf/9.2.0/pic/crtn.o
                0x0000000000000190                . = ALIGN (0x8)
 *fill*         0x000000000000018c        0x4 

.plt            0x0000000000000190       0xa0
 *(.plt)
 .plt           0x0000000000000190       0xa0 c:/devkitpro/devkita64/bin/../lib/gcc/aarch64-none-elf/9.2.0/pic/crti.o
 *(.iplt)
                0x0000000000000230                . = ALIGN (0x8)

.text           0x0000000000000240    0x2ae10
 *(.text.unlikely .text.*_unlikely .text.unlikely.*)
 *(.text.exit .text.exit.*)
 .text.exit     0x0000000000000240       0x38 c:/devkitpro/devkita64/bin/../lib/gcc/aarch64-none-elf/9.2.0/../../../../aarch64-none-elf/lib/pic\libg.a(lib_a-exit.o)
                0x0000000000000240                exit
 *(.text.startup .text.startup.*)
 *fill*         0x0000000000000278        0x8 
 .text.startup  0x0000000000000280      0x110 main.o
                0x0000000000000280                main
 *(.text.hot .text.hot.*)
 *(.text .stub .text.* .gnu.linkonce.t.*)
 .text.deregister_tm_clones
                0x0000000000000390       0x30 c:/devkitpro/devkita64/bin/../lib/gcc/aarch64-none-elf/9.2.0/pic/crtbegin.o
 .text.register_tm_clones
                0x00000000000003c0       0x40 c:/devkitpro/devkita64/bin/../lib/gcc/aarch64-none-elf/9.2.0/pic/crtbegin.o
 .text.__do_global_dtors_aux
                0x0000000000000400       0x48 c:/devkitpro/devkita64/bin/../lib/gcc/aarch64-none-elf/9.2.0/pic/crtbegin.o
 .text.frame_dummy
                0x0000000000000448       0x34 c:/devkitpro/devkita64/bin/../lib/gcc/aarch64-none-elf/9.2.0/pic/crtbegin.o
 *fill*         0x000000000000047c        0x4 
 .text          0x0000000000000480     0x1960 main.o
                0x0000000000000480                get_command_flag_cat_replace(unsigned long, int)
                0x0000000000000630                clear_lua_stack_replace(lib::L2CAgent*)
                0x0000000000001c00                replace_scripts(lib::L2CAgent*, unsigned char, int)
                0x0000000000001c50                sv_get_status_func(unsigned long, int, unsigned long)
                0x0000000000001ca0                sv_replace_status_func(unsigned long, int, unsigned long, void*)
                0x0000000000001ce0                script_replacement()
                0x0000000000001d40                __libnx_init
                0x0000000000001d90                __libnx_exit
 .text          0x0000000000001de0      0xbd4 acmd_wrapper.o
                0x0000000000001de0                is_before_frame(unsigned long, float)
                0x0000000000001e10                null_acmd_func(lib::L2CAgent*, void*)
                0x0000000000001e20                load_module(unsigned long, unsigned long)
                0x0000000000001e30                load_module_impl(unsigned long, unsigned long)
                0x0000000000001e40                ACMD::ACMD()
                0x0000000000001e40                ACMD::ACMD()
                0x0000000000001e50                ACMD::ACMD(char const*, char const*, char const*, char const*, void (*)(ACMD*))
                0x0000000000001e50                ACMD::ACMD(char const*, char const*, char const*, char const*, void (*)(ACMD*))
                0x0000000000001e70                ACMD::match()
                0x0000000000001ef0                ACMD::nullify_original(lib::L2CAgent*)
                0x0000000000001fc0                ACMD::run(lib::L2CAgent*)
                0x00000000000020b0                ACMD::frame(float)
                0x00000000000020d0                ACMD::wait(float)
                0x00000000000020e0                ACMD::is_excute()
                0x0000000000002160                ACMD::_frame(float)
                0x00000000000021f0                ACMD::_frame_reimpl(float)
                0x00000000000022e0                ACMD::_wait(float)
                0x0000000000002370                ACMD::_is_excute()
                0x0000000000002410                ACMD::wrap(void (*)(unsigned long), std::initializer_list<lib::L2CValue>)
                0x00000000000024b0                ACMD::ATTACK(unsigned long, unsigned long, unsigned long, float, unsigned long, unsigned long, unsigned long, unsigned long, float, float, float, float, float, float, unsigned long, unsigned long, unsigned long, unsigned long, float, unsigned long, unsigned long, unsigned long, unsigned long, unsigned long, unsigned long, unsigned long, unsigned long, unsigned long, unsigned long, unsigned long, unsigned long, unsigned long, unsigned long)
                0x0000000000002740                ACMD::ATTACK(unsigned long, unsigned long, unsigned long, float, unsigned long, unsigned long, unsigned long, unsigned long, float, float, float, float, float, float, float, float, float, unsigned long, unsigned long, unsigned long, unsigned long, float, unsigned long, unsigned long, unsigned long, unsigned long, unsigned long, unsigned long, unsigned long, unsigned long, unsigned long, unsigned long, unsigned long, unsigned long, unsigned long, unsigned long)
 *fill*         0x00000000000029b4        0xc 
 .text          0x00000000000029c0      0x120 saltysd_helper.o
                0x00000000000029c0                SaltySD_function_replace(unsigned long, unsigned long)
                0x0000000000002a30                SaltySD_function_replace_sym(char*, unsigned long)
                0x0000000000002a60                SaltySD_function_replace_sym_check_prev(char*, unsigned long, unsigned long&)
 .text          0x0000000000002ae0      0x370 lua_bind_hash.o
                0x0000000000002ae0                lua_bind_hash(void const*, unsigned long)
                0x0000000000002e20                lua_bind_hash_str(char const*)
 .text          0x0000000000002e50      0x12c l2c_imports.o
                0x0000000000002e50                lib::lua_const(char const*)
                0x0000000000002e90                lib::L2CValue::L2CValue()
                0x0000000000002e90                lib::L2CValue::L2CValue()
                0x0000000000002ea0                lib::L2CValue::L2CValue(bool)
                0x0000000000002ea0                lib::L2CValue::L2CValue(bool)
                0x0000000000002ec0                lib::L2CValue::L2CValue(int)
                0x0000000000002ec0                lib::L2CValue::L2CValue(int)
                0x0000000000002ee0                lib::L2CValue::L2CValue(unsigned long)
                0x0000000000002ee0                lib::L2CValue::L2CValue(unsigned long)
                0x0000000000002ef0                lib::L2CValue::L2CValue(float)
                0x0000000000002ef0                lib::L2CValue::L2CValue(float)
                0x0000000000002f00                lib::L2CValue::L2CValue(double)
                0x0000000000002f00                lib::L2CValue::L2CValue(double)
                0x0000000000002f20                lib::L2CValue::L2CValue(char const*)
                0x0000000000002f20                lib::L2CValue::L2CValue(char const*)
                0x0000000000002f30                lib::L2CAgent::get_lua_stack(int, lib::L2CValue*)
                0x0000000000002f40                lib::L2CAgent::_clear_lua_stack()
 *fill*         0x0000000000002f7c        0x4 
 .text          0x0000000000002f80      0x4fc raygun_printer.o
                0x0000000000002f80                show_segment(unsigned long, float, float, float, float, float)
                0x0000000000003050                alphabet_index(char)
                0x00000000000030c0                print_char(unsigned long, char, int, float, float)
                0x0000000000003220                print_string(unsigned long, char const*, ...)
 .text.__libnx_exception_entry
                0x000000000000347c      0x1c0 C:/Users/oukeh/OneDrive/桌面/code-mod-example/code-mod-framework/lib/libnx_min/nx/lib\libnx_min.a(exception.o)
                0x000000000000347c                __libnx_exception_entry
 .text.__libnx_exception_returnentry
                0x000000000000363c       0x18 C:/Users/oukeh/OneDrive/桌面/code-mod-example/code-mod-framework/lib/libnx_min/nx/lib\libnx_min.a(exception.o)
                0x000000000000363c                __libnx_exception_returnentry
 *fill*         0x0000000000003654        0xc 
 .text.argvSetup
                0x0000000000003660      0x318 C:/Users/oukeh/OneDrive/桌面/code-mod-example/code-mod-framework/lib/libnx_min/nx/lib\libnx_min.a(argv.o)
                0x0000000000003660                argvSetup
 *fill*         0x0000000000003978        0x8 
 .text.envSetup
                0x0000000000003980      0x208 C:/Users/oukeh/OneDrive/桌面/code-mod-example/code-mod-framework/lib/libnx_min/nx/lib\libnx_min.a(env.o)
                0x0000000000003980                envSetup
 *fill*         0x0000000000003b88        0x8 
 .text.envGetMainThreadHandle
                0x0000000000003b90       0x20 C:/Users/oukeh/OneDrive/桌面/code-mod-example/code-mod-framework/lib/libnx_min/nx/lib\libnx_min.a(env.o)
                0x0000000000003b90                envGetMainThreadHandle
 .text.envIsNso
                0x0000000000003bb0        0xc C:/Users/oukeh/OneDrive/桌面/code-mod-example/code-mod-framework/lib/libnx_min/nx/lib\libnx_min.a(env.o)
                0x0000000000003bb0                envIsNso
 *fill*         0x0000000000003bbc        0x4 
 .text.envHasHeapOverride
                0x0000000000003bc0       0x14 C:/Users/oukeh/OneDrive/桌面/code-mod-example/code-mod-framework/lib/libnx_min/nx/lib\libnx_min.a(env.o)
                0x0000000000003bc0                envHasHeapOverride
 *fill*         0x0000000000003bd4        0xc 
 .text.envGetHeapOverrideAddr
                0x0000000000003be0        0xc C:/Users/oukeh/OneDrive/桌面/code-mod-example/code-mod-framework/lib/libnx_min/nx/lib\libnx_min.a(env.o)
                0x0000000000003be0                envGetHeapOverrideAddr
 *fill*         0x0000000000003bec        0x4 
 .text.envGetHeapOverrideSize
                0x0000000000003bf0        0xc C:/Users/oukeh/OneDrive/桌面/code-mod-example/code-mod-framework/lib/libnx_min/nx/lib\libnx_min.a(env.o)
                0x0000000000003bf0                envGetHeapOverrideSize
 *fill*         0x0000000000003bfc        0x4 
 .text.envHasArgv
                0x0000000000003c00       0x14 C:/Users/oukeh/OneDrive/桌面/code-mod-example/code-mod-framework/lib/libnx_min/nx/lib\libnx_min.a(env.o)
                0x0000000000003c00                envHasArgv
 *fill*         0x0000000000003c14        0xc 
 .text.envGetArgv
                0x0000000000003c20        0xc C:/Users/oukeh/OneDrive/桌面/code-mod-example/code-mod-framework/lib/libnx_min/nx/lib\libnx_min.a(env.o)
                0x0000000000003c20                envGetArgv
 *fill*         0x0000000000003c2c        0x4 
 .text.envIsSyscallHinted
                0x0000000000003c30       0x20 C:/Users/oukeh/OneDrive/桌面/code-mod-example/code-mod-framework/lib/libnx_min/nx/lib\libnx_min.a(env.o)
                0x0000000000003c30                envIsSyscallHinted
 .text.envGetOwnProcessHandle
                0x0000000000003c50        0xc C:/Users/oukeh/OneDrive/桌面/code-mod-example/code-mod-framework/lib/libnx_min/nx/lib\libnx_min.a(env.o)
                0x0000000000003c50                envGetOwnProcessHandle
 *fill*         0x0000000000003c5c        0x4 
 .text.envGetExitFuncPtr
                0x0000000000003c60        0xc C:/Users/oukeh/OneDrive/桌面/code-mod-example/code-mod-framework/lib/libnx_min/nx/lib\libnx_min.a(env.o)
                0x0000000000003c60                envGetExitFuncPtr
 *fill*         0x0000000000003c6c        0x4 
 .text.envSetExitFuncPtr
                0x0000000000003c70        0xc C:/Users/oukeh/OneDrive/桌面/code-mod-example/code-mod-framework/lib/libnx_min/nx/lib\libnx_min.a(env.o)
                0x0000000000003c70                envSetExitFuncPtr
 *fill*         0x0000000000003c7c        0x4 
 .text.envSetNextLoad
                0x0000000000003c80       0x7c C:/Users/oukeh/OneDrive/桌面/code-mod-example/code-mod-framework/lib/libnx_min/nx/lib\libnx_min.a(env.o)
                0x0000000000003c80                envSetNextLoad
 *fill*         0x0000000000003cfc        0x4 
 .text.envHasNextLoad
                0x0000000000003d00       0x14 C:/Users/oukeh/OneDrive/桌面/code-mod-example/code-mod-framework/lib/libnx_min/nx/lib\libnx_min.a(env.o)
                0x0000000000003d00                envHasNextLoad
 *fill*         0x0000000000003d14        0xc 
 .text.envGetLastLoadResult
                0x0000000000003d20        0xc C:/Users/oukeh/OneDrive/桌面/code-mod-example/code-mod-framework/lib/libnx_min/nx/lib\libnx_min.a(env.o)
                0x0000000000003d20                envGetLastLoadResult
 *fill*         0x0000000000003d2c        0x4 
 .text.envHasRandomSeed
                0x0000000000003d30        0xc C:/Users/oukeh/OneDrive/桌面/code-mod-example/code-mod-framework/lib/libnx_min/nx/lib\libnx_min.a(env.o)
                0x0000000000003d30                envHasRandomSeed
 *fill*         0x0000000000003d3c        0x4 
 .text.envGetRandomSeed
                0x0000000000003d40       0x18 C:/Users/oukeh/OneDrive/桌面/code-mod-example/code-mod-framework/lib/libnx_min/nx/lib\libnx_min.a(env.o)
                0x0000000000003d40                envGetRandomSeed
 *fill*         0x0000000000003d58        0x8 
 .text.__libnx_initheap
                0x0000000000003d60       0xd8 C:/Users/oukeh/OneDrive/桌面/code-mod-example/code-mod-framework/lib/libnx_min/nx/lib\libnx_min.a(init.o)
                0x0000000000003d60                __libnx_initheap
 *fill*         0x0000000000003e38        0x8 
 .text.__appInit
                0x0000000000003e40       0xdc C:/Users/oukeh/OneDrive/桌面/code-mod-example/code-mod-framework/lib/libnx_min/nx/lib\libnx_min.a(init.o)
                0x0000000000003e40                __appInit
 *fill*         0x0000000000003f1c        0x4 
 .text.__appExit
                0x0000000000003f20       0x44 C:/Users/oukeh/OneDrive/桌面/code-mod-example/code-mod-framework/lib/libnx_min/nx/lib\libnx_min.a(init.o)
                0x0000000000003f20                __appExit
 *fill*         0x0000000000003f64        0xc 
 .text.hosversionGet
                0x0000000000003f70       0x10 C:/Users/oukeh/OneDrive/桌面/code-mod-example/code-mod-framework/lib/libnx_min/nx/lib\libnx_min.a(hosversion.o)
                0x0000000000003f70                hosversionGet
 .text.hosversionSet
                0x0000000000003f80       0x10 C:/Users/oukeh/OneDrive/桌面/code-mod-example/code-mod-framework/lib/libnx_min/nx/lib\libnx_min.a(hosversion.o)
                0x0000000000003f80                hosversionSet
 .text.__nx_dynamic
                0x0000000000003f90       0xa0 C:/Users/oukeh/OneDrive/桌面/code-mod-example/code-mod-framework/lib/libnx_min/nx/lib\libnx_min.a(dynamic.o)
                0x0000000000003f90                __nx_dynamic
 .text.fsdev_link
                0x0000000000004030       0x10 C:/Users/oukeh/OneDrive/桌面/code-mod-example/code-mod-framework/lib/libnx_min/nx/lib\libnx_min.a(fs_dev.o)
 .text.fsdev_dirreset
                0x0000000000004040       0x10 C:/Users/oukeh/OneDrive/桌面/code-mod-example/code-mod-framework/lib/libnx_min/nx/lib\libnx_min.a(fs_dev.o)
 .text.fsdev_chmod
                0x0000000000004050       0x10 C:/Users/oukeh/OneDrive/桌面/code-mod-example/code-mod-framework/lib/libnx_min/nx/lib\libnx_min.a(fs_dev.o)
 .text.error_cmp
                0x0000000000004060       0x1c C:/Users/oukeh/OneDrive/桌面/code-mod-example/code-mod-framework/lib/libnx_min/nx/lib\libnx_min.a(fs_dev.o)
 *fill*         0x000000000000407c        0x4 
 .text.fsdev_translate_error
                0x0000000000004080       0x5c C:/Users/oukeh/OneDrive/桌面/code-mod-example/code-mod-framework/lib/libnx_min/nx/lib\libnx_min.a(fs_dev.o)
 *fill*         0x00000000000040dc        0x4 
 .text.fsdev_fsync
                0x00000000000040e0       0x40 C:/Users/oukeh/OneDrive/桌面/code-mod-example/code-mod-framework/lib/libnx_min/nx/lib\libnx_min.a(fs_dev.o)
 .text.fsdev_ftruncate
                0x0000000000004120       0x60 C:/Users/oukeh/OneDrive/桌面/code-mod-example/code-mod-framework/lib/libnx_min/nx/lib\libnx_min.a(fs_dev.o)
 .text.fsdev_dirclose
                0x0000000000004180       0x20 C:/Users/oukeh/OneDrive/桌面/code-mod-example/code-mod-framework/lib/libnx_min/nx/lib\libnx_min.a(fs_dev.o)
 .text.fsdev_dirnext
                0x00000000000041a0      0x16c C:/Users/oukeh/OneDrive/桌面/code-mod-example/code-mod-framework/lib/libnx_min/nx/lib\libnx_min.a(fs_dev.o)
 *fill*         0x000000000000430c        0x4 
 .text.fsdev_close
                0x0000000000004310       0x1c C:/Users/oukeh/OneDrive/桌面/code-mod-example/code-mod-framework/lib/libnx_min/nx/lib\libnx_min.a(fs_dev.o)
 *fill*         0x000000000000432c        0x4 
 .text.fsdev_fstat
                0x0000000000004330       0xa4 C:/Users/oukeh/OneDrive/桌面/code-mod-example/code-mod-framework/lib/libnx_min/nx/lib\libnx_min.a(fs_dev.o)
 *fill*         0x00000000000043d4        0xc 
 .text.fsdev_seek
                0x00000000000043e0       0xb0 C:/Users/oukeh/OneDrive/桌面/code-mod-example/code-mod-framework/lib/libnx_min/nx/lib\libnx_min.a(fs_dev.o)
 .text.fsdev_read
                0x0000000000004490      0x1a0 C:/Users/oukeh/OneDrive/桌面/code-mod-example/code-mod-framework/lib/libnx_min/nx/lib\libnx_min.a(fs_dev.o)
 .text.fsdev_write
                0x0000000000004630      0x1a8 C:/Users/oukeh/OneDrive/桌面/code-mod-example/code-mod-framework/lib/libnx_min/nx/lib\libnx_min.a(fs_dev.o)
 *fill*         0x00000000000047d8        0x8 
 .text.fsdevFindDevice
                0x00000000000047e0      0x120 C:/Users/oukeh/OneDrive/桌面/code-mod-example/code-mod-framework/lib/libnx_min/nx/lib\libnx_min.a(fs_dev.o)
 .text._fsdevMountDevice
                0x0000000000004900      0x140 C:/Users/oukeh/OneDrive/桌面/code-mod-example/code-mod-framework/lib/libnx_min/nx/lib\libnx_min.a(fs_dev.o)
 .text.fsdev_getfspath
                0x0000000000004a40      0x1fc C:/Users/oukeh/OneDrive/桌面/code-mod-example/code-mod-framework/lib/libnx_min/nx/lib\libnx_min.a(fs_dev.o)
 *fill*         0x0000000000004c3c        0x4 
 .text.fsdev_rmdir
                0x0000000000004c40       0x70 C:/Users/oukeh/OneDrive/桌面/code-mod-example/code-mod-framework/lib/libnx_min/nx/lib\libnx_min.a(fs_dev.o)
 .text.fsdev_statvfs
                0x0000000000004cb0       0xd4 C:/Users/oukeh/OneDrive/桌面/code-mod-example/code-mod-framework/lib/libnx_min/nx/lib\libnx_min.a(fs_dev.o)
 *fill*         0x0000000000004d84        0xc 
 .text.fsdev_diropen
                0x0000000000004d90       0xec C:/Users/oukeh/OneDrive/桌面/code-mod-example/code-mod-framework/lib/libnx_min/nx/lib\libnx_min.a(fs_dev.o)
 *fill*         0x0000000000004e7c        0x4 
 .text.fsdev_mkdir
                0x0000000000004e80       0x70 C:/Users/oukeh/OneDrive/桌面/code-mod-example/code-mod-framework/lib/libnx_min/nx/lib\libnx_min.a(fs_dev.o)
 .text.fsdev_rename
                0x0000000000004ef0      0x114 C:/Users/oukeh/OneDrive/桌面/code-mod-example/code-mod-framework/lib/libnx_min/nx/lib\libnx_min.a(fs_dev.o)
 *fill*         0x0000000000005004        0xc 
 .text.fsdev_chdir
                0x0000000000005010       0xe8 C:/Users/oukeh/OneDrive/桌面/code-mod-example/code-mod-framework/lib/libnx_min/nx/lib\libnx_min.a(fs_dev.o)
 *fill*         0x00000000000050f8        0x8 
 .text.fsdev_unlink
                0x0000000000005100       0x70 C:/Users/oukeh/OneDrive/桌面/code-mod-example/code-mod-framework/lib/libnx_min/nx/lib\libnx_min.a(fs_dev.o)
 .text.fsdev_stat
                0x0000000000005170      0x1bc C:/Users/oukeh/OneDrive/桌面/code-mod-example/code-mod-framework/lib/libnx_min/nx/lib\libnx_min.a(fs_dev.o)
 *fill*         0x000000000000532c        0x4 
 .text.fsdev_open
                0x0000000000005330      0x19c C:/Users/oukeh/OneDrive/桌面/code-mod-example/code-mod-framework/lib/libnx_min/nx/lib\libnx_min.a(fs_dev.o)
 *fill*         0x00000000000054cc        0x4 
 .text._fsdevUnmountDeviceStruct.part.4
                0x00000000000054d0       0xb8 C:/Users/oukeh/OneDrive/桌面/code-mod-example/code-mod-framework/lib/libnx_min/nx/lib\libnx_min.a(fs_dev.o)
 *fill*         0x0000000000005588        0x8 
 .text.fsdev_fchmod
                0x0000000000005590       0x10 C:/Users/oukeh/OneDrive/桌面/code-mod-example/code-mod-framework/lib/libnx_min/nx/lib\libnx_min.a(fs_dev.o)
 .text.fsdevMountDevice
                0x00000000000055a0       0x14 C:/Users/oukeh/OneDrive/桌面/code-mod-example/code-mod-framework/lib/libnx_min/nx/lib\libnx_min.a(fs_dev.o)
                0x00000000000055a0                fsdevMountDevice
 *fill*         0x00000000000055b4        0xc 
 .text.fsdevUnmountDevice
                0x00000000000055c0       0x3c C:/Users/oukeh/OneDrive/桌面/code-mod-example/code-mod-framework/lib/libnx_min/nx/lib\libnx_min.a(fs_dev.o)
                0x00000000000055c0                fsdevUnmountDevice
 *fill*         0x00000000000055fc        0x4 
 .text.fsdevCommitDevice
                0x0000000000005600       0x28 C:/Users/oukeh/OneDrive/桌面/code-mod-example/code-mod-framework/lib/libnx_min/nx/lib\libnx_min.a(fs_dev.o)
                0x0000000000005600                fsdevCommitDevice
 *fill*         0x0000000000005628        0x8 
 .text.fsdevSetArchiveBit
                0x0000000000005630       0x68 C:/Users/oukeh/OneDrive/桌面/code-mod-example/code-mod-framework/lib/libnx_min/nx/lib\libnx_min.a(fs_dev.o)
                0x0000000000005630                fsdevSetArchiveBit
 *fill*         0x0000000000005698        0x8 
 .text.fsdevCreateFile
                0x00000000000056a0       0x88 C:/Users/oukeh/OneDrive/桌面/code-mod-example/code-mod-framework/lib/libnx_min/nx/lib\libnx_min.a(fs_dev.o)
                0x00000000000056a0                fsdevCreateFile
 *fill*         0x0000000000005728        0x8 
 .text.fsdevDeleteDirectoryRecursively
                0x0000000000005730       0x68 C:/Users/oukeh/OneDrive/桌面/code-mod-example/code-mod-framework/lib/libnx_min/nx/lib\libnx_min.a(fs_dev.o)
                0x0000000000005730                fsdevDeleteDirectoryRecursively
 *fill*         0x0000000000005798        0x8 
 .text.fsdevMountSdmc
                0x00000000000057a0      0x170 C:/Users/oukeh/OneDrive/桌面/code-mod-example/code-mod-framework/lib/libnx_min/nx/lib\libnx_min.a(fs_dev.o)
                0x00000000000057a0                fsdevMountSdmc
 .text.fsdevUnmountAll
                0x0000000000005910       0x64 C:/Users/oukeh/OneDrive/桌面/code-mod-example/code-mod-framework/lib/libnx_min/nx/lib\libnx_min.a(fs_dev.o)
                0x0000000000005910                fsdevUnmountAll
 *fill*         0x0000000000005974        0xc 
 .text.fsdevGetDeviceFileSystem
                0x0000000000005980       0x20 C:/Users/oukeh/OneDrive/桌面/code-mod-example/code-mod-framework/lib/libnx_min/nx/lib\libnx_min.a(fs_dev.o)
                0x0000000000005980                fsdevGetDeviceFileSystem
 .text.fsdevGetDefaultFileSystem
                0x00000000000059a0       0x40 C:/Users/oukeh/OneDrive/桌面/code-mod-example/code-mod-framework/lib/libnx_min/nx/lib\libnx_min.a(fs_dev.o)
                0x00000000000059a0                fsdevGetDefaultFileSystem
 .text.fsdevTranslatePath
                0x00000000000059e0       0x58 C:/Users/oukeh/OneDrive/桌面/code-mod-example/code-mod-framework/lib/libnx_min/nx/lib\libnx_min.a(fs_dev.o)
                0x00000000000059e0                fsdevTranslatePath
 *fill*         0x0000000000005a38        0x8 
 .text.fsdev_getmtime
                0x0000000000005a40       0x20 C:/Users/oukeh/OneDrive/桌面/code-mod-example/code-mod-framework/lib/libnx_min/nx/lib\libnx_min.a(fs_dev.o)
                0x0000000000005a40                fsdev_getmtime
 .text.fsdevGetLastResult
                0x0000000000005a60       0x20 C:/Users/oukeh/OneDrive/桌面/code-mod-example/code-mod-framework/lib/libnx_min/nx/lib\libnx_min.a(fs_dev.o)
                0x0000000000005a60                fsdevGetLastResult
 .text.decode_utf8
                0x0000000000005a80      0x12c C:/Users/oukeh/OneDrive/桌面/code-mod-example/code-mod-framework/lib/libnx_min/nx/lib\libnx_min.a(decode_utf8.o)
                0x0000000000005a80                decode_utf8
 .text.svcSetHeapSize
                0x0000000000005bac       0x14 C:/Users/oukeh/OneDrive/桌面/code-mod-example/code-mod-framework/lib/libnx_min/nx/lib\libnx_min.a(svc.o)
                0x0000000000005bac                svcSetHeapSize
 .text.svcSetMemoryPermission
                0x0000000000005bc0        0x8 C:/Users/oukeh/OneDrive/桌面/code-mod-example/code-mod-framework/lib/libnx_min/nx/lib\libnx_min.a(svc.o)
                0x0000000000005bc0                svcSetMemoryPermission
 .text.svcSetMemoryAttribute
                0x0000000000005bc8        0x8 C:/Users/oukeh/OneDrive/桌面/code-mod-example/code-mod-framework/lib/libnx_min/nx/lib\libnx_min.a(svc.o)
                0x0000000000005bc8                svcSetMemoryAttribute
 .text.svcMapMemory
                0x0000000000005bd0        0x8 C:/Users/oukeh/OneDrive/桌面/code-mod-example/code-mod-framework/lib/libnx_min/nx/lib\libnx_min.a(svc.o)
                0x0000000000005bd0                svcMapMemory
 .text.svcUnmapMemory
                0x0000000000005bd8        0x8 C:/Users/oukeh/OneDrive/桌面/code-mod-example/code-mod-framework/lib/libnx_min/nx/lib\libnx_min.a(svc.o)
                0x0000000000005bd8                svcUnmapMemory
 .text.svcQueryMemory
                0x0000000000005be0       0x14 C:/Users/oukeh/OneDrive/桌面/code-mod-example/code-mod-framework/lib/libnx_min/nx/lib\libnx_min.a(svc.o)
                0x0000000000005be0                svcQueryMemory
 .text.svcExitProcess
                0x0000000000005bf4        0x8 C:/Users/oukeh/OneDrive/桌面/code-mod-example/code-mod-framework/lib/libnx_min/nx/lib\libnx_min.a(svc.o)
                0x0000000000005bf4                svcExitProcess
 .text.svcCreateThread
                0x0000000000005bfc       0x14 C:/Users/oukeh/OneDrive/桌面/code-mod-example/code-mod-framework/lib/libnx_min/nx/lib\libnx_min.a(svc.o)
                0x0000000000005bfc                svcCreateThread
 .text.svcStartThread
                0x0000000000005c10        0x8 C:/Users/oukeh/OneDrive/桌面/code-mod-example/code-mod-framework/lib/libnx_min/nx/lib\libnx_min.a(svc.o)
                0x0000000000005c10                svcStartThread
 .text.svcExitThread
                0x0000000000005c18        0x8 C:/Users/oukeh/OneDrive/桌面/code-mod-example/code-mod-framework/lib/libnx_min/nx/lib\libnx_min.a(svc.o)
                0x0000000000005c18                svcExitThread
 .text.svcSleepThread
                0x0000000000005c20        0x8 C:/Users/oukeh/OneDrive/桌面/code-mod-example/code-mod-framework/lib/libnx_min/nx/lib\libnx_min.a(svc.o)
                0x0000000000005c20                svcSleepThread
 .text.svcGetThreadPriority
                0x0000000000005c28       0x14 C:/Users/oukeh/OneDrive/桌面/code-mod-example/code-mod-framework/lib/libnx_min/nx/lib\libnx_min.a(svc.o)
                0x0000000000005c28                svcGetThreadPriority
 .text.svcSetThreadPriority
                0x0000000000005c3c        0x8 C:/Users/oukeh/OneDrive/桌面/code-mod-example/code-mod-framework/lib/libnx_min/nx/lib\libnx_min.a(svc.o)
                0x0000000000005c3c                svcSetThreadPriority
 .text.svcGetThreadCoreMask
                0x0000000000005c44       0x18 C:/Users/oukeh/OneDrive/桌面/code-mod-example/code-mod-framework/lib/libnx_min/nx/lib\libnx_min.a(svc.o)
                0x0000000000005c44                svcGetThreadCoreMask
 .text.svcSetThreadCoreMask
                0x0000000000005c5c        0x8 C:/Users/oukeh/OneDrive/桌面/code-mod-example/code-mod-framework/lib/libnx_min/nx/lib\libnx_min.a(svc.o)
                0x0000000000005c5c                svcSetThreadCoreMask
 .text.svcGetCurrentProcessorNumber
                0x0000000000005c64        0x8 C:/Users/oukeh/OneDrive/桌面/code-mod-example/code-mod-framework/lib/libnx_min/nx/lib\libnx_min.a(svc.o)
                0x0000000000005c64                svcGetCurrentProcessorNumber
 .text.svcSignalEvent
                0x0000000000005c6c        0x8 C:/Users/oukeh/OneDrive/桌面/code-mod-example/code-mod-framework/lib/libnx_min/nx/lib\libnx_min.a(svc.o)
                0x0000000000005c6c                svcSignalEvent
 .text.svcClearEvent
                0x0000000000005c74        0x8 C:/Users/oukeh/OneDrive/桌面/code-mod-example/code-mod-framework/lib/libnx_min/nx/lib\libnx_min.a(svc.o)
                0x0000000000005c74                svcClearEvent
 .text.svcMapSharedMemory
                0x0000000000005c7c        0x8 C:/Users/oukeh/OneDrive/桌面/code-mod-example/code-mod-framework/lib/libnx_min/nx/lib\libnx_min.a(svc.o)
                0x0000000000005c7c                svcMapSharedMemory
 .text.svcUnmapSharedMemory
                0x0000000000005c84        0x8 C:/Users/oukeh/OneDrive/桌面/code-mod-example/code-mod-framework/lib/libnx_min/nx/lib\libnx_min.a(svc.o)
                0x0000000000005c84                svcUnmapSharedMemory
 .text.svcCreateTransferMemory
                0x0000000000005c8c       0x14 C:/Users/oukeh/OneDrive/桌面/code-mod-example/code-mod-framework/lib/libnx_min/nx/lib\libnx_min.a(svc.o)
                0x0000000000005c8c                svcCreateTransferMemory
 .text.svcCloseHandle
                0x0000000000005ca0        0x8 C:/Users/oukeh/OneDrive/桌面/code-mod-example/code-mod-framework/lib/libnx_min/nx/lib\libnx_min.a(svc.o)
                0x0000000000005ca0                svcCloseHandle
 .text.svcResetSignal
                0x0000000000005ca8        0x8 C:/Users/oukeh/OneDrive/桌面/code-mod-example/code-mod-framework/lib/libnx_min/nx/lib\libnx_min.a(svc.o)
                0x0000000000005ca8                svcResetSignal
 .text.svcWaitSynchronization
                0x0000000000005cb0       0x14 C:/Users/oukeh/OneDrive/桌面/code-mod-example/code-mod-framework/lib/libnx_min/nx/lib\libnx_min.a(svc.o)
                0x0000000000005cb0                svcWaitSynchronization
 .text.svcCancelSynchronization
                0x0000000000005cc4        0x8 C:/Users/oukeh/OneDrive/桌面/code-mod-example/code-mod-framework/lib/libnx_min/nx/lib\libnx_min.a(svc.o)
                0x0000000000005cc4                svcCancelSynchronization
 .text.svcArbitrateLock
                0x0000000000005ccc        0x8 C:/Users/oukeh/OneDrive/桌面/code-mod-example/code-mod-framework/lib/libnx_min/nx/lib\libnx_min.a(svc.o)
                0x0000000000005ccc                svcArbitrateLock
 .text.svcArbitrateUnlock
                0x0000000000005cd4        0x8 C:/Users/oukeh/OneDrive/桌面/code-mod-example/code-mod-framework/lib/libnx_min/nx/lib\libnx_min.a(svc.o)
                0x0000000000005cd4                svcArbitrateUnlock
 .text.svcWaitProcessWideKeyAtomic
                0x0000000000005cdc        0x8 C:/Users/oukeh/OneDrive/桌面/code-mod-example/code-mod-framework/lib/libnx_min/nx/lib\libnx_min.a(svc.o)
                0x0000000000005cdc                svcWaitProcessWideKeyAtomic
 .text.svcSignalProcessWideKey
                0x0000000000005ce4        0x8 C:/Users/oukeh/OneDrive/桌面/code-mod-example/code-mod-framework/lib/libnx_min/nx/lib\libnx_min.a(svc.o)
                0x0000000000005ce4                svcSignalProcessWideKey
 .text.svcGetSystemTick
                0x0000000000005cec        0x8 C:/Users/oukeh/OneDrive/桌面/code-mod-example/code-mod-framework/lib/libnx_min/nx/lib\libnx_min.a(svc.o)
                0x0000000000005cec                svcGetSystemTick
 .text.svcConnectToNamedPort
                0x0000000000005cf4       0x14 C:/Users/oukeh/OneDrive/桌面/code-mod-example/code-mod-framework/lib/libnx_min/nx/lib\libnx_min.a(svc.o)
                0x0000000000005cf4                svcConnectToNamedPort
 .text.svcSendSyncRequest
                0x0000000000005d08        0x8 C:/Users/oukeh/OneDrive/桌面/code-mod-example/code-mod-framework/lib/libnx_min/nx/lib\libnx_min.a(svc.o)
                0x0000000000005d08                svcSendSyncRequest
 .text.svcSendSyncRequestWithUserBuffer
                0x0000000000005d10        0x8 C:/Users/oukeh/OneDrive/桌面/code-mod-example/code-mod-framework/lib/libnx_min/nx/lib\libnx_min.a(svc.o)
                0x0000000000005d10                svcSendSyncRequestWithUserBuffer
 .text.svcSendAsyncRequestWithUserBuffer
                0x0000000000005d18       0x14 C:/Users/oukeh/OneDrive/桌面/code-mod-example/code-mod-framework/lib/libnx_min/nx/lib\libnx_min.a(svc.o)
                0x0000000000005d18                svcSendAsyncRequestWithUserBuffer
 .text.svcGetProcessId
                0x0000000000005d2c       0x14 C:/Users/oukeh/OneDrive/桌面/code-mod-example/code-mod-framework/lib/libnx_min/nx/lib\libnx_min.a(svc.o)
                0x0000000000005d2c                svcGetProcessId
 .text.svcGetThreadId
                0x0000000000005d40       0x14 C:/Users/oukeh/OneDrive/桌面/code-mod-example/code-mod-framework/lib/libnx_min/nx/lib\libnx_min.a(svc.o)
                0x0000000000005d40                svcGetThreadId
 .text.svcBreak
                0x0000000000005d54        0x8 C:/Users/oukeh/OneDrive/桌面/code-mod-example/code-mod-framework/lib/libnx_min/nx/lib\libnx_min.a(svc.o)
                0x0000000000005d54                svcBreak
 .text.svcOutputDebugString
                0x0000000000005d5c        0x8 C:/Users/oukeh/OneDrive/桌面/code-mod-example/code-mod-framework/lib/libnx_min/nx/lib\libnx_min.a(svc.o)
                0x0000000000005d5c                svcOutputDebugString
 .text.svcReturnFromException
                0x0000000000005d64        0x8 C:/Users/oukeh/OneDrive/桌面/code-mod-example/code-mod-framework/lib/libnx_min/nx/lib\libnx_min.a(svc.o)
                0x0000000000005d64                svcReturnFromException
 .text.svcGetInfo
                0x0000000000005d6c       0x14 C:/Users/oukeh/OneDrive/桌面/code-mod-example/code-mod-framework/lib/libnx_min/nx/lib\libnx_min.a(svc.o)
                0x0000000000005d6c                svcGetInfo
 .text.svcMapPhysicalMemory
                0x0000000000005d80        0x8 C:/Users/oukeh/OneDrive/桌面/code-mod-example/code-mod-framework/lib/libnx_min/nx/lib\libnx_min.a(svc.o)
                0x0000000000005d80                svcMapPhysicalMemory
 .text.svcUnmapPhysicalMemory
                0x0000000000005d88        0x8 C:/Users/oukeh/OneDrive/桌面/code-mod-example/code-mod-framework/lib/libnx_min/nx/lib\libnx_min.a(svc.o)
                0x0000000000005d88                svcUnmapPhysicalMemory
 .text.svcGetResourceLimitLimitValue
                0x0000000000005d90       0x14 C:/Users/oukeh/OneDrive/桌面/code-mod-example/code-mod-framework/lib/libnx_min/nx/lib\libnx_min.a(svc.o)
                0x0000000000005d90                svcGetResourceLimitLimitValue
 .text.svcGetResourceLimitCurrentValue
                0x0000000000005da4       0x14 C:/Users/oukeh/OneDrive/桌面/code-mod-example/code-mod-framework/lib/libnx_min/nx/lib\libnx_min.a(svc.o)
                0x0000000000005da4                svcGetResourceLimitCurrentValue
 .text.svcSetThreadActivity
                0x0000000000005db8        0x8 C:/Users/oukeh/OneDrive/桌面/code-mod-example/code-mod-framework/lib/libnx_min/nx/lib\libnx_min.a(svc.o)
                0x0000000000005db8                svcSetThreadActivity
 .text.svcGetThreadContext3
                0x0000000000005dc0        0x8 C:/Users/oukeh/OneDrive/桌面/code-mod-example/code-mod-framework/lib/libnx_min/nx/lib\libnx_min.a(svc.o)
                0x0000000000005dc0                svcGetThreadContext3
 .text.svcCreateSession
                0x0000000000005dc8       0x18 C:/Users/oukeh/OneDrive/桌面/code-mod-example/code-mod-framework/lib/libnx_min/nx/lib\libnx_min.a(svc.o)
                0x0000000000005dc8                svcCreateSession
 .text.svcAcceptSession
                0x0000000000005de0       0x14 C:/Users/oukeh/OneDrive/桌面/code-mod-example/code-mod-framework/lib/libnx_min/nx/lib\libnx_min.a(svc.o)
                0x0000000000005de0                svcAcceptSession
 .text.svcReplyAndReceive
                0x0000000000005df4       0x14 C:/Users/oukeh/OneDrive/桌面/code-mod-example/code-mod-framework/lib/libnx_min/nx/lib\libnx_min.a(svc.o)
                0x0000000000005df4                svcReplyAndReceive
 .text.svcReplyAndReceiveWithUserBuffer
                0x0000000000005e08       0x14 C:/Users/oukeh/OneDrive/桌面/code-mod-example/code-mod-framework/lib/libnx_min/nx/lib\libnx_min.a(svc.o)
                0x0000000000005e08                svcReplyAndReceiveWithUserBuffer
 .text.svcCreateEvent
                0x0000000000005e1c       0x18 C:/Users/oukeh/OneDrive/桌面/code-mod-example/code-mod-framework/lib/libnx_min/nx/lib\libnx_min.a(svc.o)
                0x0000000000005e1c                svcCreateEvent
 .text.svcMapPhysicalMemoryUnsafe
                0x0000000000005e34        0x8 C:/Users/oukeh/OneDrive/桌面/code-mod-example/code-mod-framework/lib/libnx_min/nx/lib\libnx_min.a(svc.o)
                0x0000000000005e34                svcMapPhysicalMemoryUnsafe
 .text.svcUnmapPhysicalMemoryUnsafe
                0x0000000000005e3c        0x8 C:/Users/oukeh/OneDrive/桌面/code-mod-example/code-mod-framework/lib/libnx_min/nx/lib\libnx_min.a(svc.o)
                0x0000000000005e3c                svcUnmapPhysicalMemoryUnsafe
 .text.svcSetUnsafeLimit
                0x0000000000005e44        0x8 C:/Users/oukeh/OneDrive/桌面/code-mod-example/code-mod-framework/lib/libnx_min/nx/lib\libnx_min.a(svc.o)
                0x0000000000005e44                svcSetUnsafeLimit
 .text.svcCreateCodeMemory
                0x0000000000005e4c       0x14 C:/Users/oukeh/OneDrive/桌面/code-mod-example/code-mod-framework/lib/libnx_min/nx/lib\libnx_min.a(svc.o)
                0x0000000000005e4c                svcCreateCodeMemory
 .text.svcControlCodeMemory
                0x0000000000005e60        0x8 C:/Users/oukeh/OneDrive/桌面/code-mod-example/code-mod-framework/lib/libnx_min/nx/lib\libnx_min.a(svc.o)
                0x0000000000005e60                svcControlCodeMemory
 .text.svcReadWriteRegister
                0x0000000000005e68       0x14 C:/Users/oukeh/OneDrive/桌面/code-mod-example/code-mod-framework/lib/libnx_min/nx/lib\libnx_min.a(svc.o)
                0x0000000000005e68                svcReadWriteRegister
 .text.svcCreateSharedMemory
                0x0000000000005e7c       0x14 C:/Users/oukeh/OneDrive/桌面/code-mod-example/code-mod-framework/lib/libnx_min/nx/lib\libnx_min.a(svc.o)
                0x0000000000005e7c                svcCreateSharedMemory
 .text.svcMapTransferMemory
                0x0000000000005e90        0x8 C:/Users/oukeh/OneDrive/桌面/code-mod-example/code-mod-framework/lib/libnx_min/nx/lib\libnx_min.a(svc.o)
                0x0000000000005e90                svcMapTransferMemory
 .text.svcUnmapTransferMemory
                0x0000000000005e98        0x8 C:/Users/oukeh/OneDrive/桌面/code-mod-example/code-mod-framework/lib/libnx_min/nx/lib\libnx_min.a(svc.o)
                0x0000000000005e98                svcUnmapTransferMemory
 .text.svcCreateInterruptEvent
                0x0000000000005ea0       0x14 C:/Users/oukeh/OneDrive/桌面/code-mod-example/code-mod-framework/lib/libnx_min/nx/lib\libnx_min.a(svc.o)
                0x0000000000005ea0                svcCreateInterruptEvent
 .text.svcQueryPhysicalAddress
                0x0000000000005eb4       0x18 C:/Users/oukeh/OneDrive/桌面/code-mod-example/code-mod-framework/lib/libnx_min/nx/lib\libnx_min.a(svc.o)
                0x0000000000005eb4                svcQueryPhysicalAddress
 .text.svcQueryIoMapping
                0x0000000000005ecc       0x14 C:/Users/oukeh/OneDrive/桌面/code-mod-example/code-mod-framework/lib/libnx_min/nx/lib\libnx_min.a(svc.o)
                0x0000000000005ecc                svcQueryIoMapping
 .text.svcCreateDeviceAddressSpace
                0x0000000000005ee0       0x14 C:/Users/oukeh/OneDrive/桌面/code-mod-example/code-mod-framework/lib/libnx_min/nx/lib\libnx_min.a(svc.o)
                0x0000000000005ee0                svcCreateDeviceAddressSpace
 .text.svcAttachDeviceAddressSpace
                0x0000000000005ef4        0x8 C:/Users/oukeh/OneDrive/桌面/code-mod-example/code-mod-framework/lib/libnx_min/nx/lib\libnx_min.a(svc.o)
                0x0000000000005ef4                svcAttachDeviceAddressSpace
 .text.svcDetachDeviceAddressSpace
                0x0000000000005efc        0x8 C:/Users/oukeh/OneDrive/桌面/code-mod-example/code-mod-framework/lib/libnx_min/nx/lib\libnx_min.a(svc.o)
                0x0000000000005efc                svcDetachDeviceAddressSpace
 .text.svcMapDeviceAddressSpaceByForce
                0x0000000000005f04        0x8 C:/Users/oukeh/OneDrive/桌面/code-mod-example/code-mod-framework/lib/libnx_min/nx/lib\libnx_min.a(svc.o)
                0x0000000000005f04                svcMapDeviceAddressSpaceByForce
 .text.svcMapDeviceAddressSpaceAligned
                0x0000000000005f0c        0x8 C:/Users/oukeh/OneDrive/桌面/code-mod-example/code-mod-framework/lib/libnx_min/nx/lib\libnx_min.a(svc.o)
                0x0000000000005f0c                svcMapDeviceAddressSpaceAligned
 .text.svcUnmapDeviceAddressSpace
                0x0000000000005f14        0x8 C:/Users/oukeh/OneDrive/桌面/code-mod-example/code-mod-framework/lib/libnx_min/nx/lib\libnx_min.a(svc.o)
                0x0000000000005f14                svcUnmapDeviceAddressSpace
 .text.svcDebugActiveProcess
                0x0000000000005f1c       0x14 C:/Users/oukeh/OneDrive/桌面/code-mod-example/code-mod-framework/lib/libnx_min/nx/lib\libnx_min.a(svc.o)
                0x0000000000005f1c                svcDebugActiveProcess
 .text.svcBreakDebugProcess
                0x0000000000005f30        0x8 C:/Users/oukeh/OneDrive/桌面/code-mod-example/code-mod-framework/lib/libnx_min/nx/lib\libnx_min.a(svc.o)
                0x0000000000005f30                svcBreakDebugProcess
 .text.svcTerminateDebugProcess
                0x0000000000005f38        0x8 C:/Users/oukeh/OneDrive/桌面/code-mod-example/code-mod-framework/lib/libnx_min/nx/lib\libnx_min.a(svc.o)
                0x0000000000005f38                svcTerminateDebugProcess
 .text.svcGetDebugEvent
                0x0000000000005f40        0x8 C:/Users/oukeh/OneDrive/桌面/code-mod-example/code-mod-framework/lib/libnx_min/nx/lib\libnx_min.a(svc.o)
                0x0000000000005f40                svcGetDebugEvent
 .text.svcLegacyContinueDebugEvent
                0x0000000000005f48        0x8 C:/Users/oukeh/OneDrive/桌面/code-mod-example/code-mod-framework/lib/libnx_min/nx/lib\libnx_min.a(svc.o)
                0x0000000000005f48                svcLegacyContinueDebugEvent
 .text.svcContinueDebugEvent
                0x0000000000005f50        0x8 C:/Users/oukeh/OneDrive/桌面/code-mod-example/code-mod-framework/lib/libnx_min/nx/lib\libnx_min.a(svc.o)
                0x0000000000005f50                svcContinueDebugEvent
 .text.svcGetProcessList
                0x0000000000005f58       0x14 C:/Users/oukeh/OneDrive/桌面/code-mod-example/code-mod-framework/lib/libnx_min/nx/lib\libnx_min.a(svc.o)
                0x0000000000005f58                svcGetProcessList
 .text.svcGetThreadList
                0x0000000000005f6c       0x14 C:/Users/oukeh/OneDrive/桌面/code-mod-example/code-mod-framework/lib/libnx_min/nx/lib\libnx_min.a(svc.o)
                0x0000000000005f6c                svcGetThreadList
 .text.svcGetDebugThreadContext
                0x0000000000005f80        0x8 C:/Users/oukeh/OneDrive/桌面/code-mod-example/code-mod-framework/lib/libnx_min/nx/lib\libnx_min.a(svc.o)
                0x0000000000005f80                svcGetDebugThreadContext
 .text.svcSetDebugThreadContext
                0x0000000000005f88        0x8 C:/Users/oukeh/OneDrive/桌面/code-mod-example/code-mod-framework/lib/libnx_min/nx/lib\libnx_min.a(svc.o)
                0x0000000000005f88                svcSetDebugThreadContext
 .text.svcQueryDebugProcessMemory
                0x0000000000005f90       0x14 C:/Users/oukeh/OneDrive/桌面/code-mod-example/code-mod-framework/lib/libnx_min/nx/lib\libnx_min.a(svc.o)
                0x0000000000005f90                svcQueryDebugProcessMemory
 .text.svcReadDebugProcessMemory
                0x0000000000005fa4        0x8 C:/Users/oukeh/OneDrive/桌面/code-mod-example/code-mod-framework/lib/libnx_min/nx/lib\libnx_min.a(svc.o)
                0x0000000000005fa4                svcReadDebugProcessMemory
 .text.svcWriteDebugProcessMemory
                0x0000000000005fac        0x8 C:/Users/oukeh/OneDrive/桌面/code-mod-example/code-mod-framework/lib/libnx_min/nx/lib\libnx_min.a(svc.o)
                0x0000000000005fac                svcWriteDebugProcessMemory
 .text.svcGetDebugThreadParam
                0x0000000000005fb4       0x18 C:/Users/oukeh/OneDrive/桌面/code-mod-example/code-mod-framework/lib/libnx_min/nx/lib\libnx_min.a(svc.o)
                0x0000000000005fb4                svcGetDebugThreadParam
 .text.svcGetSystemInfo
                0x0000000000005fcc       0x14 C:/Users/oukeh/OneDrive/桌面/code-mod-example/code-mod-framework/lib/libnx_min/nx/lib\libnx_min.a(svc.o)
                0x0000000000005fcc                svcGetSystemInfo
 .text.svcCreatePort
                0x0000000000005fe0       0x18 C:/Users/oukeh/OneDrive/桌面/code-mod-example/code-mod-framework/lib/libnx_min/nx/lib\libnx_min.a(svc.o)
                0x0000000000005fe0                svcCreatePort
 .text.svcManageNamedPort
                0x0000000000005ff8       0x14 C:/Users/oukeh/OneDrive/桌面/code-mod-example/code-mod-framework/lib/libnx_min/nx/lib\libnx_min.a(svc.o)
                0x0000000000005ff8                svcManageNamedPort
 .text.svcConnectToPort
                0x000000000000600c       0x14 C:/Users/oukeh/OneDrive/桌面/code-mod-example/code-mod-framework/lib/libnx_min/nx/lib\libnx_min.a(svc.o)
                0x000000000000600c                svcConnectToPort
 .text.svcSetProcessMemoryPermission
                0x0000000000006020        0x8 C:/Users/oukeh/OneDrive/桌面/code-mod-example/code-mod-framework/lib/libnx_min/nx/lib\libnx_min.a(svc.o)
                0x0000000000006020                svcSetProcessMemoryPermission
 .text.svcMapProcessMemory
                0x0000000000006028        0x8 C:/Users/oukeh/OneDrive/桌面/code-mod-example/code-mod-framework/lib/libnx_min/nx/lib\libnx_min.a(svc.o)
                0x0000000000006028                svcMapProcessMemory
 .text.svcUnmapProcessMemory
                0x0000000000006030        0x8 C:/Users/oukeh/OneDrive/桌面/code-mod-example/code-mod-framework/lib/libnx_min/nx/lib\libnx_min.a(svc.o)
                0x0000000000006030                svcUnmapProcessMemory
 .text.svcQueryProcessMemory
                0x0000000000006038       0x14 C:/Users/oukeh/OneDrive/桌面/code-mod-example/code-mod-framework/lib/libnx_min/nx/lib\libnx_min.a(svc.o)
                0x0000000000006038                svcQueryProcessMemory
 .text.svcMapProcessCodeMemory
                0x000000000000604c        0x8 C:/Users/oukeh/OneDrive/桌面/code-mod-example/code-mod-framework/lib/libnx_min/nx/lib\libnx_min.a(svc.o)
                0x000000000000604c                svcMapProcessCodeMemory
 .text.svcUnmapProcessCodeMemory
                0x0000000000006054        0x8 C:/Users/oukeh/OneDrive/桌面/code-mod-example/code-mod-framework/lib/libnx_min/nx/lib\libnx_min.a(svc.o)
                0x0000000000006054                svcUnmapProcessCodeMemory
 .text.svcCreateProcess
                0x000000000000605c       0x14 C:/Users/oukeh/OneDrive/桌面/code-mod-example/code-mod-framework/lib/libnx_min/nx/lib\libnx_min.a(svc.o)
                0x000000000000605c                svcCreateProcess
 .text.svcStartProcess
                0x0000000000006070        0x8 C:/Users/oukeh/OneDrive/桌面/code-mod-example/code-mod-framework/lib/libnx_min/nx/lib\libnx_min.a(svc.o)
                0x0000000000006070                svcStartProcess
 .text.svcTerminateProcess
                0x0000000000006078        0x8 C:/Users/oukeh/OneDrive/桌面/code-mod-example/code-mod-framework/lib/libnx_min/nx/lib\libnx_min.a(svc.o)
                0x0000000000006078                svcTerminateProcess
 .text.svcGetProcessInfo
                0x0000000000006080       0x14 C:/Users/oukeh/OneDrive/桌面/code-mod-example/code-mod-framework/lib/libnx_min/nx/lib\libnx_min.a(svc.o)
                0x0000000000006080                svcGetProcessInfo
 .text.svcCreateResourceLimit
                0x0000000000006094       0x14 C:/Users/oukeh/OneDrive/桌面/code-mod-example/code-mod-framework/lib/libnx_min/nx/lib\libnx_min.a(svc.o)
                0x0000000000006094                svcCreateResourceLimit
 .text.svcSetResourceLimitLimitValue
                0x00000000000060a8        0x8 C:/Users/oukeh/OneDrive/桌面/code-mod-example/code-mod-framework/lib/libnx_min/nx/lib\libnx_min.a(svc.o)
                0x00000000000060a8                svcSetResourceLimitLimitValue
 .text.svcCallSecureMonitor
                0x00000000000060b0       0x34 C:/Users/oukeh/OneDrive/桌面/code-mod-example/code-mod-framework/lib/libnx_min/nx/lib\libnx_min.a(svc.o)
                0x00000000000060b0                svcCallSecureMonitor
 .text.__aarch64_read_tp
                0x00000000000060e4        0xc C:/Users/oukeh/OneDrive/桌面/code-mod-example/code-mod-framework/lib/libnx_min/nx/lib\libnx_min.a(readtp.o)
                0x00000000000060e4                __aarch64_read_tp
 .text._GetRegionFromInfo.isra.1
                0x00000000000060f0       0x7c C:/Users/oukeh/OneDrive/桌面/code-mod-example/code-mod-framework/lib/libnx_min/nx/lib\libnx_min.a(virtmem.o)
 *fill*         0x000000000000616c        0x4 
 .text.virtmemSetup
                0x0000000000006170      0x114 C:/Users/oukeh/OneDrive/桌面/code-mod-example/code-mod-framework/lib/libnx_min/nx/lib\libnx_min.a(virtmem.o)
                0x0000000000006170                virtmemSetup
 *fill*         0x0000000000006284        0xc 
 .text.virtmemReserve
                0x0000000000006290      0x13c C:/Users/oukeh/OneDrive/桌面/code-mod-example/code-mod-framework/lib/libnx_min/nx/lib\libnx_min.a(virtmem.o)
                0x0000000000006290                virtmemReserve
 *fill*         0x00000000000063cc        0x4 
 .text.virtmemFree
                0x00000000000063d0        0x4 C:/Users/oukeh/OneDrive/桌面/code-mod-example/code-mod-framework/lib/libnx_min/nx/lib\libnx_min.a(virtmem.o)
                0x00000000000063d0                virtmemFree
 *fill*         0x00000000000063d4        0xc 
 .text.virtmemReserveStack
                0x00000000000063e0       0xc8 C:/Users/oukeh/OneDrive/桌面/code-mod-example/code-mod-framework/lib/libnx_min/nx/lib\libnx_min.a(virtmem.o)
                0x00000000000063e0                virtmemReserveStack
 *fill*         0x00000000000064a8        0x8 
 .text.virtmemFreeStack
                0x00000000000064b0        0x4 C:/Users/oukeh/OneDrive/桌面/code-mod-example/code-mod-framework/lib/libnx_min/nx/lib\libnx_min.a(virtmem.o)
                0x00000000000064b0                virtmemFreeStack
 *fill*         0x00000000000064b4        0xc 
 .text.mutexLock
                0x00000000000064c0       0x8c C:/Users/oukeh/OneDrive/桌面/code-mod-example/code-mod-framework/lib/libnx_min/nx/lib\libnx_min.a(mutex.o)
                0x00000000000064c0                mutexLock
 *fill*         0x000000000000654c        0x4 
 .text.mutexTryLock
                0x0000000000006550       0x34 C:/Users/oukeh/OneDrive/桌面/code-mod-example/code-mod-framework/lib/libnx_min/nx/lib\libnx_min.a(mutex.o)
                0x0000000000006550                mutexTryLock
 *fill*         0x0000000000006584        0xc 
 .text.mutexUnlock
                0x0000000000006590       0x30 C:/Users/oukeh/OneDrive/桌面/code-mod-example/code-mod-framework/lib/libnx_min/nx/lib\libnx_min.a(mutex.o)
                0x0000000000006590                mutexUnlock
 .text.rmutexLock
                0x00000000000065c0       0x4c C:/Users/oukeh/OneDrive/桌面/code-mod-example/code-mod-framework/lib/libnx_min/nx/lib\libnx_min.a(mutex.o)
                0x00000000000065c0                rmutexLock
 *fill*         0x000000000000660c        0x4 
 .text.rmutexTryLock
                0x0000000000006610       0x5c C:/Users/oukeh/OneDrive/桌面/code-mod-example/code-mod-framework/lib/libnx_min/nx/lib\libnx_min.a(mutex.o)
                0x0000000000006610                rmutexTryLock
 *fill*         0x000000000000666c        0x4 
 .text.rmutexUnlock
                0x0000000000006670       0x1c C:/Users/oukeh/OneDrive/桌面/code-mod-example/code-mod-framework/lib/libnx_min/nx/lib\libnx_min.a(mutex.o)
                0x0000000000006670                rmutexUnlock
 *fill*         0x000000000000668c        0x4 
 .text.ipcPrepareHeader
                0x0000000000006690      0x220 C:/Users/oukeh/OneDrive/桌面/code-mod-example/code-mod-framework/lib/libnx_min/nx/lib\libnx_min.a(fs.o)
 .text.ipcParse
                0x00000000000068b0      0x22c C:/Users/oukeh/OneDrive/桌面/code-mod-example/code-mod-framework/lib/libnx_min/nx/lib\libnx_min.a(fs.o)
 *fill*         0x0000000000006adc        0x4 
 .text.serviceIpcParse
                0x0000000000006ae0       0xb0 C:/Users/oukeh/OneDrive/桌面/code-mod-example/code-mod-framework/lib/libnx_min/nx/lib\libnx_min.a(fs.o)
 .text.ipcCloseObjectById
                0x0000000000006b90       0x34 C:/Users/oukeh/OneDrive/桌面/code-mod-example/code-mod-framework/lib/libnx_min/nx/lib\libnx_min.a(fs.o)
 *fill*         0x0000000000006bc4        0xc 
 .text._fsDeviceOperatorCheckInserted
                0x0000000000006bd0      0x19c C:/Users/oukeh/OneDrive/桌面/code-mod-example/code-mod-framework/lib/libnx_min/nx/lib\libnx_min.a(fs.o)
 *fill*         0x0000000000006d6c        0x4 
 .text.fsFsQueryEntry.part.12
                0x0000000000006d70      0x274 C:/Users/oukeh/OneDrive/桌面/code-mod-example/code-mod-framework/lib/libnx_min/nx/lib\libnx_min.a(fs.o)
 *fill*         0x0000000000006fe4        0xc 
 .text.fsInitialize
                0x0000000000006ff0      0x200 C:/Users/oukeh/OneDrive/桌面/code-mod-example/code-mod-framework/lib/libnx_min/nx/lib\libnx_min.a(fs.o)
                0x0000000000006ff0                fsInitialize
 .text.fsExit   0x00000000000071f0       0x9c C:/Users/oukeh/OneDrive/桌面/code-mod-example/code-mod-framework/lib/libnx_min/nx/lib\libnx_min.a(fs.o)
                0x00000000000071f0                fsExit
 *fill*         0x000000000000728c        0x4 
 .text.fsGetServiceSession
                0x0000000000007290        0xc C:/Users/oukeh/OneDrive/桌面/code-mod-example/code-mod-framework/lib/libnx_min/nx/lib\libnx_min.a(fs.o)
                0x0000000000007290                fsGetServiceSession
 *fill*         0x000000000000729c        0x4 
 .text.fsOpenBisStorage
                0x00000000000072a0      0x1ec C:/Users/oukeh/OneDrive/桌面/code-mod-example/code-mod-framework/lib/libnx_min/nx/lib\libnx_min.a(fs.o)
                0x00000000000072a0                fsOpenBisStorage
 *fill*         0x000000000000748c        0x4 
 .text.fsOpenBisFileSystem
                0x0000000000007490      0x170 C:/Users/oukeh/OneDrive/桌面/code-mod-example/code-mod-framework/lib/libnx_min/nx/lib\libnx_min.a(fs.o)
                0x0000000000007490                fsOpenBisFileSystem
 .text.fsMountSdcard
                0x0000000000007600      0x1cc C:/Users/oukeh/OneDrive/桌面/code-mod-example/code-mod-framework/lib/libnx_min/nx/lib\libnx_min.a(fs.o)
                0x0000000000007600                fsMountSdcard
 *fill*         0x00000000000077cc        0x4 
 .text.fsMountSaveData
                0x00000000000077d0      0x208 C:/Users/oukeh/OneDrive/桌面/code-mod-example/code-mod-framework/lib/libnx_min/nx/lib\libnx_min.a(fs.o)
                0x00000000000077d0                fsMountSaveData
 *fill*         0x00000000000079d8        0x8 
 .text.fsMountSystemSaveData
                0x00000000000079e0      0x208 C:/Users/oukeh/OneDrive/桌面/code-mod-example/code-mod-framework/lib/libnx_min/nx/lib\libnx_min.a(fs.o)
                0x00000000000079e0                fsMountSystemSaveData
 *fill*         0x0000000000007be8        0x8 
 .text.fsOpenSaveDataIterator
                0x0000000000007bf0      0x1e0 C:/Users/oukeh/OneDrive/桌面/code-mod-example/code-mod-framework/lib/libnx_min/nx/lib\libnx_min.a(fs.o)
                0x0000000000007bf0                fsOpenSaveDataIterator
 .text.fsOpenContentStorageFileSystem
                0x0000000000007dd0      0x1d4 C:/Users/oukeh/OneDrive/桌面/code-mod-example/code-mod-framework/lib/libnx_min/nx/lib\libnx_min.a(fs.o)
                0x0000000000007dd0                fsOpenContentStorageFileSystem
 *fill*         0x0000000000007fa4        0xc 
 .text.fsOpenDataStorageByCurrentProcess
                0x0000000000007fb0      0x1cc C:/Users/oukeh/OneDrive/桌面/code-mod-example/code-mod-framework/lib/libnx_min/nx/lib\libnx_min.a(fs.o)
                0x0000000000007fb0                fsOpenDataStorageByCurrentProcess
 *fill*         0x000000000000817c        0x4 
 .text.fsOpenDataStorageByDataId
                0x0000000000008180      0x200 C:/Users/oukeh/OneDrive/桌面/code-mod-example/code-mod-framework/lib/libnx_min/nx/lib\libnx_min.a(fs.o)
                0x0000000000008180                fsOpenDataStorageByDataId
 .text.fsOpenDeviceOperator
                0x0000000000008380      0x1cc C:/Users/oukeh/OneDrive/桌面/code-mod-example/code-mod-framework/lib/libnx_min/nx/lib\libnx_min.a(fs.o)
                0x0000000000008380                fsOpenDeviceOperator
 *fill*         0x000000000000854c        0x4 
 .text.fsOpenSdCardDetectionEventNotifier
                0x0000000000008550      0x1cc C:/Users/oukeh/OneDrive/桌面/code-mod-example/code-mod-framework/lib/libnx_min/nx/lib\libnx_min.a(fs.o)
                0x0000000000008550                fsOpenSdCardDetectionEventNotifier
 *fill*         0x000000000000871c        0x4 
 .text.fsGetRightsIdByPath
                0x0000000000008720      0x174 C:/Users/oukeh/OneDrive/桌面/code-mod-example/code-mod-framework/lib/libnx_min/nx/lib\libnx_min.a(fs.o)
                0x0000000000008720                fsGetRightsIdByPath
 *fill*         0x0000000000008894        0xc 
 .text.fsGetRightsIdAndKeyGenerationByPath
                0x00000000000088a0      0x184 C:/Users/oukeh/OneDrive/桌面/code-mod-example/code-mod-framework/lib/libnx_min/nx/lib\libnx_min.a(fs.o)
                0x00000000000088a0                fsGetRightsIdAndKeyGenerationByPath
 *fill*         0x0000000000008a24        0xc 
 .text.fsIsExFatSupported
                0x0000000000008a30      0x138 C:/Users/oukeh/OneDrive/桌面/code-mod-example/code-mod-framework/lib/libnx_min/nx/lib\libnx_min.a(fs.o)
                0x0000000000008a30                fsIsExFatSupported
 *fill*         0x0000000000008b68        0x8 
 .text.fsMount_SaveData
                0x0000000000008b70       0x3c C:/Users/oukeh/OneDrive/桌面/code-mod-example/code-mod-framework/lib/libnx_min/nx/lib\libnx_min.a(fs.o)
                0x0000000000008b70                fsMount_SaveData
 *fill*         0x0000000000008bac        0x4 
 .text.fsMount_SystemSaveData
                0x0000000000008bb0       0x30 C:/Users/oukeh/OneDrive/桌面/code-mod-example/code-mod-framework/lib/libnx_min/nx/lib\libnx_min.a(fs.o)
                0x0000000000008bb0                fsMount_SystemSaveData
 .text.fsOpenFileSystemWithId
                0x0000000000008be0      0x248 C:/Users/oukeh/OneDrive/桌面/code-mod-example/code-mod-framework/lib/libnx_min/nx/lib\libnx_min.a(fs.o)
                0x0000000000008be0                fsOpenFileSystemWithId
 *fill*         0x0000000000008e28        0x8 
 .text.fsOpenFileSystem
                0x0000000000008e30       0x10 C:/Users/oukeh/OneDrive/桌面/code-mod-example/code-mod-framework/lib/libnx_min/nx/lib\libnx_min.a(fs.o)
                0x0000000000008e30                fsOpenFileSystem
 .text.fsOpenFileSystemWithPatch
                0x0000000000008e40      0x184 C:/Users/oukeh/OneDrive/桌面/code-mod-example/code-mod-framework/lib/libnx_min/nx/lib\libnx_min.a(fs.o)
                0x0000000000008e40                fsOpenFileSystemWithPatch
 *fill*         0x0000000000008fc4        0xc 
 .text.fsFsCreateFile
                0x0000000000008fd0      0x1a4 C:/Users/oukeh/OneDrive/桌面/code-mod-example/code-mod-framework/lib/libnx_min/nx/lib\libnx_min.a(fs.o)
                0x0000000000008fd0                fsFsCreateFile
 *fill*         0x0000000000009174        0xc 
 .text.fsFsDeleteFile
                0x0000000000009180      0x19c C:/Users/oukeh/OneDrive/桌面/code-mod-example/code-mod-framework/lib/libnx_min/nx/lib\libnx_min.a(fs.o)
                0x0000000000009180                fsFsDeleteFile
 *fill*         0x000000000000931c        0x4 
 .text.fsFsCreateDirectory
                0x0000000000009320      0x19c C:/Users/oukeh/OneDrive/桌面/code-mod-example/code-mod-framework/lib/libnx_min/nx/lib\libnx_min.a(fs.o)
                0x0000000000009320                fsFsCreateDirectory
 *fill*         0x00000000000094bc        0x4 
 .text.fsFsDeleteDirectory
                0x00000000000094c0      0x19c C:/Users/oukeh/OneDrive/桌面/code-mod-example/code-mod-framework/lib/libnx_min/nx/lib\libnx_min.a(fs.o)
                0x00000000000094c0                fsFsDeleteDirectory
 *fill*         0x000000000000965c        0x4 
 .text.fsFsDeleteDirectoryRecursively
                0x0000000000009660      0x19c C:/Users/oukeh/OneDrive/桌面/code-mod-example/code-mod-framework/lib/libnx_min/nx/lib\libnx_min.a(fs.o)
                0x0000000000009660                fsFsDeleteDirectoryRecursively
 *fill*         0x00000000000097fc        0x4 
 .text.fsFsRenameFile
                0x0000000000009800      0x214 C:/Users/oukeh/OneDrive/桌面/code-mod-example/code-mod-framework/lib/libnx_min/nx/lib\libnx_min.a(fs.o)
                0x0000000000009800                fsFsRenameFile
 *fill*         0x0000000000009a14        0xc 
 .text.fsFsRenameDirectory
                0x0000000000009a20      0x214 C:/Users/oukeh/OneDrive/桌面/code-mod-example/code-mod-framework/lib/libnx_min/nx/lib\libnx_min.a(fs.o)
                0x0000000000009a20                fsFsRenameDirectory
 *fill*         0x0000000000009c34        0xc 
 .text.fsFsGetEntryType
                0x0000000000009c40      0x1b0 C:/Users/oukeh/OneDrive/桌面/code-mod-example/code-mod-framework/lib/libnx_min/nx/lib\libnx_min.a(fs.o)
                0x0000000000009c40                fsFsGetEntryType
 .text.fsFsOpenFile
                0x0000000000009df0      0x1e4 C:/Users/oukeh/OneDrive/桌面/code-mod-example/code-mod-framework/lib/libnx_min/nx/lib\libnx_min.a(fs.o)
                0x0000000000009df0                fsFsOpenFile
 *fill*         0x0000000000009fd4        0xc 
 .text.fsFsOpenDirectory
                0x0000000000009fe0      0x1f8 C:/Users/oukeh/OneDrive/桌面/code-mod-example/code-mod-framework/lib/libnx_min/nx/lib\libnx_min.a(fs.o)
                0x0000000000009fe0                fsFsOpenDirectory
 *fill*         0x000000000000a1d8        0x8 
 .text.fsFsCommit
                0x000000000000a1e0      0x17c C:/Users/oukeh/OneDrive/桌面/code-mod-example/code-mod-framework/lib/libnx_min/nx/lib\libnx_min.a(fs.o)
                0x000000000000a1e0                fsFsCommit
 *fill*         0x000000000000a35c        0x4 
 .text.fsFsGetFreeSpace
                0x000000000000a360      0x1b0 C:/Users/oukeh/OneDrive/桌面/code-mod-example/code-mod-framework/lib/libnx_min/nx/lib\libnx_min.a(fs.o)
                0x000000000000a360                fsFsGetFreeSpace
 .text.fsFsGetTotalSpace
                0x000000000000a510      0x1b0 C:/Users/oukeh/OneDrive/桌面/code-mod-example/code-mod-framework/lib/libnx_min/nx/lib\libnx_min.a(fs.o)
                0x000000000000a510                fsFsGetTotalSpace
 .text.fsFsCleanDirectoryRecursively
                0x000000000000a6c0      0x140 C:/Users/oukeh/OneDrive/桌面/code-mod-example/code-mod-framework/lib/libnx_min/nx/lib\libnx_min.a(fs.o)
                0x000000000000a6c0                fsFsCleanDirectoryRecursively
 .text.fsFsGetFileTimeStampRaw
                0x000000000000a800      0x194 C:/Users/oukeh/OneDrive/桌面/code-mod-example/code-mod-framework/lib/libnx_min/nx/lib\libnx_min.a(fs.o)
                0x000000000000a800                fsFsGetFileTimeStampRaw
 *fill*         0x000000000000a994        0xc 
 .text.fsFsQueryEntry
                0x000000000000a9a0       0x60 C:/Users/oukeh/OneDrive/桌面/code-mod-example/code-mod-framework/lib/libnx_min/nx/lib\libnx_min.a(fs.o)
                0x000000000000a9a0                fsFsQueryEntry
 .text.fsFsSetArchiveBit
                0x000000000000aa00       0x1c C:/Users/oukeh/OneDrive/桌面/code-mod-example/code-mod-framework/lib/libnx_min/nx/lib\libnx_min.a(fs.o)
                0x000000000000aa00                fsFsSetArchiveBit
 *fill*         0x000000000000aa1c        0x4 
 .text.fsFsClose
                0x000000000000aa20       0x6c C:/Users/oukeh/OneDrive/桌面/code-mod-example/code-mod-framework/lib/libnx_min/nx/lib\libnx_min.a(fs.o)
                0x000000000000aa20                fsFsClose
 *fill*         0x000000000000aa8c        0x4 
 .text.fsFileRead
                0x000000000000aa90      0x1f8 C:/Users/oukeh/OneDrive/桌面/code-mod-example/code-mod-framework/lib/libnx_min/nx/lib\libnx_min.a(fs.o)
                0x000000000000aa90                fsFileRead
 *fill*         0x000000000000ac88        0x8 
 .text.fsFileWrite
                0x000000000000ac90      0x1cc C:/Users/oukeh/OneDrive/桌面/code-mod-example/code-mod-framework/lib/libnx_min/nx/lib\libnx_min.a(fs.o)
                0x000000000000ac90                fsFileWrite
 *fill*         0x000000000000ae5c        0x4 
 .text.fsFileFlush
                0x000000000000ae60      0x17c C:/Users/oukeh/OneDrive/桌面/code-mod-example/code-mod-framework/lib/libnx_min/nx/lib\libnx_min.a(fs.o)
                0x000000000000ae60                fsFileFlush
 *fill*         0x000000000000afdc        0x4 
 .text.fsFileSetSize
                0x000000000000afe0      0x18c C:/Users/oukeh/OneDrive/桌面/code-mod-example/code-mod-framework/lib/libnx_min/nx/lib\libnx_min.a(fs.o)
                0x000000000000afe0                fsFileSetSize
 *fill*         0x000000000000b16c        0x4 
 .text.fsFileGetSize
                0x000000000000b170      0x194 C:/Users/oukeh/OneDrive/桌面/code-mod-example/code-mod-framework/lib/libnx_min/nx/lib\libnx_min.a(fs.o)
                0x000000000000b170                fsFileGetSize
 *fill*         0x000000000000b304        0xc 
 .text.fsFileOperateRange
                0x000000000000b310      0x180 C:/Users/oukeh/OneDrive/桌面/code-mod-example/code-mod-framework/lib/libnx_min/nx/lib\libnx_min.a(fs.o)
                0x000000000000b310                fsFileOperateRange
 .text.fsFileClose
                0x000000000000b490       0x6c C:/Users/oukeh/OneDrive/桌面/code-mod-example/code-mod-framework/lib/libnx_min/nx/lib\libnx_min.a(fs.o)
                0x000000000000b490                fsFileClose
 *fill*         0x000000000000b4fc        0x4 
 .text.fsDirClose
                0x000000000000b500       0x6c C:/Users/oukeh/OneDrive/桌面/code-mod-example/code-mod-framework/lib/libnx_min/nx/lib\libnx_min.a(fs.o)
                0x000000000000b500                fsDirClose
 *fill*         0x000000000000b56c        0x4 
 .text.fsDirRead
                0x000000000000b570      0x1ec C:/Users/oukeh/OneDrive/桌面/code-mod-example/code-mod-framework/lib/libnx_min/nx/lib\libnx_min.a(fs.o)
                0x000000000000b570                fsDirRead
 *fill*         0x000000000000b75c        0x4 
 .text.fsDirGetEntryCount
                0x000000000000b760      0x198 C:/Users/oukeh/OneDrive/桌面/code-mod-example/code-mod-framework/lib/libnx_min/nx/lib\libnx_min.a(fs.o)
                0x000000000000b760                fsDirGetEntryCount
 *fill*         0x000000000000b8f8        0x8 
 .text.fsStorageRead
                0x000000000000b900      0x1d0 C:/Users/oukeh/OneDrive/桌面/code-mod-example/code-mod-framework/lib/libnx_min/nx/lib\libnx_min.a(fs.o)
                0x000000000000b900                fsStorageRead
 .text.fsStorageWrite
                0x000000000000bad0      0x1d0 C:/Users/oukeh/OneDrive/桌面/code-mod-example/code-mod-framework/lib/libnx_min/nx/lib\libnx_min.a(fs.o)
                0x000000000000bad0                fsStorageWrite
 .text.fsStorageFlush
                0x000000000000bca0      0x17c C:/Users/oukeh/OneDrive/桌面/code-mod-example/code-mod-framework/lib/libnx_min/nx/lib\libnx_min.a(fs.o)
                0x000000000000bca0                fsStorageFlush
 *fill*         0x000000000000be1c        0x4 
 .text.fsStorageSetSize
                0x000000000000be20      0x18c C:/Users/oukeh/OneDrive/桌面/code-mod-example/code-mod-framework/lib/libnx_min/nx/lib\libnx_min.a(fs.o)
                0x000000000000be20                fsStorageSetSize
 *fill*         0x000000000000bfac        0x4 
 .text.fsStorageGetSize
                0x000000000000bfb0      0x194 C:/Users/oukeh/OneDrive/桌面/code-mod-example/code-mod-framework/lib/libnx_min/nx/lib\libnx_min.a(fs.o)
                0x000000000000bfb0                fsStorageGetSize
 *fill*         0x000000000000c144        0xc 
 .text.fsStorageOperateRange
                0x000000000000c150      0x180 C:/Users/oukeh/OneDrive/桌面/code-mod-example/code-mod-framework/lib/libnx_min/nx/lib\libnx_min.a(fs.o)
                0x000000000000c150                fsStorageOperateRange
 .text.fsStorageClose
                0x000000000000c2d0       0x6c C:/Users/oukeh/OneDrive/桌面/code-mod-example/code-mod-framework/lib/libnx_min/nx/lib\libnx_min.a(fs.o)
                0x000000000000c2d0                fsStorageClose
 *fill*         0x000000000000c33c        0x4 
 .text.fsSaveDataIteratorRead
                0x000000000000c340      0x1d0 C:/Users/oukeh/OneDrive/桌面/code-mod-example/code-mod-framework/lib/libnx_min/nx/lib\libnx_min.a(fs.o)
                0x000000000000c340                fsSaveDataIteratorRead
 .text.fsSaveDataIteratorClose
                0x000000000000c510       0x6c C:/Users/oukeh/OneDrive/桌面/code-mod-example/code-mod-framework/lib/libnx_min/nx/lib\libnx_min.a(fs.o)
                0x000000000000c510                fsSaveDataIteratorClose
 *fill*         0x000000000000c57c        0x4 
 .text.fsEventNotifierGetEventHandle
                0x000000000000c580      0x188 C:/Users/oukeh/OneDrive/桌面/code-mod-example/code-mod-framework/lib/libnx_min/nx/lib\libnx_min.a(fs.o)
                0x000000000000c580                fsEventNotifierGetEventHandle
 *fill*         0x000000000000c708        0x8 
 .text.fsEventNotifierClose
                0x000000000000c710       0x6c C:/Users/oukeh/OneDrive/桌面/code-mod-example/code-mod-framework/lib/libnx_min/nx/lib\libnx_min.a(fs.o)
                0x000000000000c710                fsEventNotifierClose
 *fill*         0x000000000000c77c        0x4 
 .text.fsDeviceOperatorIsSdCardInserted
                0x000000000000c780        0xc C:/Users/oukeh/OneDrive/桌面/code-mod-example/code-mod-framework/lib/libnx_min/nx/lib\libnx_min.a(fs.o)
                0x000000000000c780                fsDeviceOperatorIsSdCardInserted
 *fill*         0x000000000000c78c        0x4 
 .text.fsDeviceOperatorIsGameCardInserted
                0x000000000000c790        0xc C:/Users/oukeh/OneDrive/桌面/code-mod-example/code-mod-framework/lib/libnx_min/nx/lib\libnx_min.a(fs.o)
                0x000000000000c790                fsDeviceOperatorIsGameCardInserted
 *fill*         0x000000000000c79c        0x4 
 .text.fsDeviceOperatorGetGameCardHandle
                0x000000000000c7a0      0x190 C:/Users/oukeh/OneDrive/桌面/code-mod-example/code-mod-framework/lib/libnx_min/nx/lib\libnx_min.a(fs.o)
                0x000000000000c7a0                fsDeviceOperatorGetGameCardHandle
 .text.fsDeviceOperatorGetGameCardAttribute
                0x000000000000c930      0x18c C:/Users/oukeh/OneDrive/桌面/code-mod-example/code-mod-framework/lib/libnx_min/nx/lib\libnx_min.a(fs.o)
                0x000000000000c930                fsDeviceOperatorGetGameCardAttribute
 *fill*         0x000000000000cabc        0x4 
 .text.fsDeviceOperatorClose
                0x000000000000cac0       0x6c C:/Users/oukeh/OneDrive/桌面/code-mod-example/code-mod-framework/lib/libnx_min/nx/lib\libnx_min.a(fs.o)
                0x000000000000cac0                fsDeviceOperatorClose
 *fill*         0x000000000000cb2c        0x4 
 .text.ipcCloseObjectById
                0x000000000000cb30       0x34 C:/Users/oukeh/OneDrive/桌面/code-mod-example/code-mod-framework/lib/libnx_min/nx/lib\libnx_min.a(set.o)
 *fill*         0x000000000000cb64        0xc 
 .text._setMakeLanguageCode
                0x000000000000cb70       0xf4 C:/Users/oukeh/OneDrive/桌面/code-mod-example/code-mod-framework/lib/libnx_min/nx/lib\libnx_min.a(set.o)
 *fill*         0x000000000000cc64        0xc 
 .text._setsysGetFirmwareVersionImpl
                0x000000000000cc70      0x1d4 C:/Users/oukeh/OneDrive/桌面/code-mod-example/code-mod-framework/lib/libnx_min/nx/lib\libnx_min.a(set.o)
 *fill*         0x000000000000ce44        0xc 
 .text.setInitialize
                0x000000000000ce50       0x44 C:/Users/oukeh/OneDrive/桌面/code-mod-example/code-mod-framework/lib/libnx_min/nx/lib\libnx_min.a(set.o)
                0x000000000000ce50                setInitialize
 *fill*         0x000000000000ce94        0xc 
 .text.setExit  0x000000000000cea0       0x9c C:/Users/oukeh/OneDrive/桌面/code-mod-example/code-mod-framework/lib/libnx_min/nx/lib\libnx_min.a(set.o)
                0x000000000000cea0                setExit
 *fill*         0x000000000000cf3c        0x4 
 .text.setsysInitialize
                0x000000000000cf40       0x3c C:/Users/oukeh/OneDrive/桌面/code-mod-example/code-mod-framework/lib/libnx_min/nx/lib\libnx_min.a(set.o)
                0x000000000000cf40                setsysInitialize
 *fill*         0x000000000000cf7c        0x4 
 .text.setsysExit
                0x000000000000cf80       0x9c C:/Users/oukeh/OneDrive/桌面/code-mod-example/code-mod-framework/lib/libnx_min/nx/lib\libnx_min.a(set.o)
                0x000000000000cf80                setsysExit
 *fill*         0x000000000000d01c        0x4 
 .text.setGetLanguageCode
                0x000000000000d020       0xec C:/Users/oukeh/OneDrive/桌面/code-mod-example/code-mod-framework/lib/libnx_min/nx/lib\libnx_min.a(set.o)
                0x000000000000d020                setGetLanguageCode
 *fill*         0x000000000000d10c        0x4 
 .text.setGetSystemLanguage
                0x000000000000d110        0x4 C:/Users/oukeh/OneDrive/桌面/code-mod-example/code-mod-framework/lib/libnx_min/nx/lib\libnx_min.a(set.o)
                0x000000000000d110                setGetSystemLanguage
 *fill*         0x000000000000d114        0xc 
 .text.setGetAvailableLanguageCodeCount
                0x000000000000d120      0x10c C:/Users/oukeh/OneDrive/桌面/code-mod-example/code-mod-framework/lib/libnx_min/nx/lib\libnx_min.a(set.o)
                0x000000000000d120                setGetAvailableLanguageCodeCount
 *fill*         0x000000000000d22c        0x4 
 .text.setGetAvailableLanguageCodes
                0x000000000000d230      0x1b4 C:/Users/oukeh/OneDrive/桌面/code-mod-example/code-mod-framework/lib/libnx_min/nx/lib\libnx_min.a(set.o)
                0x000000000000d230                setGetAvailableLanguageCodes
 *fill*         0x000000000000d3e4        0xc 
 .text.setInitializeLanguageCodesCache
                0x000000000000d3f0       0x70 C:/Users/oukeh/OneDrive/桌面/code-mod-example/code-mod-framework/lib/libnx_min/nx/lib\libnx_min.a(set.o)
 .text.setMakeLanguage
                0x000000000000d460       0x8c C:/Users/oukeh/OneDrive/桌面/code-mod-example/code-mod-framework/lib/libnx_min/nx/lib\libnx_min.a(set.o)
                0x000000000000d460                setMakeLanguage
 *fill*         0x000000000000d4ec        0x4 
 .text.setMakeLanguageCode
                0x000000000000d4f0       0x80 C:/Users/oukeh/OneDrive/桌面/code-mod-example/code-mod-framework/lib/libnx_min/nx/lib\libnx_min.a(set.o)
                0x000000000000d4f0                setMakeLanguageCode
 .text.setGetRegionCode
                0x000000000000d570       0xf0 C:/Users/oukeh/OneDrive/桌面/code-mod-example/code-mod-framework/lib/libnx_min/nx/lib\libnx_min.a(set.o)
                0x000000000000d570                setGetRegionCode
 .text.setsysGetColorSetId
                0x000000000000d660       0xe4 C:/Users/oukeh/OneDrive/桌面/code-mod-example/code-mod-framework/lib/libnx_min/nx/lib\libnx_min.a(set.o)
                0x000000000000d660                setsysGetColorSetId
 *fill*         0x000000000000d744        0xc 
 .text.setsysSetColorSetId
                0x000000000000d750       0xd0 C:/Users/oukeh/OneDrive/桌面/code-mod-example/code-mod-framework/lib/libnx_min/nx/lib\libnx_min.a(set.o)
                0x000000000000d750                setsysSetColorSetId
 .text.setsysGetSettingsItemValue
                0x000000000000d820      0x19c C:/Users/oukeh/OneDrive/桌面/code-mod-example/code-mod-framework/lib/libnx_min/nx/lib\libnx_min.a(set.o)
                0x000000000000d820                setsysGetSettingsItemValue
 *fill*         0x000000000000d9bc        0x4 
 .text.setsysGetSettingsItemValueSize
                0x000000000000d9c0      0x198 C:/Users/oukeh/OneDrive/桌面/code-mod-example/code-mod-framework/lib/libnx_min/nx/lib\libnx_min.a(set.o)
                0x000000000000d9c0                setsysGetSettingsItemValueSize
 *fill*         0x000000000000db58        0x8 
 .text.setsysGetSerialNumber
                0x000000000000db60      0x108 C:/Users/oukeh/OneDrive/桌面/code-mod-example/code-mod-framework/lib/libnx_min/nx/lib\libnx_min.a(set.o)
                0x000000000000db60                setsysGetSerialNumber
 *fill*         0x000000000000dc68        0x8 
 .text.setsysGetFlag
                0x000000000000dc70       0xec C:/Users/oukeh/OneDrive/桌面/code-mod-example/code-mod-framework/lib/libnx_min/nx/lib\libnx_min.a(set.o)
                0x000000000000dc70                setsysGetFlag
 *fill*         0x000000000000dd5c        0x4 
 .text.setsysSetFlag
                0x000000000000dd60       0xd0 C:/Users/oukeh/OneDrive/桌面/code-mod-example/code-mod-framework/lib/libnx_min/nx/lib\libnx_min.a(set.o)
                0x000000000000dd60                setsysSetFlag
 .text.setsysGetFirmwareVersion
                0x000000000000de30       0x44 C:/Users/oukeh/OneDrive/桌面/code-mod-example/code-mod-framework/lib/libnx_min/nx/lib\libnx_min.a(set.o)
                0x000000000000de30                setsysGetFirmwareVersion
 *fill*         0x000000000000de74        0xc 
 .text.setsysBindFatalDirtyFlagEvent
                0x000000000000de80      0x13c C:/Users/oukeh/OneDrive/桌面/code-mod-example/code-mod-framework/lib/libnx_min/nx/lib\libnx_min.a(set.o)
                0x000000000000de80                setsysBindFatalDirtyFlagEvent
 *fill*         0x000000000000dfbc        0x4 
 .text.setsysGetFatalDirtyFlags
                0x000000000000dfc0       0xf8 C:/Users/oukeh/OneDrive/桌面/code-mod-example/code-mod-framework/lib/libnx_min/nx/lib\libnx_min.a(set.o)
                0x000000000000dfc0                setsysGetFatalDirtyFlags
 *fill*         0x000000000000e0b8        0x8 
 .text.setsysGetDeviceNickname
                0x000000000000e0c0       0xf8 C:/Users/oukeh/OneDrive/桌面/code-mod-example/code-mod-framework/lib/libnx_min/nx/lib\libnx_min.a(set.o)
                0x000000000000e0c0                setsysGetDeviceNickname
 *fill*         0x000000000000e1b8        0x8 
 .text.setsysSetDeviceNickname
                0x000000000000e1c0      0x134 C:/Users/oukeh/OneDrive/桌面/code-mod-example/code-mod-framework/lib/libnx_min/nx/lib\libnx_min.a(set.o)
                0x000000000000e1c0                setsysSetDeviceNickname
 *fill*         0x000000000000e2f4        0xc 
 .text._fatalImpl
                0x000000000000e300      0x140 C:/Users/oukeh/OneDrive/桌面/code-mod-example/code-mod-framework/lib/libnx_min/nx/lib\libnx_min.a(fatal.o)
 .text.fatalWithType
                0x000000000000e440       0x14 C:/Users/oukeh/OneDrive/桌面/code-mod-example/code-mod-framework/lib/libnx_min/nx/lib\libnx_min.a(fatal.o)
                0x000000000000e440                fatalWithType
 *fill*         0x000000000000e454        0xc 
 .text.fatalSimple
                0x000000000000e460       0x14 C:/Users/oukeh/OneDrive/桌面/code-mod-example/code-mod-framework/lib/libnx_min/nx/lib\libnx_min.a(fatal.o)
                0x000000000000e460                fatalSimple
 *fill*         0x000000000000e474        0xc 
 .text.fatalWithContext
                0x000000000000e480       0x14 C:/Users/oukeh/OneDrive/桌面/code-mod-example/code-mod-framework/lib/libnx_min/nx/lib\libnx_min.a(fatal.o)
                0x000000000000e480                fatalWithContext
 *fill*         0x000000000000e494        0xc 
 .text.ipcCloseObjectById
                0x000000000000e4a0       0x34 C:/Users/oukeh/OneDrive/桌面/code-mod-example/code-mod-framework/lib/libnx_min/nx/lib\libnx_min.a(sm.o)
 *fill*         0x000000000000e4d4        0xc 
 .text.smAddOverrideHandle
                0x000000000000e4e0       0x44 C:/Users/oukeh/OneDrive/桌面/code-mod-example/code-mod-framework/lib/libnx_min/nx/lib\libnx_min.a(sm.o)
                0x000000000000e4e0                smAddOverrideHandle
 *fill*         0x000000000000e524        0xc 
 .text.smGetServiceOverride
                0x000000000000e530       0x60 C:/Users/oukeh/OneDrive/桌面/code-mod-example/code-mod-framework/lib/libnx_min/nx/lib\libnx_min.a(sm.o)
                0x000000000000e530                smGetServiceOverride
 .text.smHasInitialized
                0x000000000000e590       0x14 C:/Users/oukeh/OneDrive/桌面/code-mod-example/code-mod-framework/lib/libnx_min/nx/lib\libnx_min.a(sm.o)
                0x000000000000e590                smHasInitialized
 *fill*         0x000000000000e5a4        0xc 
 .text.smExit   0x000000000000e5b0       0x9c C:/Users/oukeh/OneDrive/桌面/code-mod-example/code-mod-framework/lib/libnx_min/nx/lib\libnx_min.a(sm.o)
                0x000000000000e5b0                smExit
 *fill*         0x000000000000e64c        0x4 
 .text.smGetServiceSession
                0x000000000000e650        0xc C:/Users/oukeh/OneDrive/桌面/code-mod-example/code-mod-framework/lib/libnx_min/nx/lib\libnx_min.a(sm.o)
                0x000000000000e650                smGetServiceSession
 *fill*         0x000000000000e65c        0x4 
 .text.smEncodeName
                0x000000000000e660       0x38 C:/Users/oukeh/OneDrive/桌面/code-mod-example/code-mod-framework/lib/libnx_min/nx/lib\libnx_min.a(sm.o)
                0x000000000000e660                smEncodeName
 *fill*         0x000000000000e698        0x8 
 .text.smGetServiceOriginal
                0x000000000000e6a0      0x22c C:/Users/oukeh/OneDrive/桌面/code-mod-example/code-mod-framework/lib/libnx_min/nx/lib\libnx_min.a(sm.o)
                0x000000000000e6a0                smGetServiceOriginal
 *fill*         0x000000000000e8cc        0x4 
 .text.smInitialize
                0x000000000000e8d0      0x27c C:/Users/oukeh/OneDrive/桌面/code-mod-example/code-mod-framework/lib/libnx_min/nx/lib\libnx_min.a(sm.o)
                0x000000000000e8d0                smInitialize
 *fill*         0x000000000000eb4c        0x4 
 .text.smGetService
                0x000000000000eb50       0x74 C:/Users/oukeh/OneDrive/桌面/code-mod-example/code-mod-framework/lib/libnx_min/nx/lib\libnx_min.a(sm.o)
                0x000000000000eb50                smGetService
 *fill*         0x000000000000ebc4        0xc 
 .text.smRegisterService
                0x000000000000ebd0      0x25c C:/Users/oukeh/OneDrive/桌面/code-mod-example/code-mod-framework/lib/libnx_min/nx/lib\libnx_min.a(sm.o)
                0x000000000000ebd0                smRegisterService
 *fill*         0x000000000000ee2c        0x4 
 .text.smUnregisterService
                0x000000000000ee30      0x1ac C:/Users/oukeh/OneDrive/桌面/code-mod-example/code-mod-framework/lib/libnx_min/nx/lib\libnx_min.a(sm.o)
                0x000000000000ee30                smUnregisterService
 *fill*         0x000000000000efdc        0x4 
 .text._hidGetDeviceHandles.part.7
                0x000000000000efe0       0xec C:/Users/oukeh/OneDrive/桌面/code-mod-example/code-mod-framework/lib/libnx_min/nx/lib\libnx_min.a(hid.o)
 *fill*         0x000000000000f0cc        0x4 
 .text.ipcCloseObjectById
                0x000000000000f0d0       0x34 C:/Users/oukeh/OneDrive/桌面/code-mod-example/code-mod-framework/lib/libnx_min/nx/lib\libnx_min.a(hid.o)
 *fill*         0x000000000000f104        0xc 
 .text._hidActivateVibrationDevice
                0x000000000000f110       0xc8 C:/Users/oukeh/OneDrive/桌面/code-mod-example/code-mod-framework/lib/libnx_min/nx/lib\libnx_min.a(hid.o)
 *fill*         0x000000000000f1d8        0x8 
 .text._hidGetSharedMemoryHandle.constprop.17
                0x000000000000f1e0      0x124 C:/Users/oukeh/OneDrive/桌面/code-mod-example/code-mod-framework/lib/libnx_min/nx/lib\libnx_min.a(hid.o)
 *fill*         0x000000000000f304        0xc 
 .text._hidCreateActiveVibrationDeviceList
                0x000000000000f310      0x134 C:/Users/oukeh/OneDrive/桌面/code-mod-example/code-mod-framework/lib/libnx_min/nx/lib\libnx_min.a(hid.o)
 *fill*         0x000000000000f444        0xc 
 .text._hidCmdWithNoInput
                0x000000000000f450      0x100 C:/Users/oukeh/OneDrive/桌面/code-mod-example/code-mod-framework/lib/libnx_min/nx/lib\libnx_min.a(hid.o)
 .text._hidCreateAppletResource.constprop.16
                0x000000000000f550      0x134 C:/Users/oukeh/OneDrive/桌面/code-mod-example/code-mod-framework/lib/libnx_min/nx/lib\libnx_min.a(hid.o)
 *fill*         0x000000000000f684        0xc 
 .text._hidCmdWithInputU32
                0x000000000000f690      0x10c C:/Users/oukeh/OneDrive/桌面/code-mod-example/code-mod-framework/lib/libnx_min/nx/lib\libnx_min.a(hid.o)
 *fill*         0x000000000000f79c        0x4 
 .text._hidCmdWithInputU64.constprop.18
                0x000000000000f7a0      0x108 C:/Users/oukeh/OneDrive/桌面/code-mod-example/code-mod-framework/lib/libnx_min/nx/lib\libnx_min.a(hid.o)
 *fill*         0x000000000000f8a8        0x8 
 .text._hidInitializeSevenSixAxisSensor.isra.11.constprop.19
                0x000000000000f8b0      0x1f8 C:/Users/oukeh/OneDrive/桌面/code-mod-example/code-mod-framework/lib/libnx_min/nx/lib\libnx_min.a(hid.o)
 *fill*         0x000000000000faa8        0x8 
 .text.hidReset
                0x000000000000fab0      0x1f8 C:/Users/oukeh/OneDrive/桌面/code-mod-example/code-mod-framework/lib/libnx_min/nx/lib\libnx_min.a(hid.o)
                0x000000000000fab0                hidReset
 *fill*         0x000000000000fca8        0x8 
 .text.hidGetSessionService
                0x000000000000fcb0        0xc C:/Users/oukeh/OneDrive/桌面/code-mod-example/code-mod-framework/lib/libnx_min/nx/lib\libnx_min.a(hid.o)
                0x000000000000fcb0                hidGetSessionService
 *fill*         0x000000000000fcbc        0x4 
 .text.hidGetSharedmemAddr
                0x000000000000fcc0        0xc C:/Users/oukeh/OneDrive/桌面/code-mod-example/code-mod-framework/lib/libnx_min/nx/lib\libnx_min.a(hid.o)
                0x000000000000fcc0                hidGetSharedmemAddr
 *fill*         0x000000000000fccc        0x4 
 .text.hidSetControllerLayout
                0x000000000000fcd0       0x54 C:/Users/oukeh/OneDrive/桌面/code-mod-example/code-mod-framework/lib/libnx_min/nx/lib\libnx_min.a(hid.o)
                0x000000000000fcd0                hidSetControllerLayout
 *fill*         0x000000000000fd24        0xc 
 .text.hidGetControllerLayout
                0x000000000000fd30       0x50 C:/Users/oukeh/OneDrive/桌面/code-mod-example/code-mod-framework/lib/libnx_min/nx/lib\libnx_min.a(hid.o)
                0x000000000000fd30                hidGetControllerLayout
 .text.hidGetControllerType
                0x000000000000fd80       0x78 C:/Users/oukeh/OneDrive/桌面/code-mod-example/code-mod-framework/lib/libnx_min/nx/lib\libnx_min.a(hid.o)
                0x000000000000fd80                hidGetControllerType
 *fill*         0x000000000000fdf8        0x8 
 .text.hidGetControllerColors
                0x000000000000fe00       0xd4 C:/Users/oukeh/OneDrive/桌面/code-mod-example/code-mod-framework/lib/libnx_min/nx/lib\libnx_min.a(hid.o)
                0x000000000000fe00                hidGetControllerColors
 *fill*         0x000000000000fed4        0xc 
 .text.hidIsControllerConnected
                0x000000000000fee0       0x7c C:/Users/oukeh/OneDrive/桌面/code-mod-example/code-mod-framework/lib/libnx_min/nx/lib\libnx_min.a(hid.o)
                0x000000000000fee0                hidIsControllerConnected
 *fill*         0x000000000000ff5c        0x4 
 .text.hidGetControllerDeviceType
                0x000000000000ff60       0x70 C:/Users/oukeh/OneDrive/桌面/code-mod-example/code-mod-framework/lib/libnx_min/nx/lib\libnx_min.a(hid.o)
                0x000000000000ff60                hidGetControllerDeviceType
 .text.hidGetControllerFlags
                0x000000000000ffd0       0x90 C:/Users/oukeh/OneDrive/桌面/code-mod-example/code-mod-framework/lib/libnx_min/nx/lib\libnx_min.a(hid.o)
                0x000000000000ffd0                hidGetControllerFlags
 .text.hidGetControllerPowerInfo
                0x0000000000010060      0x114 C:/Users/oukeh/OneDrive/桌面/code-mod-example/code-mod-framework/lib/libnx_min/nx/lib\libnx_min.a(hid.o)
                0x0000000000010060                hidGetControllerPowerInfo
 *fill*         0x0000000000010174        0xc 
 .text.hidKeysHeld
                0x0000000000010180       0x6c C:/Users/oukeh/OneDrive/桌面/code-mod-example/code-mod-framework/lib/libnx_min/nx/lib\libnx_min.a(hid.o)
                0x0000000000010180                hidKeysHeld
 *fill*         0x00000000000101ec        0x4 
 .text.hidKeysDown
                0x00000000000101f0       0x6c C:/Users/oukeh/OneDrive/桌面/code-mod-example/code-mod-framework/lib/libnx_min/nx/lib\libnx_min.a(hid.o)
                0x00000000000101f0                hidKeysDown
 *fill*         0x000000000001025c        0x4 
 .text.hidKeysUp
                0x0000000000010260       0x6c C:/Users/oukeh/OneDrive/桌面/code-mod-example/code-mod-framework/lib/libnx_min/nx/lib\libnx_min.a(hid.o)
                0x0000000000010260                hidKeysUp
 *fill*         0x00000000000102cc        0x4 
 .text.hidMouseButtonsHeld
                0x00000000000102d0       0x3c C:/Users/oukeh/OneDrive/桌面/code-mod-example/code-mod-framework/lib/libnx_min/nx/lib\libnx_min.a(hid.o)
                0x00000000000102d0                hidMouseButtonsHeld
 *fill*         0x000000000001030c        0x4 
 .text.hidMouseButtonsDown
                0x0000000000010310       0x3c C:/Users/oukeh/OneDrive/桌面/code-mod-example/code-mod-framework/lib/libnx_min/nx/lib\libnx_min.a(hid.o)
                0x0000000000010310                hidMouseButtonsDown
 *fill*         0x000000000001034c        0x4 
 .text.hidMouseButtonsUp
                0x0000000000010350       0x3c C:/Users/oukeh/OneDrive/桌面/code-mod-example/code-mod-framework/lib/libnx_min/nx/lib\libnx_min.a(hid.o)
                0x0000000000010350                hidMouseButtonsUp
 *fill*         0x000000000001038c        0x4 
 .text.hidMouseRead
                0x0000000000010390       0x48 C:/Users/oukeh/OneDrive/桌面/code-mod-example/code-mod-framework/lib/libnx_min/nx/lib\libnx_min.a(hid.o)
                0x0000000000010390                hidMouseRead
 *fill*         0x00000000000103d8        0x8 
 .text.hidMouseMultiRead
                0x00000000000103e0      0x150 C:/Users/oukeh/OneDrive/桌面/code-mod-example/code-mod-framework/lib/libnx_min/nx/lib\libnx_min.a(hid.o)
                0x00000000000103e0                hidMouseMultiRead
 .text.hidKeyboardModifierHeld
                0x0000000000010530       0x48 C:/Users/oukeh/OneDrive/桌面/code-mod-example/code-mod-framework/lib/libnx_min/nx/lib\libnx_min.a(hid.o)
                0x0000000000010530                hidKeyboardModifierHeld
 *fill*         0x0000000000010578        0x8 
 .text.hidKeyboardModifierDown
                0x0000000000010580       0x48 C:/Users/oukeh/OneDrive/桌面/code-mod-example/code-mod-framework/lib/libnx_min/nx/lib\libnx_min.a(hid.o)
                0x0000000000010580                hidKeyboardModifierDown
 *fill*         0x00000000000105c8        0x8 
 .text.hidKeyboardModifierUp
                0x00000000000105d0       0x48 C:/Users/oukeh/OneDrive/桌面/code-mod-example/code-mod-framework/lib/libnx_min/nx/lib\libnx_min.a(hid.o)
                0x00000000000105d0                hidKeyboardModifierUp
 *fill*         0x0000000000010618        0x8 
 .text.hidKeyboardHeld
                0x0000000000010620       0x60 C:/Users/oukeh/OneDrive/桌面/code-mod-example/code-mod-framework/lib/libnx_min/nx/lib\libnx_min.a(hid.o)
                0x0000000000010620                hidKeyboardHeld
 .text.hidKeyboardDown
                0x0000000000010680       0x60 C:/Users/oukeh/OneDrive/桌面/code-mod-example/code-mod-framework/lib/libnx_min/nx/lib\libnx_min.a(hid.o)
                0x0000000000010680                hidKeyboardDown
 .text.hidKeyboardUp
                0x00000000000106e0       0x60 C:/Users/oukeh/OneDrive/桌面/code-mod-example/code-mod-framework/lib/libnx_min/nx/lib\libnx_min.a(hid.o)
                0x00000000000106e0                hidKeyboardUp
 .text.hidTouchCount
                0x0000000000010740        0xc C:/Users/oukeh/OneDrive/桌面/code-mod-example/code-mod-framework/lib/libnx_min/nx/lib\libnx_min.a(hid.o)
                0x0000000000010740                hidTouchCount
 *fill*         0x000000000001074c        0x4 
 .text.hidScanInput
                0x0000000000010750      0x598 C:/Users/oukeh/OneDrive/桌面/code-mod-example/code-mod-framework/lib/libnx_min/nx/lib\libnx_min.a(hid.o)
                0x0000000000010750                hidScanInput
 *fill*         0x0000000000010ce8        0x8 
 .text.hidTouchRead
                0x0000000000010cf0       0x54 C:/Users/oukeh/OneDrive/桌面/code-mod-example/code-mod-framework/lib/libnx_min/nx/lib\libnx_min.a(hid.o)
                0x0000000000010cf0                hidTouchRead
 *fill*         0x0000000000010d44        0xc 
 .text.hidJoystickRead
                0x0000000000010d50       0xac C:/Users/oukeh/OneDrive/桌面/code-mod-example/code-mod-framework/lib/libnx_min/nx/lib\libnx_min.a(hid.o)
                0x0000000000010d50                hidJoystickRead
 *fill*         0x0000000000010dfc        0x4 
 .text.hidSixAxisSensorValuesRead
                0x0000000000010e00      0x214 C:/Users/oukeh/OneDrive/桌面/code-mod-example/code-mod-framework/lib/libnx_min/nx/lib\libnx_min.a(hid.o)
                0x0000000000010e00                hidSixAxisSensorValuesRead
 *fill*         0x0000000000011014        0xc 
 .text.hidGetHandheldMode
                0x0000000000011020       0x14 C:/Users/oukeh/OneDrive/桌面/code-mod-example/code-mod-framework/lib/libnx_min/nx/lib\libnx_min.a(hid.o)
                0x0000000000011020                hidGetHandheldMode
 *fill*         0x0000000000011034        0xc 
 .text.hidSetSupportedNpadIdType
                0x0000000000011040      0x198 C:/Users/oukeh/OneDrive/桌面/code-mod-example/code-mod-framework/lib/libnx_min/nx/lib\libnx_min.a(hid.o)
                0x0000000000011040                hidSetSupportedNpadIdType
 *fill*         0x00000000000111d8        0x8 
 .text.hidSetSupportedNpadStyleSet
                0x00000000000111e0        0xc C:/Users/oukeh/OneDrive/桌面/code-mod-example/code-mod-framework/lib/libnx_min/nx/lib\libnx_min.a(hid.o)
                0x00000000000111e0                hidSetSupportedNpadStyleSet
 *fill*         0x00000000000111ec        0x4 
 .text.hidAcquireNpadStyleSetUpdateEventHandle
                0x00000000000111f0      0x194 C:/Users/oukeh/OneDrive/桌面/code-mod-example/code-mod-framework/lib/libnx_min/nx/lib\libnx_min.a(hid.o)
                0x00000000000111f0                hidAcquireNpadStyleSetUpdateEventHandle
 *fill*         0x0000000000011384        0xc 
 .text.hidSetNpadJoyHoldType
                0x0000000000011390        0x8 C:/Users/oukeh/OneDrive/桌面/code-mod-example/code-mod-framework/lib/libnx_min/nx/lib\libnx_min.a(hid.o)
                0x0000000000011390                hidSetNpadJoyHoldType
 *fill*         0x0000000000011398        0x8 
 .text.hidSetNpadJoyAssignmentModeSingleByDefault
                0x00000000000113a0        0xc C:/Users/oukeh/OneDrive/桌面/code-mod-example/code-mod-framework/lib/libnx_min/nx/lib\libnx_min.a(hid.o)
                0x00000000000113a0                hidSetNpadJoyAssignmentModeSingleByDefault
 *fill*         0x00000000000113ac        0x4 
 .text.hidSetNpadJoyAssignmentModeDual
                0x00000000000113b0        0xc C:/Users/oukeh/OneDrive/桌面/code-mod-example/code-mod-framework/lib/libnx_min/nx/lib\libnx_min.a(hid.o)
                0x00000000000113b0                hidSetNpadJoyAssignmentModeDual
 *fill*         0x00000000000113bc        0x4 
 .text.hidMergeSingleJoyAsDualJoy
                0x00000000000113c0      0x110 C:/Users/oukeh/OneDrive/桌面/code-mod-example/code-mod-framework/lib/libnx_min/nx/lib\libnx_min.a(hid.o)
                0x00000000000113c0                hidMergeSingleJoyAsDualJoy
 .text.hidGetVibrationDeviceInfo
                0x00000000000114d0       0xf8 C:/Users/oukeh/OneDrive/桌面/code-mod-example/code-mod-framework/lib/libnx_min/nx/lib\libnx_min.a(hid.o)
                0x00000000000114d0                hidGetVibrationDeviceInfo
 *fill*         0x00000000000115c8        0x8 
 .text.hidSendVibrationValue
                0x00000000000115d0      0x120 C:/Users/oukeh/OneDrive/桌面/code-mod-example/code-mod-framework/lib/libnx_min/nx/lib\libnx_min.a(hid.o)
                0x00000000000115d0                hidSendVibrationValue
 .text.hidGetActualVibrationValue
                0x00000000000116f0      0x128 C:/Users/oukeh/OneDrive/桌面/code-mod-example/code-mod-framework/lib/libnx_min/nx/lib\libnx_min.a(hid.o)
                0x00000000000116f0                hidGetActualVibrationValue
 *fill*         0x0000000000011818        0x8 
 .text.hidPermitVibration
                0x0000000000011820       0xd0 C:/Users/oukeh/OneDrive/桌面/code-mod-example/code-mod-framework/lib/libnx_min/nx/lib\libnx_min.a(hid.o)
                0x0000000000011820                hidPermitVibration
 .text.hidIsVibrationPermitted
                0x00000000000118f0       0xf4 C:/Users/oukeh/OneDrive/桌面/code-mod-example/code-mod-framework/lib/libnx_min/nx/lib\libnx_min.a(hid.o)
                0x00000000000118f0                hidIsVibrationPermitted
 *fill*         0x00000000000119e4        0xc 
 .text.hidSendVibrationValues
                0x00000000000119f0      0x144 C:/Users/oukeh/OneDrive/桌面/code-mod-example/code-mod-framework/lib/libnx_min/nx/lib\libnx_min.a(hid.o)
                0x00000000000119f0                hidSendVibrationValues
 *fill*         0x0000000000011b34        0xc 
 .text.hidInitializeVibrationDevices
                0x0000000000011b40      0x114 C:/Users/oukeh/OneDrive/桌面/code-mod-example/code-mod-framework/lib/libnx_min/nx/lib\libnx_min.a(hid.o)
                0x0000000000011b40                hidInitializeVibrationDevices
 *fill*         0x0000000000011c54        0xc 
 .text.hidGetSixAxisSensorHandles
                0x0000000000011c60       0x2c C:/Users/oukeh/OneDrive/桌面/code-mod-example/code-mod-framework/lib/libnx_min/nx/lib\libnx_min.a(hid.o)
                0x0000000000011c60                hidGetSixAxisSensorHandles
 *fill*         0x0000000000011c8c        0x4 
 .text.hidStartSixAxisSensor
                0x0000000000011c90       0x84 C:/Users/oukeh/OneDrive/桌面/code-mod-example/code-mod-framework/lib/libnx_min/nx/lib\libnx_min.a(hid.o)
                0x0000000000011c90                hidStartSixAxisSensor
 *fill*         0x0000000000011d14        0xc 
 .text.hidStopSixAxisSensor
                0x0000000000011d20       0x80 C:/Users/oukeh/OneDrive/桌面/code-mod-example/code-mod-framework/lib/libnx_min/nx/lib\libnx_min.a(hid.o)
                0x0000000000011d20                hidStopSixAxisSensor
 .text.hidStartSevenSixAxisSensor
                0x0000000000011da0       0x30 C:/Users/oukeh/OneDrive/桌面/code-mod-example/code-mod-framework/lib/libnx_min/nx/lib\libnx_min.a(hid.o)
                0x0000000000011da0                hidStartSevenSixAxisSensor
 .text.hidStopSevenSixAxisSensor
                0x0000000000011dd0       0x30 C:/Users/oukeh/OneDrive/桌面/code-mod-example/code-mod-framework/lib/libnx_min/nx/lib\libnx_min.a(hid.o)
                0x0000000000011dd0                hidStopSevenSixAxisSensor
 .text.hidFinalizeSevenSixAxisSensor
                0x0000000000011e00       0x80 C:/Users/oukeh/OneDrive/桌面/code-mod-example/code-mod-framework/lib/libnx_min/nx/lib\libnx_min.a(hid.o)
                0x0000000000011e00                hidFinalizeSevenSixAxisSensor
 .text.hidExit  0x0000000000011e80      0x134 C:/Users/oukeh/OneDrive/桌面/code-mod-example/code-mod-framework/lib/libnx_min/nx/lib\libnx_min.a(hid.o)
                0x0000000000011e80                hidExit
 *fill*         0x0000000000011fb4        0xc 
 .text.hidInitialize
                0x0000000000011fc0      0x168 C:/Users/oukeh/OneDrive/桌面/code-mod-example/code-mod-framework/lib/libnx_min/nx/lib\libnx_min.a(hid.o)
                0x0000000000011fc0                hidInitialize
 *fill*         0x0000000000012128        0x8 
 .text.hidInitializeSevenSixAxisSensor
                0x0000000000012130      0x130 C:/Users/oukeh/OneDrive/桌面/code-mod-example/code-mod-framework/lib/libnx_min/nx/lib\libnx_min.a(hid.o)
                0x0000000000012130                hidInitializeSevenSixAxisSensor
 .text.hidSetSevenSixAxisSensorFusionStrength
                0x0000000000012260      0x1f8 C:/Users/oukeh/OneDrive/桌面/code-mod-example/code-mod-framework/lib/libnx_min/nx/lib\libnx_min.a(hid.o)
                0x0000000000012260                hidSetSevenSixAxisSensorFusionStrength
 *fill*         0x0000000000012458        0x8 
 .text.hidGetSevenSixAxisSensorFusionStrength
                0x0000000000012460      0x1fc C:/Users/oukeh/OneDrive/桌面/code-mod-example/code-mod-framework/lib/libnx_min/nx/lib\libnx_min.a(hid.o)
                0x0000000000012460                hidGetSevenSixAxisSensorFusionStrength
 *fill*         0x000000000001265c        0x4 
 .text.hidResetSevenSixAxisSensorTimestamp
                0x0000000000012660       0x30 C:/Users/oukeh/OneDrive/桌面/code-mod-example/code-mod-framework/lib/libnx_min/nx/lib\libnx_min.a(hid.o)
                0x0000000000012660                hidResetSevenSixAxisSensorTimestamp
 .text.ipcCloseObjectById
                0x0000000000012690       0x34 C:/Users/oukeh/OneDrive/桌面/code-mod-example/code-mod-framework/lib/libnx_min/nx/lib\libnx_min.a(time.o)
 *fill*         0x00000000000126c4        0xc 
 .text._timeGetSession
                0x00000000000126d0      0x12c C:/Users/oukeh/OneDrive/桌面/code-mod-example/code-mod-framework/lib/libnx_min/nx/lib\libnx_min.a(time.o)
 *fill*         0x00000000000127fc        0x4 
 .text.timeExit
                0x0000000000012800      0x1ec C:/Users/oukeh/OneDrive/桌面/code-mod-example/code-mod-framework/lib/libnx_min/nx/lib\libnx_min.a(time.o)
                0x0000000000012800                timeExit
 *fill*         0x00000000000129ec        0x4 
 .text.timeInitialize
                0x00000000000129f0       0xd8 C:/Users/oukeh/OneDrive/桌面/code-mod-example/code-mod-framework/lib/libnx_min/nx/lib\libnx_min.a(time.o)
                0x00000000000129f0                timeInitialize
 *fill*         0x0000000000012ac8        0x8 
 .text.timeGetSessionService
                0x0000000000012ad0        0xc C:/Users/oukeh/OneDrive/桌面/code-mod-example/code-mod-framework/lib/libnx_min/nx/lib\libnx_min.a(time.o)
                0x0000000000012ad0                timeGetSessionService
 *fill*         0x0000000000012adc        0x4 
 .text.timeGetCurrentTime
                0x0000000000012ae0      0x124 C:/Users/oukeh/OneDrive/桌面/code-mod-example/code-mod-framework/lib/libnx_min/nx/lib\libnx_min.a(time.o)
                0x0000000000012ae0                timeGetCurrentTime
 *fill*         0x0000000000012c04        0xc 
 .text.timeSetCurrentTime
                0x0000000000012c10      0x104 C:/Users/oukeh/OneDrive/桌面/code-mod-example/code-mod-framework/lib/libnx_min/nx/lib\libnx_min.a(time.o)
                0x0000000000012c10                timeSetCurrentTime
 *fill*         0x0000000000012d14        0xc 
 .text.timeToCalendarTimeWithMyRule
                0x0000000000012d20      0x118 C:/Users/oukeh/OneDrive/桌面/code-mod-example/code-mod-framework/lib/libnx_min/nx/lib\libnx_min.a(time.o)
                0x0000000000012d20                timeToCalendarTimeWithMyRule
 *fill*         0x0000000000012e38        0x8 
 .text.ipcPrepareHeader
                0x0000000000012e40      0x220 C:/Users/oukeh/OneDrive/桌面/code-mod-example/code-mod-framework/lib/libnx_min/nx/lib\libnx_min.a(applet.o)
 .text.ipcParse
                0x0000000000013060      0x22c C:/Users/oukeh/OneDrive/桌面/code-mod-example/code-mod-framework/lib/libnx_min/nx/lib\libnx_min.a(applet.o)
 *fill*         0x000000000001328c        0x4 
 .text.serviceIpcParse
                0x0000000000013290       0xb0 C:/Users/oukeh/OneDrive/桌面/code-mod-example/code-mod-framework/lib/libnx_min/nx/lib\libnx_min.a(applet.o)
 .text.ipcConvertSessionToDomain
                0x0000000000013340       0x78 C:/Users/oukeh/OneDrive/桌面/code-mod-example/code-mod-framework/lib/libnx_min/nx/lib\libnx_min.a(applet.o)
 *fill*         0x00000000000133b8        0x8 
 .text.ipcQueryPointerBufferSize
                0x00000000000133c0       0x7c C:/Users/oukeh/OneDrive/桌面/code-mod-example/code-mod-framework/lib/libnx_min/nx/lib\libnx_min.a(applet.o)
 *fill*         0x000000000001343c        0x4 
 .text.ipcCloneSession.constprop.52
                0x0000000000013440       0x84 C:/Users/oukeh/OneDrive/桌面/code-mod-example/code-mod-framework/lib/libnx_min/nx/lib\libnx_min.a(applet.o)
 *fill*         0x00000000000134c4        0xc 
 .text.ipcCloseObjectById
                0x00000000000134d0       0x34 C:/Users/oukeh/OneDrive/桌面/code-mod-example/code-mod-framework/lib/libnx_min/nx/lib\libnx_min.a(applet.o)
 *fill*         0x0000000000013504        0xc 
 .text.serviceClose
                0x0000000000013510       0x6c C:/Users/oukeh/OneDrive/桌面/code-mod-example/code-mod-framework/lib/libnx_min/nx/lib\libnx_min.a(applet.o)
 *fill*         0x000000000001357c        0x4 
 .text._appletCmdInHandle64
                0x0000000000013580      0x204 C:/Users/oukeh/OneDrive/桌面/code-mod-example/code-mod-framework/lib/libnx_min/nx/lib\libnx_min.a(applet.o)
 *fill*         0x0000000000013784        0xc 
 .text._appletReceiveMessage
                0x0000000000013790      0x19c C:/Users/oukeh/OneDrive/桌面/code-mod-example/code-mod-framework/lib/libnx_min/nx/lib\libnx_min.a(applet.o)
 *fill*         0x000000000001392c        0x4 
 .text._appletCmdNoIO
                0x0000000000013930      0x164 C:/Users/oukeh/OneDrive/桌面/code-mod-example/code-mod-framework/lib/libnx_min/nx/lib\libnx_min.a(applet.o)
 *fill*         0x0000000000013a94        0xc 
 .text._appletGetOperationMode.constprop.43
                0x0000000000013aa0      0x18c C:/Users/oukeh/OneDrive/桌面/code-mod-example/code-mod-framework/lib/libnx_min/nx/lib\libnx_min.a(applet.o)
 *fill*         0x0000000000013c2c        0x4 
 .text._appletGetCurrentFocusState.constprop.45
                0x0000000000013c30      0x18c C:/Users/oukeh/OneDrive/桌面/code-mod-example/code-mod-framework/lib/libnx_min/nx/lib\libnx_min.a(applet.o)
 *fill*         0x0000000000013dbc        0x4 
 .text._appletGetPerformanceMode.constprop.44
                0x0000000000013dc0      0x18c C:/Users/oukeh/OneDrive/桌面/code-mod-example/code-mod-framework/lib/libnx_min/nx/lib\libnx_min.a(applet.o)
 *fill*         0x0000000000013f4c        0x4 
 .text._appletCmdNoInOutBool
                0x0000000000013f50      0x184 C:/Users/oukeh/OneDrive/桌面/code-mod-example/code-mod-framework/lib/libnx_min/nx/lib\libnx_min.a(applet.o)
 *fill*         0x00000000000140d4        0xc 
 .text._appletGetSession
                0x00000000000140e0      0x1d8 C:/Users/oukeh/OneDrive/桌面/code-mod-example/code-mod-framework/lib/libnx_min/nx/lib\libnx_min.a(applet.o)
 *fill*         0x00000000000142b8        0x8 
 .text._appletCmdNoInOut64
                0x00000000000142c0      0x17c C:/Users/oukeh/OneDrive/桌面/code-mod-example/code-mod-framework/lib/libnx_min/nx/lib\libnx_min.a(applet.o)
 *fill*         0x000000000001443c        0x4 
 .text._appletSetOperationModeChangedNotification.constprop.46
                0x0000000000014440      0x164 C:/Users/oukeh/OneDrive/桌面/code-mod-example/code-mod-framework/lib/libnx_min/nx/lib\libnx_min.a(applet.o)
 *fill*         0x00000000000145a4        0xc 
 .text._appletCmdInU8
                0x00000000000145b0      0x17c C:/Users/oukeh/OneDrive/桌面/code-mod-example/code-mod-framework/lib/libnx_min/nx/lib\libnx_min.a(applet.o)
 *fill*         0x000000000001472c        0x4 
 .text._appletSetOutOfFocusSuspendingEnabled
                0x0000000000014730      0x16c C:/Users/oukeh/OneDrive/桌面/code-mod-example/code-mod-framework/lib/libnx_min/nx/lib\libnx_min.a(applet.o)
 *fill*         0x000000000001489c        0x4 
 .text._appletSetPerformanceModeChangedNotification.constprop.47
                0x00000000000148a0      0x164 C:/Users/oukeh/OneDrive/桌面/code-mod-example/code-mod-framework/lib/libnx_min/nx/lib\libnx_min.a(applet.o)
 *fill*         0x0000000000014a04        0xc 
 .text._appletCmdInU64.constprop.37
                0x0000000000014a10      0x16c C:/Users/oukeh/OneDrive/桌面/code-mod-example/code-mod-framework/lib/libnx_min/nx/lib\libnx_min.a(applet.o)
 *fill*         0x0000000000014b7c        0x4 
 .text._appletCmdInU32.constprop.48
                0x0000000000014b80      0x16c C:/Users/oukeh/OneDrive/桌面/code-mod-example/code-mod-framework/lib/libnx_min/nx/lib\libnx_min.a(applet.o)
 *fill*         0x0000000000014cec        0x4 
 .text._appletSetFocusHandlingMode
                0x0000000000014cf0      0x17c C:/Users/oukeh/OneDrive/桌面/code-mod-example/code-mod-framework/lib/libnx_min/nx/lib\libnx_min.a(applet.o)
 *fill*         0x0000000000014e6c        0x4 
 .text._appletGetHandle.constprop.42
                0x0000000000014e70      0x178 C:/Users/oukeh/OneDrive/桌面/code-mod-example/code-mod-framework/lib/libnx_min/nx/lib\libnx_min.a(applet.o)
 *fill*         0x0000000000014fe8        0x8 
 .text._appletGetEvent.constprop.41
                0x0000000000014ff0       0x54 C:/Users/oukeh/OneDrive/桌面/code-mod-example/code-mod-framework/lib/libnx_min/nx/lib\libnx_min.a(applet.o)
 *fill*         0x0000000000015044        0xc 
 .text._appletWaitLibraryAppletLaunchableEvent
                0x0000000000015050       0x50 C:/Users/oukeh/OneDrive/桌面/code-mod-example/code-mod-framework/lib/libnx_min/nx/lib\libnx_min.a(applet.o)
 .text._appletCreateApplicationAndRequestToStartForQuest.isra.20
                0x00000000000150a0      0x17c C:/Users/oukeh/OneDrive/桌面/code-mod-example/code-mod-framework/lib/libnx_min/nx/lib\libnx_min.a(applet.o)
 *fill*         0x000000000001521c        0x4 
 .text._appletCreateApplicationAndPushAndRequestToStart
                0x0000000000015220      0x1e0 C:/Users/oukeh/OneDrive/桌面/code-mod-example/code-mod-framework/lib/libnx_min/nx/lib\libnx_min.a(applet.o)
 .text._appletCmdNoInOut32.constprop.38
                0x0000000000015400      0x194 C:/Users/oukeh/OneDrive/桌面/code-mod-example/code-mod-framework/lib/libnx_min/nx/lib\libnx_min.a(applet.o)
 *fill*         0x0000000000015594        0xc 
 .text._appletCmdInSession
                0x00000000000155a0      0x1d8 C:/Users/oukeh/OneDrive/桌面/code-mod-example/code-mod-framework/lib/libnx_min/nx/lib\libnx_min.a(applet.o)
 *fill*         0x0000000000015778        0x8 
 .text._appletStorageGetHandle
                0x0000000000015780      0x19c C:/Users/oukeh/OneDrive/桌面/code-mod-example/code-mod-framework/lib/libnx_min/nx/lib\libnx_min.a(applet.o)
 *fill*         0x000000000001591c        0x4 
 .text._appletCreateApplicationAndPushAndRequestToStartForQuest.isra.21
                0x0000000000015920      0x1e8 C:/Users/oukeh/OneDrive/桌面/code-mod-example/code-mod-framework/lib/libnx_min/nx/lib\libnx_min.a(applet.o)
 *fill*         0x0000000000015b08        0x8 
 .text._appletCreateTransferMemoryStorage.isra.25
                0x0000000000015b10      0x1e4 C:/Users/oukeh/OneDrive/桌面/code-mod-example/code-mod-framework/lib/libnx_min/nx/lib\libnx_min.a(applet.o)
 *fill*         0x0000000000015cf4        0xc 
 .text._appletGetSessionIn64.constprop.39
                0x0000000000015d00      0x1c4 C:/Users/oukeh/OneDrive/桌面/code-mod-example/code-mod-framework/lib/libnx_min/nx/lib\libnx_min.a(applet.o)
 *fill*         0x0000000000015ec4        0xc 
 .text._appletStorageAccessorRW
                0x0000000000015ed0      0x314 C:/Users/oukeh/OneDrive/桌面/code-mod-example/code-mod-framework/lib/libnx_min/nx/lib\libnx_min.a(applet.o)
 *fill*         0x00000000000161e4        0xc 
 .text._appletStorageRW
                0x00000000000161f0      0x108 C:/Users/oukeh/OneDrive/桌面/code-mod-example/code-mod-framework/lib/libnx_min/nx/lib\libnx_min.a(applet.o)
 *fill*         0x00000000000162f8        0x8 
 .text._appletCreateLibraryApplet
                0x0000000000016300      0x1c4 C:/Users/oukeh/OneDrive/桌面/code-mod-example/code-mod-framework/lib/libnx_min/nx/lib\libnx_min.a(applet.o)
 *fill*         0x00000000000164c4        0xc 
 .text._appletGetSessionProxy.constprop.40
                0x00000000000164d0      0x1f0 C:/Users/oukeh/OneDrive/桌面/code-mod-example/code-mod-framework/lib/libnx_min/nx/lib\libnx_min.a(applet.o)
 .text.appletGetAppletType
                0x00000000000166c0       0x10 C:/Users/oukeh/OneDrive/桌面/code-mod-example/code-mod-framework/lib/libnx_min/nx/lib\libnx_min.a(applet.o)
                0x00000000000166c0                appletGetAppletType
 .text.appletHook
                0x00000000000166d0       0x28 C:/Users/oukeh/OneDrive/桌面/code-mod-example/code-mod-framework/lib/libnx_min/nx/lib\libnx_min.a(applet.o)
                0x00000000000166d0                appletHook
 *fill*         0x00000000000166f8        0x8 
 .text.appletUnhook
                0x0000000000016700       0x34 C:/Users/oukeh/OneDrive/桌面/code-mod-example/code-mod-framework/lib/libnx_min/nx/lib\libnx_min.a(applet.o)
                0x0000000000016700                appletUnhook
 *fill*         0x0000000000016734        0xc 
 .text.appletSetThemeColorType
                0x0000000000016740        0xc C:/Users/oukeh/OneDrive/桌面/code-mod-example/code-mod-framework/lib/libnx_min/nx/lib\libnx_min.a(applet.o)
                0x0000000000016740                appletSetThemeColorType
 *fill*         0x000000000001674c        0x4 
 .text.appletGetThemeColorType
                0x0000000000016750        0xc C:/Users/oukeh/OneDrive/桌面/code-mod-example/code-mod-framework/lib/libnx_min/nx/lib\libnx_min.a(applet.o)
                0x0000000000016750                appletGetThemeColorType
 *fill*         0x000000000001675c        0x4 
 .text.appletSetFocusHandlingMode
                0x0000000000016760       0xf0 C:/Users/oukeh/OneDrive/桌面/code-mod-example/code-mod-framework/lib/libnx_min/nx/lib\libnx_min.a(applet.o)
                0x0000000000016760                appletSetFocusHandlingMode
 .text.appletGetAppletResourceUserId
                0x0000000000016850       0x28 C:/Users/oukeh/OneDrive/桌面/code-mod-example/code-mod-framework/lib/libnx_min/nx/lib\libnx_min.a(applet.o)
                0x0000000000016850                appletGetAppletResourceUserId
 *fill*         0x0000000000016878        0x8 
 .text._appletGetIndirectLayerConsumerHandle
                0x0000000000016880      0x12c C:/Users/oukeh/OneDrive/桌面/code-mod-example/code-mod-framework/lib/libnx_min/nx/lib\libnx_min.a(applet.o)
 *fill*         0x00000000000169ac        0x4 
 .text._appletHolderCreate
                0x00000000000169b0       0xc0 C:/Users/oukeh/OneDrive/桌面/code-mod-example/code-mod-framework/lib/libnx_min/nx/lib\libnx_min.a(applet.o)
 .text.appletPopLaunchParameter
                0x0000000000016a70      0x194 C:/Users/oukeh/OneDrive/桌面/code-mod-example/code-mod-framework/lib/libnx_min/nx/lib\libnx_min.a(applet.o)
                0x0000000000016a70                appletPopLaunchParameter
 *fill*         0x0000000000016c04        0xc 
 .text.appletGetDesiredLanguage
                0x0000000000016c10       0x3c C:/Users/oukeh/OneDrive/桌面/code-mod-example/code-mod-framework/lib/libnx_min/nx/lib\libnx_min.a(applet.o)
                0x0000000000016c10                appletGetDesiredLanguage
 *fill*         0x0000000000016c4c        0x4 
 .text.appletSetTerminateResult
                0x0000000000016c50      0x14c C:/Users/oukeh/OneDrive/桌面/code-mod-example/code-mod-framework/lib/libnx_min/nx/lib\libnx_min.a(applet.o)
                0x0000000000016c50                appletSetTerminateResult
 *fill*         0x0000000000016d9c        0x4 
 .text.appletSetMediaPlaybackState
                0x0000000000016da0       0x4c C:/Users/oukeh/OneDrive/桌面/code-mod-example/code-mod-framework/lib/libnx_min/nx/lib\libnx_min.a(applet.o)
                0x0000000000016da0                appletSetMediaPlaybackState
 *fill*         0x0000000000016dec        0x4 
 .text.appletBeginBlockingHomeButton
                0x0000000000016df0      0x14c C:/Users/oukeh/OneDrive/桌面/code-mod-example/code-mod-framework/lib/libnx_min/nx/lib\libnx_min.a(applet.o)
                0x0000000000016df0                appletBeginBlockingHomeButton
 *fill*         0x0000000000016f3c        0x4 
 .text.appletEndBlockingHomeButton
                0x0000000000016f40       0x38 C:/Users/oukeh/OneDrive/桌面/code-mod-example/code-mod-framework/lib/libnx_min/nx/lib\libnx_min.a(applet.o)
                0x0000000000016f40                appletEndBlockingHomeButton
 *fill*         0x0000000000016f78        0x8 
 .text.appletNotifyRunning
                0x0000000000016f80      0x174 C:/Users/oukeh/OneDrive/桌面/code-mod-example/code-mod-framework/lib/libnx_min/nx/lib\libnx_min.a(applet.o)
                0x0000000000016f80                appletNotifyRunning
 *fill*         0x00000000000170f4        0xc 
 .text.appletIsGamePlayRecordingSupported
                0x0000000000017100      0x168 C:/Users/oukeh/OneDrive/桌面/code-mod-example/code-mod-framework/lib/libnx_min/nx/lib\libnx_min.a(applet.o)
                0x0000000000017100                appletIsGamePlayRecordingSupported
 *fill*         0x0000000000017268        0x8 
 .text.appletSetGamePlayRecordingState
                0x0000000000017270      0x158 C:/Users/oukeh/OneDrive/桌面/code-mod-example/code-mod-framework/lib/libnx_min/nx/lib\libnx_min.a(applet.o)
                0x0000000000017270                appletSetGamePlayRecordingState
 *fill*         0x00000000000173c8        0x8 
 .text.appletInitializeGamePlayRecording
                0x00000000000173d0      0x138 C:/Users/oukeh/OneDrive/桌面/code-mod-example/code-mod-framework/lib/libnx_min/nx/lib\libnx_min.a(applet.o)
                0x00000000000173d0                appletInitializeGamePlayRecording
 *fill*         0x0000000000017508        0x8 
 .text.appletQueryApplicationPlayStatistics
                0x0000000000017510      0x1c0 C:/Users/oukeh/OneDrive/桌面/code-mod-example/code-mod-framework/lib/libnx_min/nx/lib\libnx_min.a(applet.o)
                0x0000000000017510                appletQueryApplicationPlayStatistics
 .text.appletBeginToWatchShortHomeButtonMessage
                0x00000000000176d0       0x2c C:/Users/oukeh/OneDrive/桌面/code-mod-example/code-mod-framework/lib/libnx_min/nx/lib\libnx_min.a(applet.o)
                0x00000000000176d0                appletBeginToWatchShortHomeButtonMessage
 *fill*         0x00000000000176fc        0x4 
 .text.appletEndToWatchShortHomeButtonMessage
                0x0000000000017700       0x2c C:/Users/oukeh/OneDrive/桌面/code-mod-example/code-mod-framework/lib/libnx_min/nx/lib\libnx_min.a(applet.o)
                0x0000000000017700                appletEndToWatchShortHomeButtonMessage
 *fill*         0x000000000001772c        0x4 
 .text.appletHomeButtonReaderLockAccessorGetEvent
                0x0000000000017730       0xc8 C:/Users/oukeh/OneDrive/桌面/code-mod-example/code-mod-framework/lib/libnx_min/nx/lib\libnx_min.a(applet.o)
                0x0000000000017730                appletHomeButtonReaderLockAccessorGetEvent
 *fill*         0x00000000000177f8        0x8 
 .text.appletIsVrModeEnabled
                0x0000000000017800       0x4c C:/Users/oukeh/OneDrive/桌面/code-mod-example/code-mod-framework/lib/libnx_min/nx/lib\libnx_min.a(applet.o)
                0x0000000000017800                appletIsVrModeEnabled
 *fill*         0x000000000001784c        0x4 
 .text.appletSetVrModeEnabled
                0x0000000000017850       0x78 C:/Users/oukeh/OneDrive/桌面/code-mod-example/code-mod-framework/lib/libnx_min/nx/lib\libnx_min.a(applet.o)
                0x0000000000017850                appletSetVrModeEnabled
 *fill*         0x00000000000178c8        0x8 
 .text.appletSetCpuBoostMode
                0x00000000000178d0       0x50 C:/Users/oukeh/OneDrive/桌面/code-mod-example/code-mod-framework/lib/libnx_min/nx/lib\libnx_min.a(applet.o)
                0x00000000000178d0                appletSetCpuBoostMode
 .text.appletExit
                0x0000000000017920      0x5dc C:/Users/oukeh/OneDrive/桌面/code-mod-example/code-mod-framework/lib/libnx_min/nx/lib\libnx_min.a(applet.o)
                0x0000000000017920                appletExit
 *fill*         0x0000000000017efc        0x4 
 .text.appletInitialize
                0x0000000000017f00      0x4f0 C:/Users/oukeh/OneDrive/桌面/code-mod-example/code-mod-framework/lib/libnx_min/nx/lib\libnx_min.a(applet.o)
                0x0000000000017f00                appletInitialize
 .text._appletExitProcess
                0x00000000000183f0       0x10 C:/Users/oukeh/OneDrive/桌面/code-mod-example/code-mod-framework/lib/libnx_min/nx/lib\libnx_min.a(applet.o)
 .text.appletGetCurrentPerformanceConfiguration
                0x0000000000018400       0x40 C:/Users/oukeh/OneDrive/桌面/code-mod-example/code-mod-framework/lib/libnx_min/nx/lib\libnx_min.a(applet.o)
                0x0000000000018400                appletGetCurrentPerformanceConfiguration
 .text.appletLockExit
                0x0000000000018440       0x10 C:/Users/oukeh/OneDrive/桌面/code-mod-example/code-mod-framework/lib/libnx_min/nx/lib\libnx_min.a(applet.o)
                0x0000000000018440                appletLockExit
 .text.appletUnlockExit
                0x0000000000018450       0x10 C:/Users/oukeh/OneDrive/桌面/code-mod-example/code-mod-framework/lib/libnx_min/nx/lib\libnx_min.a(applet.o)
                0x0000000000018450                appletUnlockExit
 .text.appletSetScreenShotPermission
                0x0000000000018460      0x16c C:/Users/oukeh/OneDrive/桌面/code-mod-example/code-mod-framework/lib/libnx_min/nx/lib\libnx_min.a(applet.o)
                0x0000000000018460                appletSetScreenShotPermission
 *fill*         0x00000000000185cc        0x4 
 .text.appletSetScreenShotImageOrientation
                0x00000000000185d0      0x1c4 C:/Users/oukeh/OneDrive/桌面/code-mod-example/code-mod-framework/lib/libnx_min/nx/lib\libnx_min.a(applet.o)
                0x00000000000185d0                appletSetScreenShotImageOrientation
 *fill*         0x0000000000018794        0xc 
 .text.appletCreateManagedDisplayLayer
                0x00000000000187a0       0x14 C:/Users/oukeh/OneDrive/桌面/code-mod-example/code-mod-framework/lib/libnx_min/nx/lib\libnx_min.a(applet.o)
                0x00000000000187a0                appletCreateManagedDisplayLayer
 *fill*         0x00000000000187b4        0xc 
 .text.appletGetCurrentIlluminance
                0x00000000000187c0      0x168 C:/Users/oukeh/OneDrive/桌面/code-mod-example/code-mod-framework/lib/libnx_min/nx/lib\libnx_min.a(applet.o)
                0x00000000000187c0                appletGetCurrentIlluminance
 *fill*         0x0000000000018928        0x8 
 .text.appletIsIlluminanceAvailable
                0x0000000000018930       0x4c C:/Users/oukeh/OneDrive/桌面/code-mod-example/code-mod-framework/lib/libnx_min/nx/lib\libnx_min.a(applet.o)
                0x0000000000018930                appletIsIlluminanceAvailable
 *fill*         0x000000000001897c        0x4 
 .text.appletGetCurrentIlluminanceEx
                0x0000000000018980      0x19c C:/Users/oukeh/OneDrive/桌面/code-mod-example/code-mod-framework/lib/libnx_min/nx/lib\libnx_min.a(applet.o)
                0x0000000000018980                appletGetCurrentIlluminanceEx
 *fill*         0x0000000000018b1c        0x4 
 .text.appletCreateLibraryApplet
                0x0000000000018b20        0x8 C:/Users/oukeh/OneDrive/桌面/code-mod-example/code-mod-framework/lib/libnx_min/nx/lib\libnx_min.a(applet.o)
                0x0000000000018b20                appletCreateLibraryApplet
 *fill*         0x0000000000018b28        0x8 
 .text.appletCreateLibraryAppletSelf
                0x0000000000018b30        0x8 C:/Users/oukeh/OneDrive/桌面/code-mod-example/code-mod-framework/lib/libnx_min/nx/lib\libnx_min.a(applet.o)
                0x0000000000018b30                appletCreateLibraryAppletSelf
 *fill*         0x0000000000018b38        0x8 
 .text.appletHolderClose
                0x0000000000018b40       0x94 C:/Users/oukeh/OneDrive/桌面/code-mod-example/code-mod-framework/lib/libnx_min/nx/lib\libnx_min.a(applet.o)
                0x0000000000018b40                appletHolderClose
 *fill*         0x0000000000018bd4        0xc 
 .text.appletHolderActive
                0x0000000000018be0       0x10 C:/Users/oukeh/OneDrive/桌面/code-mod-example/code-mod-framework/lib/libnx_min/nx/lib\libnx_min.a(applet.o)
                0x0000000000018be0                appletHolderActive
 .text.appletHolderGetIndirectLayerConsumerHandle
                0x0000000000018bf0       0x74 C:/Users/oukeh/OneDrive/桌面/code-mod-example/code-mod-framework/lib/libnx_min/nx/lib\libnx_min.a(applet.o)
                0x0000000000018bf0                appletHolderGetIndirectLayerConsumerHandle
 *fill*         0x0000000000018c64        0xc 
 .text.appletHolderStart
                0x0000000000018c70       0x50 C:/Users/oukeh/OneDrive/桌面/code-mod-example/code-mod-framework/lib/libnx_min/nx/lib\libnx_min.a(applet.o)
                0x0000000000018c70                appletHolderStart
 .text.appletHolderJoin
                0x0000000000018cc0       0x80 C:/Users/oukeh/OneDrive/桌面/code-mod-example/code-mod-framework/lib/libnx_min/nx/lib\libnx_min.a(applet.o)
                0x0000000000018cc0                appletHolderJoin
 .text.appletHolderCheckFinished
                0x0000000000018d40       0x24 C:/Users/oukeh/OneDrive/桌面/code-mod-example/code-mod-framework/lib/libnx_min/nx/lib\libnx_min.a(applet.o)
                0x0000000000018d40                appletHolderCheckFinished
 *fill*         0x0000000000018d64        0xc 
 .text.appletHolderRequestExit
                0x0000000000018d70       0x50 C:/Users/oukeh/OneDrive/桌面/code-mod-example/code-mod-framework/lib/libnx_min/nx/lib\libnx_min.a(applet.o)
                0x0000000000018d70                appletHolderRequestExit
 .text.appletHolderGetExitReason
                0x0000000000018dc0        0x8 C:/Users/oukeh/OneDrive/桌面/code-mod-example/code-mod-framework/lib/libnx_min/nx/lib\libnx_min.a(applet.o)
                0x0000000000018dc0                appletHolderGetExitReason
 *fill*         0x0000000000018dc8        0x8 
 .text.appletHolderWaitInteractiveOut
                0x0000000000018dd0       0x88 C:/Users/oukeh/OneDrive/桌面/code-mod-example/code-mod-framework/lib/libnx_min/nx/lib\libnx_min.a(applet.o)
                0x0000000000018dd0                appletHolderWaitInteractiveOut
 *fill*         0x0000000000018e58        0x8 
 .text.appletHolderPopOutData
                0x0000000000018e60       0x18 C:/Users/oukeh/OneDrive/桌面/code-mod-example/code-mod-framework/lib/libnx_min/nx/lib\libnx_min.a(applet.o)
                0x0000000000018e60                appletHolderPopOutData
 *fill*         0x0000000000018e78        0x8 
 .text.appletHolderPopInteractiveOutData
                0x0000000000018e80       0x18 C:/Users/oukeh/OneDrive/桌面/code-mod-example/code-mod-framework/lib/libnx_min/nx/lib\libnx_min.a(applet.o)
                0x0000000000018e80                appletHolderPopInteractiveOutData
 *fill*         0x0000000000018e98        0x8 
 .text.appletCreateStorage
                0x0000000000018ea0       0x14 C:/Users/oukeh/OneDrive/桌面/code-mod-example/code-mod-framework/lib/libnx_min/nx/lib\libnx_min.a(applet.o)
                0x0000000000018ea0                appletCreateStorage
 *fill*         0x0000000000018eb4        0xc 
 .text.appletCreateTransferMemoryStorage
                0x0000000000018ec0       0xa8 C:/Users/oukeh/OneDrive/桌面/code-mod-example/code-mod-framework/lib/libnx_min/nx/lib\libnx_min.a(applet.o)
                0x0000000000018ec0                appletCreateTransferMemoryStorage
 *fill*         0x0000000000018f68        0x8 
 .text.appletCreateHandleStorage
                0x0000000000018f70       0x64 C:/Users/oukeh/OneDrive/桌面/code-mod-example/code-mod-framework/lib/libnx_min/nx/lib\libnx_min.a(applet.o)
                0x0000000000018f70                appletCreateHandleStorage
 *fill*         0x0000000000018fd4        0xc 
 .text.appletCreateHandleStorageTmem
                0x0000000000018fe0       0xa0 C:/Users/oukeh/OneDrive/桌面/code-mod-example/code-mod-framework/lib/libnx_min/nx/lib\libnx_min.a(applet.o)
                0x0000000000018fe0                appletCreateHandleStorageTmem
 .text.appletStorageClose
                0x0000000000019080       0x6c C:/Users/oukeh/OneDrive/桌面/code-mod-example/code-mod-framework/lib/libnx_min/nx/lib\libnx_min.a(applet.o)
                0x0000000000019080                appletStorageClose
 *fill*         0x00000000000190ec        0x4 
 .text.appletRequestLaunchApplication
                0x00000000000190f0      0x188 C:/Users/oukeh/OneDrive/桌面/code-mod-example/code-mod-framework/lib/libnx_min/nx/lib\libnx_min.a(applet.o)
                0x00000000000190f0                appletRequestLaunchApplication
 *fill*         0x0000000000019278        0x8 
 .text.appletRequestLaunchApplicationForQuest
                0x0000000000019280      0x168 C:/Users/oukeh/OneDrive/桌面/code-mod-example/code-mod-framework/lib/libnx_min/nx/lib\libnx_min.a(applet.o)
                0x0000000000019280                appletRequestLaunchApplicationForQuest
 *fill*         0x00000000000193e8        0x8 
 .text.appletHolderPushInteractiveInData
                0x00000000000193f0       0x40 C:/Users/oukeh/OneDrive/桌面/code-mod-example/code-mod-framework/lib/libnx_min/nx/lib\libnx_min.a(applet.o)
                0x00000000000193f0                appletHolderPushInteractiveInData
 .text.appletPushToGeneralChannel
                0x0000000000019430       0x4c C:/Users/oukeh/OneDrive/桌面/code-mod-example/code-mod-framework/lib/libnx_min/nx/lib\libnx_min.a(applet.o)
                0x0000000000019430                appletPushToGeneralChannel
 *fill*         0x000000000001947c        0x4 
 .text.appletHolderPushInData
                0x0000000000019480       0x40 C:/Users/oukeh/OneDrive/桌面/code-mod-example/code-mod-framework/lib/libnx_min/nx/lib\libnx_min.a(applet.o)
                0x0000000000019480                appletHolderPushInData
 .text.appletHolderPushExtraStorage
                0x00000000000194c0       0x40 C:/Users/oukeh/OneDrive/桌面/code-mod-example/code-mod-framework/lib/libnx_min/nx/lib\libnx_min.a(applet.o)
                0x00000000000194c0                appletHolderPushExtraStorage
 .text.appletStorageCloseTmem
                0x0000000000019500        0x8 C:/Users/oukeh/OneDrive/桌面/code-mod-example/code-mod-framework/lib/libnx_min/nx/lib\libnx_min.a(applet.o)
                0x0000000000019500                appletStorageCloseTmem
 *fill*         0x0000000000019508        0x8 
 .text.appletStorageGetSize
                0x0000000000019510       0xc4 C:/Users/oukeh/OneDrive/桌面/code-mod-example/code-mod-framework/lib/libnx_min/nx/lib\libnx_min.a(applet.o)
                0x0000000000019510                appletStorageGetSize
 *fill*         0x00000000000195d4        0xc 
 .text.appletStorageWrite
                0x00000000000195e0        0x8 C:/Users/oukeh/OneDrive/桌面/code-mod-example/code-mod-framework/lib/libnx_min/nx/lib\libnx_min.a(applet.o)
                0x00000000000195e0                appletStorageWrite
 *fill*         0x00000000000195e8        0x8 
 .text.appletStorageRead
                0x00000000000195f0        0x8 C:/Users/oukeh/OneDrive/桌面/code-mod-example/code-mod-framework/lib/libnx_min/nx/lib\libnx_min.a(applet.o)
                0x00000000000195f0                appletStorageRead
 *fill*         0x00000000000195f8        0x8 
 .text.appletStorageGetHandle
                0x0000000000019600       0xfc C:/Users/oukeh/OneDrive/桌面/code-mod-example/code-mod-framework/lib/libnx_min/nx/lib\libnx_min.a(applet.o)
                0x0000000000019600                appletStorageGetHandle
 *fill*         0x00000000000196fc        0x4 
 .text.appletStorageMap
                0x0000000000019700       0xcc C:/Users/oukeh/OneDrive/桌面/code-mod-example/code-mod-framework/lib/libnx_min/nx/lib\libnx_min.a(applet.o)
                0x0000000000019700                appletStorageMap
 *fill*         0x00000000000197cc        0x4 
 .text.appletGetOperationMode
                0x00000000000197d0        0xc C:/Users/oukeh/OneDrive/桌面/code-mod-example/code-mod-framework/lib/libnx_min/nx/lib\libnx_min.a(applet.o)
                0x00000000000197d0                appletGetOperationMode
 *fill*         0x00000000000197dc        0x4 
 .text.appletGetPerformanceMode
                0x00000000000197e0        0xc C:/Users/oukeh/OneDrive/桌面/code-mod-example/code-mod-framework/lib/libnx_min/nx/lib\libnx_min.a(applet.o)
                0x00000000000197e0                appletGetPerformanceMode
 *fill*         0x00000000000197ec        0x4 
 .text.appletGetFocusState
                0x00000000000197f0        0xc C:/Users/oukeh/OneDrive/桌面/code-mod-example/code-mod-framework/lib/libnx_min/nx/lib\libnx_min.a(applet.o)
                0x00000000000197f0                appletGetFocusState
 *fill*         0x00000000000197fc        0x4 
 .text.appletGetMessage
                0x0000000000019800       0x5c C:/Users/oukeh/OneDrive/桌面/code-mod-example/code-mod-framework/lib/libnx_min/nx/lib\libnx_min.a(applet.o)
                0x0000000000019800                appletGetMessage
 *fill*         0x000000000001985c        0x4 
 .text.appletProcessMessage
                0x0000000000019860      0x118 C:/Users/oukeh/OneDrive/桌面/code-mod-example/code-mod-framework/lib/libnx_min/nx/lib\libnx_min.a(applet.o)
                0x0000000000019860                appletProcessMessage
 *fill*         0x0000000000019978        0x8 
 .text.appletMainLoop
                0x0000000000019980       0x34 C:/Users/oukeh/OneDrive/桌面/code-mod-example/code-mod-framework/lib/libnx_min/nx/lib\libnx_min.a(applet.o)
                0x0000000000019980                appletMainLoop
 *fill*         0x00000000000199b4        0xc 
 .text.__syscall_exit
                0x00000000000199c0       0x1c C:/Users/oukeh/OneDrive/桌面/code-mod-example/code-mod-framework/lib/libnx_min/nx/lib\libnx_min.a(newlib.o)
                0x00000000000199c0                __syscall_exit
 *fill*         0x00000000000199dc        0x4 
 .text.__syscall_getreent
                0x00000000000199e0       0x10 C:/Users/oukeh/OneDrive/桌面/code-mod-example/code-mod-framework/lib/libnx_min/nx/lib\libnx_min.a(newlib.o)
                0x00000000000199e0                __syscall_getreent
 .text.__syscall_lock_acquire
                0x00000000000199f0        0x4 C:/Users/oukeh/OneDrive/桌面/code-mod-example/code-mod-framework/lib/libnx_min/nx/lib\libnx_min.a(newlib.o)
                0x00000000000199f0                __syscall_lock_acquire
 *fill*         0x00000000000199f4        0xc 
 .text.__syscall_lock_try_acquire
                0x0000000000019a00       0x1c C:/Users/oukeh/OneDrive/桌面/code-mod-example/code-mod-framework/lib/libnx_min/nx/lib\libnx_min.a(newlib.o)
                0x0000000000019a00                __syscall_lock_try_acquire
 *fill*         0x0000000000019a1c        0x4 
 .text.__syscall_lock_release
                0x0000000000019a20        0x4 C:/Users/oukeh/OneDrive/桌面/code-mod-example/code-mod-framework/lib/libnx_min/nx/lib\libnx_min.a(newlib.o)
                0x0000000000019a20                __syscall_lock_release
 *fill*         0x0000000000019a24        0xc 
 .text.__syscall_lock_acquire_recursive
                0x0000000000019a30        0x4 C:/Users/oukeh/OneDrive/桌面/code-mod-example/code-mod-framework/lib/libnx_min/nx/lib\libnx_min.a(newlib.o)
                0x0000000000019a30                __syscall_lock_acquire_recursive
 *fill*         0x0000000000019a34        0xc 
 .text.__syscall_lock_try_acquire_recursive
                0x0000000000019a40       0x1c C:/Users/oukeh/OneDrive/桌面/code-mod-example/code-mod-framework/lib/libnx_min/nx/lib\libnx_min.a(newlib.o)
                0x0000000000019a40                __syscall_lock_try_acquire_recursive
 *fill*         0x0000000000019a5c        0x4 
 .text.__syscall_lock_release_recursive
                0x0000000000019a60        0x4 C:/Users/oukeh/OneDrive/桌面/code-mod-example/code-mod-framework/lib/libnx_min/nx/lib\libnx_min.a(newlib.o)
                0x0000000000019a60                __syscall_lock_release_recursive
 *fill*         0x0000000000019a64        0xc 
 .text.__syscall_cond_signal
                0x0000000000019a70       0x40 C:/Users/oukeh/OneDrive/桌面/code-mod-example/code-mod-framework/lib/libnx_min/nx/lib\libnx_min.a(newlib.o)
                0x0000000000019a70                __syscall_cond_signal
 .text.__syscall_cond_broadcast
                0x0000000000019ab0       0x40 C:/Users/oukeh/OneDrive/桌面/code-mod-example/code-mod-framework/lib/libnx_min/nx/lib\libnx_min.a(newlib.o)
                0x0000000000019ab0                __syscall_cond_broadcast
 .text.__syscall_cond_wait
                0x0000000000019af0       0x3c C:/Users/oukeh/OneDrive/桌面/code-mod-example/code-mod-framework/lib/libnx_min/nx/lib\libnx_min.a(newlib.o)
                0x0000000000019af0                __syscall_cond_wait
 *fill*         0x0000000000019b2c        0x4 
 .text.__syscall_cond_wait_recursive
                0x0000000000019b30       0x64 C:/Users/oukeh/OneDrive/桌面/code-mod-example/code-mod-framework/lib/libnx_min/nx/lib\libnx_min.a(newlib.o)
                0x0000000000019b30                __syscall_cond_wait_recursive
 *fill*         0x0000000000019b94        0xc 
 .text.__syscall_thread_self
                0x0000000000019ba0       0x14 C:/Users/oukeh/OneDrive/桌面/code-mod-example/code-mod-framework/lib/libnx_min/nx/lib\libnx_min.a(newlib.o)
                0x0000000000019ba0                __syscall_thread_self
 *fill*         0x0000000000019bb4        0xc 
 .text.__syscall_thread_exit
                0x0000000000019bc0       0x2c C:/Users/oukeh/OneDrive/桌面/code-mod-example/code-mod-framework/lib/libnx_min/nx/lib\libnx_min.a(newlib.o)
                0x0000000000019bc0                __syscall_thread_exit
 *fill*         0x0000000000019bec        0x4 
 .text.__thread_entry
                0x0000000000019bf0       0x58 C:/Users/oukeh/OneDrive/桌面/code-mod-example/code-mod-framework/lib/libnx_min/nx/lib\libnx_min.a(newlib.o)
 *fill*         0x0000000000019c48        0x8 
 .text.__syscall_thread_create
                0x0000000000019c50      0x15c C:/Users/oukeh/OneDrive/桌面/code-mod-example/code-mod-framework/lib/libnx_min/nx/lib\libnx_min.a(newlib.o)
                0x0000000000019c50                __syscall_thread_create
 *fill*         0x0000000000019dac        0x4 
 .text.__syscall_thread_join
                0x0000000000019db0       0x58 C:/Users/oukeh/OneDrive/桌面/code-mod-example/code-mod-framework/lib/libnx_min/nx/lib\libnx_min.a(newlib.o)
                0x0000000000019db0                __syscall_thread_join
 *fill*         0x0000000000019e08        0x8 
 .text.__syscall_tls_create
                0x0000000000019e10       0x44 C:/Users/oukeh/OneDrive/桌面/code-mod-example/code-mod-framework/lib/libnx_min/nx/lib\libnx_min.a(newlib.o)
                0x0000000000019e10                __syscall_tls_create
 *fill*         0x0000000000019e54        0xc 
 .text.__syscall_tls_set
                0x0000000000019e60       0x18 C:/Users/oukeh/OneDrive/桌面/code-mod-example/code-mod-framework/lib/libnx_min/nx/lib\libnx_min.a(newlib.o)
                0x0000000000019e60                __syscall_tls_set
 *fill*         0x0000000000019e78        0x8 
 .text.__syscall_tls_get
                0x0000000000019e80        0x4 C:/Users/oukeh/OneDrive/桌面/code-mod-example/code-mod-framework/lib/libnx_min/nx/lib\libnx_min.a(newlib.o)
                0x0000000000019e80                __syscall_tls_get
 *fill*         0x0000000000019e84        0xc 
 .text.__syscall_tls_delete
                0x0000000000019e90       0x18 C:/Users/oukeh/OneDrive/桌面/code-mod-example/code-mod-framework/lib/libnx_min/nx/lib\libnx_min.a(newlib.o)
                0x0000000000019e90                __syscall_tls_delete
 *fill*         0x0000000000019ea8        0x8 
 .text.sched_yield
                0x0000000000019eb0       0x1c C:/Users/oukeh/OneDrive/桌面/code-mod-example/code-mod-framework/lib/libnx_min/nx/lib\libnx_min.a(newlib.o)
                0x0000000000019eb0                sched_yield
 *fill*         0x0000000000019ecc        0x4 
 .text.sched_getcpu
                0x0000000000019ed0        0x4 C:/Users/oukeh/OneDrive/桌面/code-mod-example/code-mod-framework/lib/libnx_min/nx/lib\libnx_min.a(newlib.o)
                0x0000000000019ed0                sched_getcpu
 *fill*         0x0000000000019ed4        0xc 
 .text.__libnx_init_time
                0x0000000000019ee0      0x27c C:/Users/oukeh/OneDrive/桌面/code-mod-example/code-mod-framework/lib/libnx_min/nx/lib\libnx_min.a(newlib.o)
                0x0000000000019ee0                __libnx_init_time
 *fill*         0x000000000001a15c        0x4 
 .text.__syscall_clock_getres
                0x000000000001a160       0x58 C:/Users/oukeh/OneDrive/桌面/code-mod-example/code-mod-framework/lib/libnx_min/nx/lib\libnx_min.a(newlib.o)
                0x000000000001a160                __syscall_clock_getres
 *fill*         0x000000000001a1b8        0x8 
 .text.__syscall_clock_gettime
                0x000000000001a1c0       0xf8 C:/Users/oukeh/OneDrive/桌面/code-mod-example/code-mod-framework/lib/libnx_min/nx/lib\libnx_min.a(newlib.o)
                0x000000000001a1c0                __syscall_clock_gettime
 *fill*         0x000000000001a2b8        0x8 
 .text.__syscall_gettod_r
                0x000000000001a2c0       0x8c C:/Users/oukeh/OneDrive/桌面/code-mod-example/code-mod-framework/lib/libnx_min/nx/lib\libnx_min.a(newlib.o)
                0x000000000001a2c0                __syscall_gettod_r
 *fill*         0x000000000001a34c        0x4 
 .text.__syscall_nanosleep
                0x000000000001a350       0x5c C:/Users/oukeh/OneDrive/桌面/code-mod-example/code-mod-framework/lib/libnx_min/nx/lib\libnx_min.a(newlib.o)
                0x000000000001a350                __syscall_nanosleep
 *fill*         0x000000000001a3ac        0x4 
 .text.newlibSetup
                0x000000000001a3b0       0x74 C:/Users/oukeh/OneDrive/桌面/code-mod-example/code-mod-framework/lib/libnx_min/nx/lib\libnx_min.a(newlib.o)
                0x000000000001a3b0                newlibSetup
 *fill*         0x000000000001a424        0xc 
 .text.threadCreate
                0x000000000001a430      0x1fc C:/Users/oukeh/OneDrive/桌面/code-mod-example/code-mod-framework/lib/libnx_min/nx/lib\libnx_min.a(thread.o)
                0x000000000001a430                threadCreate
 *fill*         0x000000000001a62c        0x4 
 .text.threadExit
                0x000000000001a630       0xb0 C:/Users/oukeh/OneDrive/桌面/code-mod-example/code-mod-framework/lib/libnx_min/nx/lib\libnx_min.a(thread.o)
                0x000000000001a630                threadExit
 .text._EntryWrap
                0x000000000001a6e0       0x90 C:/Users/oukeh/OneDrive/桌面/code-mod-example/code-mod-framework/lib/libnx_min/nx/lib\libnx_min.a(thread.o)
 .text.threadStart
                0x000000000001a770        0x8 C:/Users/oukeh/OneDrive/桌面/code-mod-example/code-mod-framework/lib/libnx_min/nx/lib\libnx_min.a(thread.o)
                0x000000000001a770                threadStart
 *fill*         0x000000000001a778        0x8 
 .text.threadWaitForExit
                0x000000000001a780       0x2c C:/Users/oukeh/OneDrive/桌面/code-mod-example/code-mod-framework/lib/libnx_min/nx/lib\libnx_min.a(thread.o)
                0x000000000001a780                threadWaitForExit
 *fill*         0x000000000001a7ac        0x4 
 .text.threadClose
                0x000000000001a7b0       0x54 C:/Users/oukeh/OneDrive/桌面/code-mod-example/code-mod-framework/lib/libnx_min/nx/lib\libnx_min.a(thread.o)
                0x000000000001a7b0                threadClose
 *fill*         0x000000000001a804        0xc 
 .text.threadPause
                0x000000000001a810        0xc C:/Users/oukeh/OneDrive/桌面/code-mod-example/code-mod-framework/lib/libnx_min/nx/lib\libnx_min.a(thread.o)
                0x000000000001a810                threadPause
 *fill*         0x000000000001a81c        0x4 
 .text.threadResume
                0x000000000001a820        0xc C:/Users/oukeh/OneDrive/桌面/code-mod-example/code-mod-framework/lib/libnx_min/nx/lib\libnx_min.a(thread.o)
                0x000000000001a820                threadResume
 *fill*         0x000000000001a82c        0x4 
 .text.threadDumpContext
                0x000000000001a830        0x8 C:/Users/oukeh/OneDrive/桌面/code-mod-example/code-mod-framework/lib/libnx_min/nx/lib\libnx_min.a(thread.o)
                0x000000000001a830                threadDumpContext
 *fill*         0x000000000001a838        0x8 
 .text.threadGetCurHandle
                0x000000000001a840        0xc C:/Users/oukeh/OneDrive/桌面/code-mod-example/code-mod-framework/lib/libnx_min/nx/lib\libnx_min.a(thread.o)
                0x000000000001a840                threadGetCurHandle
 *fill*         0x000000000001a84c        0x4 
 .text.threadTlsGet
                0x000000000001a850       0x10 C:/Users/oukeh/OneDrive/桌面/code-mod-example/code-mod-framework/lib/libnx_min/nx/lib\libnx_min.a(thread.o)
                0x000000000001a850                threadTlsGet
 .text.threadTlsSet
                0x000000000001a860       0x10 C:/Users/oukeh/OneDrive/桌面/code-mod-example/code-mod-framework/lib/libnx_min/nx/lib\libnx_min.a(thread.o)
                0x000000000001a860                threadTlsSet
 .text.threadTlsAlloc
                0x000000000001a870       0xd8 C:/Users/oukeh/OneDrive/桌面/code-mod-example/code-mod-framework/lib/libnx_min/nx/lib\libnx_min.a(thread.o)
                0x000000000001a870                threadTlsAlloc
 *fill*         0x000000000001a948        0x8 
 .text.threadTlsFree
                0x000000000001a950       0x48 C:/Users/oukeh/OneDrive/桌面/code-mod-example/code-mod-framework/lib/libnx_min/nx/lib\libnx_min.a(thread.o)
                0x000000000001a950                threadTlsFree
 *fill*         0x000000000001a998        0x8 
 .text.condvarWaitTimeout
                0x000000000001a9a0       0x60 C:/Users/oukeh/OneDrive/桌面/code-mod-example/code-mod-framework/lib/libnx_min/nx/lib\libnx_min.a(condvar.o)
                0x000000000001a9a0                condvarWaitTimeout
 .text.eventCreate
                0x000000000001aa00       0x38 C:/Users/oukeh/OneDrive/桌面/code-mod-example/code-mod-framework/lib/libnx_min/nx/lib\libnx_min.a(event.o)
                0x000000000001aa00                eventCreate
 *fill*         0x000000000001aa38        0x8 
 .text.eventLoadRemote
                0x000000000001aa40        0xc C:/Users/oukeh/OneDrive/桌面/code-mod-example/code-mod-framework/lib/libnx_min/nx/lib\libnx_min.a(event.o)
                0x000000000001aa40                eventLoadRemote
 *fill*         0x000000000001aa4c        0x4 
 .text.eventWait
                0x000000000001aa50       0x38 C:/Users/oukeh/OneDrive/桌面/code-mod-example/code-mod-framework/lib/libnx_min/nx/lib\libnx_min.a(event.o)
                0x000000000001aa50                eventWait
 *fill*         0x000000000001aa88        0x8 
 .text.eventFire
                0x000000000001aa90       0x14 C:/Users/oukeh/OneDrive/桌面/code-mod-example/code-mod-framework/lib/libnx_min/nx/lib\libnx_min.a(event.o)
                0x000000000001aa90                eventFire
 *fill*         0x000000000001aaa4        0xc 
 .text.eventClear
                0x000000000001aab0       0x24 C:/Users/oukeh/OneDrive/桌面/code-mod-example/code-mod-framework/lib/libnx_min/nx/lib\libnx_min.a(event.o)
                0x000000000001aab0                eventClear
 *fill*         0x000000000001aad4        0xc 
 .text.eventClose
                0x000000000001aae0       0x50 C:/Users/oukeh/OneDrive/桌面/code-mod-example/code-mod-framework/lib/libnx_min/nx/lib\libnx_min.a(event.o)
                0x000000000001aae0                eventClose
 .text.tmemCreate
                0x000000000001ab30       0xa8 C:/Users/oukeh/OneDrive/桌面/code-mod-example/code-mod-framework/lib/libnx_min/nx/lib\libnx_min.a(tmem.o)
                0x000000000001ab30                tmemCreate
 *fill*         0x000000000001abd8        0x8 
 .text.tmemCreateFromMemory
                0x000000000001abe0       0x2c C:/Users/oukeh/OneDrive/桌面/code-mod-example/code-mod-framework/lib/libnx_min/nx/lib\libnx_min.a(tmem.o)
                0x000000000001abe0                tmemCreateFromMemory
 *fill*         0x000000000001ac0c        0x4 
 .text.tmemLoadRemote
                0x000000000001ac10       0x14 C:/Users/oukeh/OneDrive/桌面/code-mod-example/code-mod-framework/lib/libnx_min/nx/lib\libnx_min.a(tmem.o)
                0x000000000001ac10                tmemLoadRemote
 *fill*         0x000000000001ac24        0xc 
 .text.tmemMap  0x000000000001ac30       0x84 C:/Users/oukeh/OneDrive/桌面/code-mod-example/code-mod-framework/lib/libnx_min/nx/lib\libnx_min.a(tmem.o)
                0x000000000001ac30                tmemMap
 *fill*         0x000000000001acb4        0xc 
 .text.tmemUnmap
                0x000000000001acc0       0x58 C:/Users/oukeh/OneDrive/桌面/code-mod-example/code-mod-framework/lib/libnx_min/nx/lib\libnx_min.a(tmem.o)
                0x000000000001acc0                tmemUnmap
 *fill*         0x000000000001ad18        0x8 
 .text.tmemClose
                0x000000000001ad20       0x68 C:/Users/oukeh/OneDrive/桌面/code-mod-example/code-mod-framework/lib/libnx_min/nx/lib\libnx_min.a(tmem.o)
                0x000000000001ad20                tmemClose
 *fill*         0x000000000001ad88        0x8 
 .text.rwlockInit
                0x000000000001ad90        0x8 C:/Users/oukeh/OneDrive/桌面/code-mod-example/code-mod-framework/lib/libnx_min/nx/lib\libnx_min.a(rwlock.o)
                0x000000000001ad90                rwlockInit
 *fill*         0x000000000001ad98        0x8 
 .text.rwlockReadLock
                0x000000000001ada0       0x58 C:/Users/oukeh/OneDrive/桌面/code-mod-example/code-mod-framework/lib/libnx_min/nx/lib\libnx_min.a(rwlock.o)
                0x000000000001ada0                rwlockReadLock
 *fill*         0x000000000001adf8        0x8 
 .text.rwlockReadUnlock
                0x000000000001ae00       0x5c C:/Users/oukeh/OneDrive/桌面/code-mod-example/code-mod-framework/lib/libnx_min/nx/lib\libnx_min.a(rwlock.o)
                0x000000000001ae00                rwlockReadUnlock
 *fill*         0x000000000001ae5c        0x4 
 .text.rwlockWriteLock
                0x000000000001ae60       0x84 C:/Users/oukeh/OneDrive/桌面/code-mod-example/code-mod-framework/lib/libnx_min/nx/lib\libnx_min.a(rwlock.o)
                0x000000000001ae60                rwlockWriteLock
 *fill*         0x000000000001aee4        0xc 
 .text.rwlockWriteUnlock
                0x000000000001aef0       0x3c C:/Users/oukeh/OneDrive/桌面/code-mod-example/code-mod-framework/lib/libnx_min/nx/lib\libnx_min.a(rwlock.o)
                0x000000000001aef0                rwlockWriteUnlock
 *fill*         0x000000000001af2c        0x4 
 .text._waitLoop
                0x000000000001af30      0x104 C:/Users/oukeh/OneDrive/桌面/code-mod-example/code-mod-framework/lib/libnx_min/nx/lib\libnx_min.a(wait.o)
 *fill*         0x000000000001b034        0xc 
 .text._waitObjectsImpl
                0x000000000001b040      0x338 C:/Users/oukeh/OneDrive/桌面/code-mod-example/code-mod-framework/lib/libnx_min/nx/lib\libnx_min.a(wait.o)
 *fill*         0x000000000001b378        0x8 
 .text.waitObjects
                0x000000000001b380        0xc C:/Users/oukeh/OneDrive/桌面/code-mod-example/code-mod-framework/lib/libnx_min/nx/lib\libnx_min.a(wait.o)
                0x000000000001b380                waitObjects
 *fill*         0x000000000001b38c        0x4 
 .text.waitHandles
                0x000000000001b390        0xc C:/Users/oukeh/OneDrive/桌面/code-mod-example/code-mod-framework/lib/libnx_min/nx/lib\libnx_min.a(wait.o)
                0x000000000001b390                waitHandles
 *fill*         0x000000000001b39c        0x4 
 .text.shmemCreate
                0x000000000001b3a0       0x14 C:/Users/oukeh/OneDrive/桌面/code-mod-example/code-mod-framework/lib/libnx_min/nx/lib\libnx_min.a(shmem.o)
                0x000000000001b3a0                shmemCreate
 *fill*         0x000000000001b3b4        0xc 
 .text.shmemLoadRemote
                0x000000000001b3c0       0x14 C:/Users/oukeh/OneDrive/桌面/code-mod-example/code-mod-framework/lib/libnx_min/nx/lib\libnx_min.a(shmem.o)
                0x000000000001b3c0                shmemLoadRemote
 *fill*         0x000000000001b3d4        0xc 
 .text.shmemMap
                0x000000000001b3e0       0x84 C:/Users/oukeh/OneDrive/桌面/code-mod-example/code-mod-framework/lib/libnx_min/nx/lib\libnx_min.a(shmem.o)
                0x000000000001b3e0                shmemMap
 *fill*         0x000000000001b464        0xc 
 .text.shmemUnmap
                0x000000000001b470       0x58 C:/Users/oukeh/OneDrive/桌面/code-mod-example/code-mod-framework/lib/libnx_min/nx/lib\libnx_min.a(shmem.o)
                0x000000000001b470                shmemUnmap
 *fill*         0x000000000001b4c8        0x8 
 .text.shmemClose
                0x000000000001b4d0       0x44 C:/Users/oukeh/OneDrive/桌面/code-mod-example/code-mod-framework/lib/libnx_min/nx/lib\libnx_min.a(shmem.o)
                0x000000000001b4d0                shmemClose
 *fill*         0x000000000001b514        0xc 
 .text.detectKernelVersion
                0x000000000001b520      0x17c C:/Users/oukeh/OneDrive/桌面/code-mod-example/code-mod-framework/lib/libnx_min/nx/lib\libnx_min.a(detect.o)
                0x000000000001b520                detectKernelVersion
 *fill*         0x000000000001b69c        0x4 
 .text.detectDebugger
                0x000000000001b6a0       0x30 C:/Users/oukeh/OneDrive/桌面/code-mod-example/code-mod-framework/lib/libnx_min/nx/lib\libnx_min.a(detect.o)
                0x000000000001b6a0                detectDebugger
 .text.detectJitKernelPatch
                0x000000000001b6d0       0xdc C:/Users/oukeh/OneDrive/桌面/code-mod-example/code-mod-framework/lib/libnx_min/nx/lib\libnx_min.a(detect.o)
                0x000000000001b6d0                detectJitKernelPatch
 *fill*         0x000000000001b7ac        0x4 
 .text.detectIgnoreJitKernelPatch
                0x000000000001b7b0       0x44 C:/Users/oukeh/OneDrive/桌面/code-mod-example/code-mod-framework/lib/libnx_min/nx/lib\libnx_min.a(detect.o)
                0x000000000001b7b0                detectIgnoreJitKernelPatch
 *fill*         0x000000000001b7f4        0xc 
 .text.ipcCloseObjectById
                0x000000000001b800       0x34 C:/Users/oukeh/OneDrive/桌面/code-mod-example/code-mod-framework/lib/libnx_min/nx/lib\libnx_min.a(apm.o)
 *fill*         0x000000000001b834        0xc 
 .text._apmGetSession.constprop.4
                0x000000000001b840      0x124 C:/Users/oukeh/OneDrive/桌面/code-mod-example/code-mod-framework/lib/libnx_min/nx/lib\libnx_min.a(apm.o)
 *fill*         0x000000000001b964        0xc 
 .text.apmExit  0x000000000001b970       0xf0 C:/Users/oukeh/OneDrive/桌面/code-mod-example/code-mod-framework/lib/libnx_min/nx/lib\libnx_min.a(apm.o)
                0x000000000001b970                apmExit
 .text.apmInitialize
                0x000000000001ba60       0x70 C:/Users/oukeh/OneDrive/桌面/code-mod-example/code-mod-framework/lib/libnx_min/nx/lib\libnx_min.a(apm.o)
                0x000000000001ba60                apmInitialize
 .text.apmSetPerformanceConfiguration
                0x000000000001bad0       0xcc C:/Users/oukeh/OneDrive/桌面/code-mod-example/code-mod-framework/lib/libnx_min/nx/lib\libnx_min.a(apm.o)
                0x000000000001bad0                apmSetPerformanceConfiguration
 *fill*         0x000000000001bb9c        0x4 
 .text.apmGetPerformanceConfiguration
                0x000000000001bba0       0xf4 C:/Users/oukeh/OneDrive/桌面/code-mod-example/code-mod-framework/lib/libnx_min/nx/lib\libnx_min.a(apm.o)
                0x000000000001bba0                apmGetPerformanceConfiguration
 *fill*         0x000000000001bc94        0x4 
 .text.bsearch  0x000000000001bc98       0xb8 c:/devkitpro/devkita64/bin/../lib/gcc/aarch64-none-elf/9.2.0/../../../../aarch64-none-elf/lib/pic\libg.a(lib_a-bsearch.o)
                0x000000000001bc98                bsearch
 .text.__set_ctype
                0x000000000001bd50       0x10 c:/devkitpro/devkita64/bin/../lib/gcc/aarch64-none-elf/9.2.0/../../../../aarch64-none-elf/lib/pic\libg.a(lib_a-ctype_.o)
                0x000000000001bd50                __set_ctype
 .text.__errno  0x000000000001bd60       0x14 c:/devkitpro/devkita64/bin/../lib/gcc/aarch64-none-elf/9.2.0/../../../../aarch64-none-elf/lib/pic\libg.a(lib_a-errno.o)
                0x000000000001bd60                __errno
 *fill*         0x000000000001bd74        0x4 
 .text.__libc_fini_array
                0x000000000001bd78       0x4c c:/devkitpro/devkita64/bin/../lib/gcc/aarch64-none-elf/9.2.0/../../../../aarch64-none-elf/lib/pic\libg.a(lib_a-fini.o)
                0x000000000001bd78                __libc_fini_array
 *fill*         0x000000000001bdc4        0x4 
 .text.__libc_init_array
                0x000000000001bdc8       0x9c c:/devkitpro/devkita64/bin/../lib/gcc/aarch64-none-elf/9.2.0/../../../../aarch64-none-elf/lib/pic\libg.a(lib_a-init.o)
                0x000000000001bdc8                __libc_init_array
 *fill*         0x000000000001be64        0x4 
 .text.memalign
                0x000000000001be68       0x2c c:/devkitpro/devkita64/bin/../lib/gcc/aarch64-none-elf/9.2.0/../../../../aarch64-none-elf/lib/pic\libg.a(lib_a-malign.o)
                0x000000000001be68                memalign
 *fill*         0x000000000001be94        0x4 
 .text._memalign_r
                0x000000000001be98      0x1a0 c:/devkitpro/devkita64/bin/../lib/gcc/aarch64-none-elf/9.2.0/../../../../aarch64-none-elf/lib/pic\libg.a(lib_a-malignr.o)
                0x000000000001be98                _memalign_r
 .text.malloc   0x000000000001c038       0x24 c:/devkitpro/devkita64/bin/../lib/gcc/aarch64-none-elf/9.2.0/../../../../aarch64-none-elf/lib/pic\libg.a(lib_a-malloc.o)
                0x000000000001c038                malloc
 *fill*         0x000000000001c05c        0x4 
 .text.free     0x000000000001c060       0x24 c:/devkitpro/devkita64/bin/../lib/gcc/aarch64-none-elf/9.2.0/../../../../aarch64-none-elf/lib/pic\libg.a(lib_a-malloc.o)
                0x000000000001c060                free
 *fill*         0x000000000001c084        0x4 
 .text._malloc_r
                0x000000000001c088      0x874 c:/devkitpro/devkita64/bin/../lib/gcc/aarch64-none-elf/9.2.0/../../../../aarch64-none-elf/lib/pic\libg.a(lib_a-mallocr.o)
                0x000000000001c088                _malloc_r
 *fill*         0x000000000001c8fc        0x4 
 .text          0x000000000001c900      0x16c c:/devkitpro/devkita64/bin/../lib/gcc/aarch64-none-elf/9.2.0/../../../../aarch64-none-elf/lib/pic\libg.a(lib_a-memcpy.o)
                0x000000000001c900                memcpy
 *fill*         0x000000000001ca6c       0x14 
 .text          0x000000000001ca80      0x1dc c:/devkitpro/devkita64/bin/../lib/gcc/aarch64-none-elf/9.2.0/../../../../aarch64-none-elf/lib/pic\libg.a(lib_a-memset.o)
                0x000000000001ca80                memset
 *fill*         0x000000000001cc5c        0x4 
 .text.__malloc_lock
                0x000000000001cc60        0xc c:/devkitpro/devkita64/bin/../lib/gcc/aarch64-none-elf/9.2.0/../../../../aarch64-none-elf/lib/pic\libg.a(lib_a-mlock.o)
                0x000000000001cc60                __malloc_lock
 *fill*         0x000000000001cc6c        0x4 
 .text.__malloc_unlock
                0x000000000001cc70        0xc c:/devkitpro/devkita64/bin/../lib/gcc/aarch64-none-elf/9.2.0/../../../../aarch64-none-elf/lib/pic\libg.a(lib_a-mlock.o)
                0x000000000001cc70                __malloc_unlock
 *fill*         0x000000000001cc7c        0x4 
 .text.setenv   0x000000000001cc80       0x3c c:/devkitpro/devkita64/bin/../lib/gcc/aarch64-none-elf/9.2.0/../../../../aarch64-none-elf/lib/pic\libg.a(lib_a-setenv.o)
                0x000000000001cc80                setenv
 *fill*         0x000000000001ccbc        0x4 
 .text.unsetenv
                0x000000000001ccc0       0x24 c:/devkitpro/devkita64/bin/../lib/gcc/aarch64-none-elf/9.2.0/../../../../aarch64-none-elf/lib/pic\libg.a(lib_a-setenv.o)
                0x000000000001ccc0                unsetenv
 *fill*         0x000000000001cce4        0x4 
 .text._setenv_r
                0x000000000001cce8      0x268 c:/devkitpro/devkita64/bin/../lib/gcc/aarch64-none-elf/9.2.0/../../../../aarch64-none-elf/lib/pic\libg.a(lib_a-setenv_r.o)
                0x000000000001cce8                _setenv_r
 .text._unsetenv_r
                0x000000000001cf50       0xd4 c:/devkitpro/devkita64/bin/../lib/gcc/aarch64-none-elf/9.2.0/../../../../aarch64-none-elf/lib/pic\libg.a(lib_a-setenv_r.o)
                0x000000000001cf50                _unsetenv_r
 .text          0x000000000001d024       0xdc c:/devkitpro/devkita64/bin/../lib/gcc/aarch64-none-elf/9.2.0/../../../../aarch64-none-elf/lib/pic\libg.a(lib_a-strchr.o)
                0x000000000001d024                strchr
 .text          0x000000000001d100      0x1b8 c:/devkitpro/devkita64/bin/../lib/gcc/aarch64-none-elf/9.2.0/../../../../aarch64-none-elf/lib/pic\libg.a(lib_a-strcpy.o)
                0x000000000001d100                strcpy
 *fill*         0x000000000001d2b8        0x8 
 .text          0x000000000001d2c0      0x140 c:/devkitpro/devkita64/bin/../lib/gcc/aarch64-none-elf/9.2.0/../../../../aarch64-none-elf/lib/pic\libg.a(lib_a-strlen.o)
                0x000000000001d2c0                strlen
 .text.strncat  0x000000000001d400       0x84 c:/devkitpro/devkita64/bin/../lib/gcc/aarch64-none-elf/9.2.0/../../../../aarch64-none-elf/lib/pic\libg.a(lib_a-strncat.o)
                0x000000000001d400                strncat
 *fill*         0x000000000001d484       0x3c 
 .text          0x000000000001d4c0      0x1d4 c:/devkitpro/devkita64/bin/../lib/gcc/aarch64-none-elf/9.2.0/../../../../aarch64-none-elf/lib/pic\libg.a(lib_a-strncmp.o)
                0x000000000001d4dc                strncmp
 *fill*         0x000000000001d694        0x4 
 .text.strncpy  0x000000000001d698       0x9c c:/devkitpro/devkita64/bin/../lib/gcc/aarch64-none-elf/9.2.0/../../../../aarch64-none-elf/lib/pic\libg.a(lib_a-strncpy.o)
                0x000000000001d698                strncpy
 *fill*         0x000000000001d734        0xc 
 .text          0x000000000001d740       0xe0 c:/devkitpro/devkita64/bin/../lib/gcc/aarch64-none-elf/9.2.0/../../../../aarch64-none-elf/lib/pic\libg.a(lib_a-strnlen.o)
                0x000000000001d764                strnlen
 .text.toupper  0x000000000001d820       0x24 c:/devkitpro/devkita64/bin/../lib/gcc/aarch64-none-elf/9.2.0/../../../../aarch64-none-elf/lib/pic\libg.a(lib_a-toupper.o)
                0x000000000001d820                toupper
 *fill*         0x000000000001d844        0x4 
 .text._vsnprintf_r
                0x000000000001d848       0xe0 c:/devkitpro/devkita64/bin/../lib/gcc/aarch64-none-elf/9.2.0/../../../../aarch64-none-elf/lib/pic\libg.a(lib_a-vsnprintf.o)
                0x000000000001d848                _vsnprintf_r
 .text.vsnprintf
                0x000000000001d928       0x58 c:/devkitpro/devkita64/bin/../lib/gcc/aarch64-none-elf/9.2.0/../../../../aarch64-none-elf/lib/pic\libg.a(lib_a-vsnprintf.o)
                0x000000000001d928                vsnprintf
 .text.__call_exitprocs
                0x000000000001d980      0x12c c:/devkitpro/devkita64/bin/../lib/gcc/aarch64-none-elf/9.2.0/../../../../aarch64-none-elf/lib/pic\libg.a(lib_a-__call_atexit.o)
                0x000000000001d980                __call_exitprocs
 *fill*         0x000000000001daac        0x4 
 .text.__env_lock
                0x000000000001dab0        0xc c:/devkitpro/devkita64/bin/../lib/gcc/aarch64-none-elf/9.2.0/../../../../aarch64-none-elf/lib/pic\libg.a(lib_a-envlock.o)
                0x000000000001dab0                __env_lock
 *fill*         0x000000000001dabc        0x4 
 .text.__env_unlock
                0x000000000001dac0        0xc c:/devkitpro/devkita64/bin/../lib/gcc/aarch64-none-elf/9.2.0/../../../../aarch64-none-elf/lib/pic\libg.a(lib_a-envlock.o)
                0x000000000001dac0                __env_unlock
 *fill*         0x000000000001dacc        0x4 
 .text._malloc_trim_r
                0x000000000001dad0      0x118 c:/devkitpro/devkita64/bin/../lib/gcc/aarch64-none-elf/9.2.0/../../../../aarch64-none-elf/lib/pic\libg.a(lib_a-freer.o)
                0x000000000001dad0                _malloc_trim_r
 .text._free_r  0x000000000001dbe8      0x300 c:/devkitpro/devkita64/bin/../lib/gcc/aarch64-none-elf/9.2.0/../../../../aarch64-none-elf/lib/pic\libg.a(lib_a-freer.o)
                0x000000000001dbe8                _free_r
 .text._findenv_r
                0x000000000001dee8      0x100 c:/devkitpro/devkita64/bin/../lib/gcc/aarch64-none-elf/9.2.0/../../../../aarch64-none-elf/lib/pic\libg.a(lib_a-getenv_r.o)
                0x000000000001dee8                _findenv_r
 .text._getenv_r
                0x000000000001dfe8       0x18 c:/devkitpro/devkita64/bin/../lib/gcc/aarch64-none-elf/9.2.0/../../../../aarch64-none-elf/lib/pic\libg.a(lib_a-getenv_r.o)
                0x000000000001dfe8                _getenv_r
 .text._realloc_r
                0x000000000001e000      0x56c c:/devkitpro/devkita64/bin/../lib/gcc/aarch64-none-elf/9.2.0/../../../../aarch64-none-elf/lib/pic\libg.a(lib_a-reallocr.o)
                0x000000000001e000                _realloc_r
 .text.get_arg  0x000000000001e56c      0x784 c:/devkitpro/devkita64/bin/../lib/gcc/aarch64-none-elf/9.2.0/../../../../aarch64-none-elf/lib/pic\libg.a(lib_a-svfprintf.o)
 .text._svfprintf_r
                0x000000000001ecf0     0x3be8 c:/devkitpro/devkita64/bin/../lib/gcc/aarch64-none-elf/9.2.0/../../../../aarch64-none-elf/lib/pic\libg.a(lib_a-svfprintf.o)
                0x000000000001ecf0                _svfprintf_r
 .text._wcrtomb_r
                0x00000000000228d8       0xd0 c:/devkitpro/devkita64/bin/../lib/gcc/aarch64-none-elf/9.2.0/../../../../aarch64-none-elf/lib/pic\libg.a(lib_a-wcrtomb.o)
                0x00000000000228d8                _wcrtomb_r
 .text.wcrtomb  0x00000000000229a8       0xb8 c:/devkitpro/devkita64/bin/../lib/gcc/aarch64-none-elf/9.2.0/../../../../aarch64-none-elf/lib/pic\libg.a(lib_a-wcrtomb.o)
                0x00000000000229a8                wcrtomb
 .text._wcsrtombs_r
                0x0000000000022a60       0x10 c:/devkitpro/devkita64/bin/../lib/gcc/aarch64-none-elf/9.2.0/../../../../aarch64-none-elf/lib/pic\libg.a(lib_a-wcsrtombs.o)
                0x0000000000022a60                _wcsrtombs_r
 .text.wcsrtombs
                0x0000000000022a70       0x48 c:/devkitpro/devkita64/bin/../lib/gcc/aarch64-none-elf/9.2.0/../../../../aarch64-none-elf/lib/pic\libg.a(lib_a-wcsrtombs.o)
                0x0000000000022a70                wcsrtombs
 .text.quorem   0x0000000000022ab8      0x19c c:/devkitpro/devkita64/bin/../lib/gcc/aarch64-none-elf/9.2.0/../../../../aarch64-none-elf/lib/pic\libg.a(lib_a-dtoa.o)
 *fill*         0x0000000000022c54        0x4 
 .text._dtoa_r  0x0000000000022c58     0x1124 c:/devkitpro/devkita64/bin/../lib/gcc/aarch64-none-elf/9.2.0/../../../../aarch64-none-elf/lib/pic\libg.a(lib_a-dtoa.o)
                0x0000000000022c58                _dtoa_r
 *fill*         0x0000000000023d7c        0x4 
 .text.__localeconv_l
                0x0000000000023d80        0x8 c:/devkitpro/devkita64/bin/../lib/gcc/aarch64-none-elf/9.2.0/../../../../aarch64-none-elf/lib/pic\libg.a(lib_a-localeconv.o)
                0x0000000000023d80                __localeconv_l
 .text._localeconv_r
                0x0000000000023d88       0x28 c:/devkitpro/devkita64/bin/../lib/gcc/aarch64-none-elf/9.2.0/../../../../aarch64-none-elf/lib/pic\libg.a(lib_a-localeconv.o)
                0x0000000000023d88                _localeconv_r
 .text.localeconv
                0x0000000000023db0       0x28 c:/devkitpro/devkita64/bin/../lib/gcc/aarch64-none-elf/9.2.0/../../../../aarch64-none-elf/lib/pic\libg.a(lib_a-localeconv.o)
                0x0000000000023db0                localeconv
 .text.currentlocale
                0x0000000000023dd8       0xb8 c:/devkitpro/devkita64/bin/../lib/gcc/aarch64-none-elf/9.2.0/../../../../aarch64-none-elf/lib/pic\libg.a(lib_a-locale.o)
 .text.__loadlocale
                0x0000000000023e90      0x7b0 c:/devkitpro/devkita64/bin/../lib/gcc/aarch64-none-elf/9.2.0/../../../../aarch64-none-elf/lib/pic\libg.a(lib_a-locale.o)
                0x0000000000023e90                __loadlocale
 .text.__get_locale_env
                0x0000000000024640       0x88 c:/devkitpro/devkita64/bin/../lib/gcc/aarch64-none-elf/9.2.0/../../../../aarch64-none-elf/lib/pic\libg.a(lib_a-locale.o)
                0x0000000000024640                __get_locale_env
 .text._setlocale_r
                0x00000000000246c8      0x3b4 c:/devkitpro/devkita64/bin/../lib/gcc/aarch64-none-elf/9.2.0/../../../../aarch64-none-elf/lib/pic\libg.a(lib_a-locale.o)
                0x00000000000246c8                _setlocale_r
 *fill*         0x0000000000024a7c        0x4 
 .text.__locale_mb_cur_max
                0x0000000000024a80       0x2c c:/devkitpro/devkita64/bin/../lib/gcc/aarch64-none-elf/9.2.0/../../../../aarch64-none-elf/lib/pic\libg.a(lib_a-locale.o)
                0x0000000000024a80                __locale_mb_cur_max
 *fill*         0x0000000000024aac        0x4 
 .text.setlocale
                0x0000000000024ab0       0x2c c:/devkitpro/devkita64/bin/../lib/gcc/aarch64-none-elf/9.2.0/../../../../aarch64-none-elf/lib/pic\libg.a(lib_a-locale.o)
                0x0000000000024ab0                setlocale
 *fill*         0x0000000000024adc        0x4 
 .text._mbtowc_r
                0x0000000000024ae0       0x70 c:/devkitpro/devkita64/bin/../lib/gcc/aarch64-none-elf/9.2.0/../../../../aarch64-none-elf/lib/pic\libg.a(lib_a-mbtowc_r.o)
                0x0000000000024ae0                _mbtowc_r
 .text.__ascii_mbtowc
                0x0000000000024b50       0x48 c:/devkitpro/devkita64/bin/../lib/gcc/aarch64-none-elf/9.2.0/../../../../aarch64-none-elf/lib/pic\libg.a(lib_a-mbtowc_r.o)
                0x0000000000024b50                __ascii_mbtowc
 .text.__utf8_mbtowc
                0x0000000000024b98      0x2c8 c:/devkitpro/devkita64/bin/../lib/gcc/aarch64-none-elf/9.2.0/../../../../aarch64-none-elf/lib/pic\libg.a(lib_a-mbtowc_r.o)
                0x0000000000024b98                __utf8_mbtowc
 .text.__sjis_mbtowc
                0x0000000000024e60       0xcc c:/devkitpro/devkita64/bin/../lib/gcc/aarch64-none-elf/9.2.0/../../../../aarch64-none-elf/lib/pic\libg.a(lib_a-mbtowc_r.o)
                0x0000000000024e60                __sjis_mbtowc
 *fill*         0x0000000000024f2c        0x4 
 .text.__eucjp_mbtowc
                0x0000000000024f30      0x124 c:/devkitpro/devkita64/bin/../lib/gcc/aarch64-none-elf/9.2.0/../../../../aarch64-none-elf/lib/pic\libg.a(lib_a-mbtowc_r.o)
                0x0000000000024f30                __eucjp_mbtowc
 *fill*         0x0000000000025054        0x4 
 .text.__jis_mbtowc
                0x0000000000025058      0x1e4 c:/devkitpro/devkita64/bin/../lib/gcc/aarch64-none-elf/9.2.0/../../../../aarch64-none-elf/lib/pic\libg.a(lib_a-mbtowc_r.o)
                0x0000000000025058                __jis_mbtowc
 .text          0x000000000002523c       0xd8 c:/devkitpro/devkita64/bin/../lib/gcc/aarch64-none-elf/9.2.0/../../../../aarch64-none-elf/lib/pic\libg.a(lib_a-memchr.o)
                0x000000000002523c                memchr
 *fill*         0x0000000000025314       0x2c 
 .text          0x0000000000025340       0xac c:/devkitpro/devkita64/bin/../lib/gcc/aarch64-none-elf/9.2.0/../../../../aarch64-none-elf/lib/pic\libg.a(lib_a-memmove.o)
                0x0000000000025340                memmove
 *fill*         0x00000000000253ec        0x4 
 .text._Balloc  0x00000000000253f0       0x90 c:/devkitpro/devkita64/bin/../lib/gcc/aarch64-none-elf/9.2.0/../../../../aarch64-none-elf/lib/pic\libg.a(lib_a-mprec.o)
                0x00000000000253f0                _Balloc
 .text._Bfree   0x0000000000025480       0x1c c:/devkitpro/devkita64/bin/../lib/gcc/aarch64-none-elf/9.2.0/../../../../aarch64-none-elf/lib/pic\libg.a(lib_a-mprec.o)
                0x0000000000025480                _Bfree
 *fill*         0x000000000002549c        0x4 
 .text.__multadd
                0x00000000000254a0       0xd8 c:/devkitpro/devkita64/bin/../lib/gcc/aarch64-none-elf/9.2.0/../../../../aarch64-none-elf/lib/pic\libg.a(lib_a-mprec.o)
                0x00000000000254a0                __multadd
 .text.__s2b    0x0000000000025578      0x12c c:/devkitpro/devkita64/bin/../lib/gcc/aarch64-none-elf/9.2.0/../../../../aarch64-none-elf/lib/pic\libg.a(lib_a-mprec.o)
                0x0000000000025578                __s2b
 *fill*         0x00000000000256a4        0x4 
 .text.__hi0bits
                0x00000000000256a8       0x5c c:/devkitpro/devkita64/bin/../lib/gcc/aarch64-none-elf/9.2.0/../../../../aarch64-none-elf/lib/pic\libg.a(lib_a-mprec.o)
                0x00000000000256a8                __hi0bits
 *fill*         0x0000000000025704        0x4 
 .text.__lo0bits
                0x0000000000025708       0xa0 c:/devkitpro/devkita64/bin/../lib/gcc/aarch64-none-elf/9.2.0/../../../../aarch64-none-elf/lib/pic\libg.a(lib_a-mprec.o)
                0x0000000000025708                __lo0bits
 .text.__i2b    0x00000000000257a8       0x2c c:/devkitpro/devkita64/bin/../lib/gcc/aarch64-none-elf/9.2.0/../../../../aarch64-none-elf/lib/pic\libg.a(lib_a-mprec.o)
                0x00000000000257a8                __i2b
 *fill*         0x00000000000257d4        0x4 
 .text.__multiply
                0x00000000000257d8      0x1dc c:/devkitpro/devkita64/bin/../lib/gcc/aarch64-none-elf/9.2.0/../../../../aarch64-none-elf/lib/pic\libg.a(lib_a-mprec.o)
                0x00000000000257d8                __multiply
 *fill*         0x00000000000259b4        0x4 
 .text.__pow5mult
                0x00000000000259b8      0x100 c:/devkitpro/devkita64/bin/../lib/gcc/aarch64-none-elf/9.2.0/../../../../aarch64-none-elf/lib/pic\libg.a(lib_a-mprec.o)
                0x00000000000259b8                __pow5mult
 .text.__lshift
                0x0000000000025ab8      0x154 c:/devkitpro/devkita64/bin/../lib/gcc/aarch64-none-elf/9.2.0/../../../../aarch64-none-elf/lib/pic\libg.a(lib_a-mprec.o)
                0x0000000000025ab8                __lshift
 *fill*         0x0000000000025c0c        0x4 
 .text.__mcmp   0x0000000000025c10       0x50 c:/devkitpro/devkita64/bin/../lib/gcc/aarch64-none-elf/9.2.0/../../../../aarch64-none-elf/lib/pic\libg.a(lib_a-mprec.o)
                0x0000000000025c10                __mcmp
 .text.__mdiff  0x0000000000025c60      0x17c c:/devkitpro/devkita64/bin/../lib/gcc/aarch64-none-elf/9.2.0/../../../../aarch64-none-elf/lib/pic\libg.a(lib_a-mprec.o)
                0x0000000000025c60                __mdiff
 *fill*         0x0000000000025ddc        0x4 
 .text.__ulp    0x0000000000025de0       0x68 c:/devkitpro/devkita64/bin/../lib/gcc/aarch64-none-elf/9.2.0/../../../../aarch64-none-elf/lib/pic\libg.a(lib_a-mprec.o)
                0x0000000000025de0                __ulp
 .text.__b2d    0x0000000000025e48      0x150 c:/devkitpro/devkita64/bin/../lib/gcc/aarch64-none-elf/9.2.0/../../../../aarch64-none-elf/lib/pic\libg.a(lib_a-mprec.o)
                0x0000000000025e48                __b2d
 .text.__d2b    0x0000000000025f98      0x138 c:/devkitpro/devkita64/bin/../lib/gcc/aarch64-none-elf/9.2.0/../../../../aarch64-none-elf/lib/pic\libg.a(lib_a-mprec.o)
                0x0000000000025f98                __d2b
 .text.__ratio  0x00000000000260d0       0xa0 c:/devkitpro/devkita64/bin/../lib/gcc/aarch64-none-elf/9.2.0/../../../../aarch64-none-elf/lib/pic\libg.a(lib_a-mprec.o)
                0x00000000000260d0                __ratio
 .text._mprec_log10
                0x0000000000026170       0x30 c:/devkitpro/devkita64/bin/../lib/gcc/aarch64-none-elf/9.2.0/../../../../aarch64-none-elf/lib/pic\libg.a(lib_a-mprec.o)
                0x0000000000026170                _mprec_log10
 .text.__copybits
                0x00000000000261a0       0x68 c:/devkitpro/devkita64/bin/../lib/gcc/aarch64-none-elf/9.2.0/../../../../aarch64-none-elf/lib/pic\libg.a(lib_a-mprec.o)
                0x00000000000261a0                __copybits
 .text.__any_on
                0x0000000000026208       0x6c c:/devkitpro/devkita64/bin/../lib/gcc/aarch64-none-elf/9.2.0/../../../../aarch64-none-elf/lib/pic\libg.a(lib_a-mprec.o)
                0x0000000000026208                __any_on
 *fill*         0x0000000000026274        0x4 
 .text.frexp    0x0000000000026278       0x7c c:/devkitpro/devkita64/bin/../lib/gcc/aarch64-none-elf/9.2.0/../../../../aarch64-none-elf/lib/pic\libg.a(lib_a-s_frexp.o)
                0x0000000000026278                frexp
 *fill*         0x00000000000262f4        0x4 
 .text.strcasecmp
                0x00000000000262f8       0x78 c:/devkitpro/devkita64/bin/../lib/gcc/aarch64-none-elf/9.2.0/../../../../aarch64-none-elf/lib/pic\libg.a(lib_a-strcasecmp.o)
                0x00000000000262f8                strcasecmp
 .text.strcat   0x0000000000026370       0x74 c:/devkitpro/devkita64/bin/../lib/gcc/aarch64-none-elf/9.2.0/../../../../aarch64-none-elf/lib/pic\libg.a(lib_a-strcat.o)
                0x0000000000026370                strcat
 *fill*         0x00000000000263e4       0x1c 
 .text          0x0000000000026400       0xe4 c:/devkitpro/devkita64/bin/../lib/gcc/aarch64-none-elf/9.2.0/../../../../aarch64-none-elf/lib/pic\libg.a(lib_a-strcmp.o)
                0x0000000000026400                strcmp
 *fill*         0x00000000000264e4        0x4 
 .text.strlcpy  0x00000000000264e8       0x5c c:/devkitpro/devkita64/bin/../lib/gcc/aarch64-none-elf/9.2.0/../../../../aarch64-none-elf/lib/pic\libg.a(lib_a-strlcpy.o)
                0x00000000000264e8                strlcpy
 *fill*         0x0000000000026544        0x4 
 .text.strncasecmp
                0x0000000000026548       0x8c c:/devkitpro/devkita64/bin/../lib/gcc/aarch64-none-elf/9.2.0/../../../../aarch64-none-elf/lib/pic\libg.a(lib_a-strncasecmp.o)
                0x0000000000026548                strncasecmp
 *fill*         0x00000000000265d4        0x4 
 .text._strtol_l.isra.0
                0x00000000000265d8      0x19c c:/devkitpro/devkita64/bin/../lib/gcc/aarch64-none-elf/9.2.0/../../../../aarch64-none-elf/lib/pic\libg.a(lib_a-strtol.o)
 *fill*         0x0000000000026774        0x4 
 .text._strtol_r
                0x0000000000026778       0x44 c:/devkitpro/devkita64/bin/../lib/gcc/aarch64-none-elf/9.2.0/../../../../aarch64-none-elf/lib/pic\libg.a(lib_a-strtol.o)
                0x0000000000026778                _strtol_r
 *fill*         0x00000000000267bc        0x4 
 .text.strtol_l
                0x00000000000267c0       0x3c c:/devkitpro/devkita64/bin/../lib/gcc/aarch64-none-elf/9.2.0/../../../../aarch64-none-elf/lib/pic\libg.a(lib_a-strtol.o)
                0x00000000000267c0                strtol_l
 *fill*         0x00000000000267fc        0x4 
 .text.strtol   0x0000000000026800       0x48 c:/devkitpro/devkita64/bin/../lib/gcc/aarch64-none-elf/9.2.0/../../../../aarch64-none-elf/lib/pic\libg.a(lib_a-strtol.o)
                0x0000000000026800                strtol
 .text.get_arg  0x0000000000026848      0x784 c:/devkitpro/devkita64/bin/../lib/gcc/aarch64-none-elf/9.2.0/../../../../aarch64-none-elf/lib/pic\libg.a(lib_a-svfiprintf.o)
 .text.__ssprint_r
                0x0000000000026fcc      0x1c0 c:/devkitpro/devkita64/bin/../lib/gcc/aarch64-none-elf/9.2.0/../../../../aarch64-none-elf/lib/pic\libg.a(lib_a-svfiprintf.o)
                0x0000000000026fcc                __ssprint_r
 .text._svfiprintf_r
                0x000000000002718c     0x2928 c:/devkitpro/devkita64/bin/../lib/gcc/aarch64-none-elf/9.2.0/../../../../aarch64-none-elf/lib/pic\libg.a(lib_a-svfiprintf.o)
                0x000000000002718c                _svfiprintf_r
 *fill*         0x0000000000029ab4        0x4 
 .text._wcsnrtombs_l
                0x0000000000029ab8      0x1e4 c:/devkitpro/devkita64/bin/../lib/gcc/aarch64-none-elf/9.2.0/../../../../aarch64-none-elf/lib/pic\libg.a(lib_a-wcsnrtombs.o)
                0x0000000000029ab8                _wcsnrtombs_l
 *fill*         0x0000000000029c9c        0x4 
 .text._wcsnrtombs_r
                0x0000000000029ca0       0x74 c:/devkitpro/devkita64/bin/../lib/gcc/aarch64-none-elf/9.2.0/../../../../aarch64-none-elf/lib/pic\libg.a(lib_a-wcsnrtombs.o)
                0x0000000000029ca0                _wcsnrtombs_r
 *fill*         0x0000000000029d14        0x4 
 .text.wcsnrtombs
                0x0000000000029d18       0x74 c:/devkitpro/devkita64/bin/../lib/gcc/aarch64-none-elf/9.2.0/../../../../aarch64-none-elf/lib/pic\libg.a(lib_a-wcsnrtombs.o)
                0x0000000000029d18                wcsnrtombs
 *fill*         0x0000000000029d8c        0x4 
 .text._wctomb_r
                0x0000000000029d90       0x60 c:/devkitpro/devkita64/bin/../lib/gcc/aarch64-none-elf/9.2.0/../../../../aarch64-none-elf/lib/pic\libg.a(lib_a-wctomb_r.o)
                0x0000000000029d90                _wctomb_r
 .text.__ascii_wctomb
                0x0000000000029df0       0x34 c:/devkitpro/devkita64/bin/../lib/gcc/aarch64-none-elf/9.2.0/../../../../aarch64-none-elf/lib/pic\libg.a(lib_a-wctomb_r.o)
                0x0000000000029df0                __ascii_wctomb
 *fill*         0x0000000000029e24        0x4 
 .text.__utf8_wctomb
                0x0000000000029e28       0xe4 c:/devkitpro/devkita64/bin/../lib/gcc/aarch64-none-elf/9.2.0/../../../../aarch64-none-elf/lib/pic\libg.a(lib_a-wctomb_r.o)
                0x0000000000029e28                __utf8_wctomb
 *fill*         0x0000000000029f0c        0x4 
 .text.__sjis_wctomb
                0x0000000000029f10       0x84 c:/devkitpro/devkita64/bin/../lib/gcc/aarch64-none-elf/9.2.0/../../../../aarch64-none-elf/lib/pic\libg.a(lib_a-wctomb_r.o)
                0x0000000000029f10                __sjis_wctomb
 *fill*         0x0000000000029f94        0x4 
 .text.__eucjp_wctomb
                0x0000000000029f98       0xa8 c:/devkitpro/devkita64/bin/../lib/gcc/aarch64-none-elf/9.2.0/../../../../aarch64-none-elf/lib/pic\libg.a(lib_a-wctomb_r.o)
                0x0000000000029f98                __eucjp_wctomb
 .text.__jis_wctomb
                0x000000000002a040       0xbc c:/devkitpro/devkita64/bin/../lib/gcc/aarch64-none-elf/9.2.0/../../../../aarch64-none-elf/lib/pic\libg.a(lib_a-wctomb_r.o)
                0x000000000002a040                __jis_wctomb
 *fill*         0x000000000002a0fc        0x4 
 .text._calloc_r
                0x000000000002a100       0x94 c:/devkitpro/devkita64/bin/../lib/gcc/aarch64-none-elf/9.2.0/../../../../aarch64-none-elf/lib/pic\libg.a(lib_a-callocr.o)
                0x000000000002a100                _calloc_r
 *fill*         0x000000000002a194        0x4 
 .text.null_write
                0x000000000002a198        0x8 c:/devkitpro/devkita64/bin/../lib/gcc/aarch64-none-elf/9.2.0/../../../../aarch64-none-elf/lib/pic\libsysbase.a(iosupport.o)
 .text.setDefaultDevice
                0x000000000002a1a0       0x18 c:/devkitpro/devkita64/bin/../lib/gcc/aarch64-none-elf/9.2.0/../../../../aarch64-none-elf/lib/pic\libsysbase.a(iosupport.o)
                0x000000000002a1a0                setDefaultDevice
 .text.FindDevice
                0x000000000002a1b8      0x108 c:/devkitpro/devkita64/bin/../lib/gcc/aarch64-none-elf/9.2.0/../../../../aarch64-none-elf/lib/pic\libsysbase.a(iosupport.o)
                0x000000000002a1b8                FindDevice
 .text.RemoveDevice
                0x000000000002a2c0       0x34 c:/devkitpro/devkita64/bin/../lib/gcc/aarch64-none-elf/9.2.0/../../../../aarch64-none-elf/lib/pic\libsysbase.a(iosupport.o)
                0x000000000002a2c0                RemoveDevice
 *fill*         0x000000000002a2f4        0x4 
 .text.AddDevice
                0x000000000002a2f8       0xdc c:/devkitpro/devkita64/bin/../lib/gcc/aarch64-none-elf/9.2.0/../../../../aarch64-none-elf/lib/pic\libsysbase.a(iosupport.o)
                0x000000000002a2f8                AddDevice
 *fill*         0x000000000002a3d4        0x4 
 .text.GetDeviceOpTab
                0x000000000002a3d8       0x34 c:/devkitpro/devkita64/bin/../lib/gcc/aarch64-none-elf/9.2.0/../../../../aarch64-none-elf/lib/pic\libsysbase.a(iosupport.o)
                0x000000000002a3d8                GetDeviceOpTab
 *fill*         0x000000000002a40c        0x4 
 .text._sbrk_r  0x000000000002a410       0x78 c:/devkitpro/devkita64/bin/../lib/gcc/aarch64-none-elf/9.2.0/../../../../aarch64-none-elf/lib/pic\libsysbase.a(sbrk.o)
                0x000000000002a410                _sbrk_r
 .text._exit    0x000000000002a488       0x20 c:/devkitpro/devkita64/bin/../lib/gcc/aarch64-none-elf/9.2.0/../../../../aarch64-none-elf/lib/pic\libsysbase.a(_exit.o)
                0x000000000002a488                _exit
 .text._concatenate_path
                0x000000000002a4a8      0x228 c:/devkitpro/devkita64/bin/../lib/gcc/aarch64-none-elf/9.2.0/../../../../aarch64-none-elf/lib/pic\libsysbase.a(chdir.o)
                0x000000000002a4a8                _concatenate_path
 .text.chdir    0x000000000002a6d0      0x178 c:/devkitpro/devkita64/bin/../lib/gcc/aarch64-none-elf/9.2.0/../../../../aarch64-none-elf/lib/pic\libsysbase.a(chdir.o)
                0x000000000002a6d0                chdir
 .text.getcwd   0x000000000002a848       0xb8 c:/devkitpro/devkita64/bin/../lib/gcc/aarch64-none-elf/9.2.0/../../../../aarch64-none-elf/lib/pic\libsysbase.a(chdir.o)
                0x000000000002a848                getcwd
 .text.timespec2nsec
                0x000000000002a900       0x14 c:/devkitpro/devkita64/bin/../lib/gcc/aarch64-none-elf/9.2.0/../../../../aarch64-none-elf/lib/pic\libsysbase.a(locks.o)
                0x000000000002a900                timespec2nsec
 *fill*         0x000000000002a914        0x4 
 .text.abstimespec2nsec
                0x000000000002a918       0xc4 c:/devkitpro/devkita64/bin/../lib/gcc/aarch64-none-elf/9.2.0/../../../../aarch64-none-elf/lib/pic\libsysbase.a(locks.o)
                0x000000000002a918                abstimespec2nsec
 *fill*         0x000000000002a9dc        0x4 
 .text.__libc_lock_init
                0x000000000002a9e0        0x8 c:/devkitpro/devkita64/bin/../lib/gcc/aarch64-none-elf/9.2.0/../../../../aarch64-none-elf/lib/pic\libsysbase.a(locks.o)
                0x000000000002a9e0                __libc_lock_init
 .text.__libc_lock_acquire
                0x000000000002a9e8       0x14 c:/devkitpro/devkita64/bin/../lib/gcc/aarch64-none-elf/9.2.0/../../../../aarch64-none-elf/lib/pic\libsysbase.a(locks.o)
                0x000000000002a9e8                __libc_lock_acquire
 *fill*         0x000000000002a9fc        0x4 
 .text.__libc_lock_try_acquire
                0x000000000002aa00       0x18 c:/devkitpro/devkita64/bin/../lib/gcc/aarch64-none-elf/9.2.0/../../../../aarch64-none-elf/lib/pic\libsysbase.a(locks.o)
                0x000000000002aa00                __libc_lock_try_acquire
 .text.__libc_lock_release
                0x000000000002aa18       0x14 c:/devkitpro/devkita64/bin/../lib/gcc/aarch64-none-elf/9.2.0/../../../../aarch64-none-elf/lib/pic\libsysbase.a(locks.o)
                0x000000000002aa18                __libc_lock_release
 *fill*         0x000000000002aa2c        0x4 
 .text.__libc_lock_close
                0x000000000002aa30        0x4 c:/devkitpro/devkita64/bin/../lib/gcc/aarch64-none-elf/9.2.0/../../../../aarch64-none-elf/lib/pic\libsysbase.a(locks.o)
                0x000000000002aa30                __libc_lock_close
 *fill*         0x000000000002aa34        0x4 
 .text.__libc_lock_init_recursive
                0x000000000002aa38        0xc c:/devkitpro/devkita64/bin/../lib/gcc/aarch64-none-elf/9.2.0/../../../../aarch64-none-elf/lib/pic\libsysbase.a(locks.o)
                0x000000000002aa38                __libc_lock_init_recursive
 *fill*         0x000000000002aa44        0x4 
 .text.__libc_lock_acquire_recursive
                0x000000000002aa48       0x14 c:/devkitpro/devkita64/bin/../lib/gcc/aarch64-none-elf/9.2.0/../../../../aarch64-none-elf/lib/pic\libsysbase.a(locks.o)
                0x000000000002aa48                __libc_lock_acquire_recursive
 *fill*         0x000000000002aa5c        0x4 
 .text.__libc_lock_try_acquire_recursive
                0x000000000002aa60       0x18 c:/devkitpro/devkita64/bin/../lib/gcc/aarch64-none-elf/9.2.0/../../../../aarch64-none-elf/lib/pic\libsysbase.a(locks.o)
                0x000000000002aa60                __libc_lock_try_acquire_recursive
 .text.__libc_lock_release_recursive
                0x000000000002aa78       0x14 c:/devkitpro/devkita64/bin/../lib/gcc/aarch64-none-elf/9.2.0/../../../../aarch64-none-elf/lib/pic\libsysbase.a(locks.o)
                0x000000000002aa78                __libc_lock_release_recursive
 *fill*         0x000000000002aa8c        0x4 
 .text.__libc_lock_close_recursive
                0x000000000002aa90        0x4 c:/devkitpro/devkita64/bin/../lib/gcc/aarch64-none-elf/9.2.0/../../../../aarch64-none-elf/lib/pic\libsysbase.a(locks.o)
                0x000000000002aa90                __libc_lock_close_recursive
 *fill*         0x000000000002aa94        0x4 
 .text.__libc_cond_init
                0x000000000002aa98       0x10 c:/devkitpro/devkita64/bin/../lib/gcc/aarch64-none-elf/9.2.0/../../../../aarch64-none-elf/lib/pic\libsysbase.a(locks.o)
                0x000000000002aa98                __libc_cond_init
 .text.__libc_cond_signal
                0x000000000002aaa8       0x18 c:/devkitpro/devkita64/bin/../lib/gcc/aarch64-none-elf/9.2.0/../../../../aarch64-none-elf/lib/pic\libsysbase.a(locks.o)
                0x000000000002aaa8                __libc_cond_signal
 .text.__libc_cond_broadcast
                0x000000000002aac0       0x18 c:/devkitpro/devkita64/bin/../lib/gcc/aarch64-none-elf/9.2.0/../../../../aarch64-none-elf/lib/pic\libsysbase.a(locks.o)
                0x000000000002aac0                __libc_cond_broadcast
 .text.__libc_cond_wait
                0x000000000002aad8       0x18 c:/devkitpro/devkita64/bin/../lib/gcc/aarch64-none-elf/9.2.0/../../../../aarch64-none-elf/lib/pic\libsysbase.a(locks.o)
                0x000000000002aad8                __libc_cond_wait
 .text.__libc_cond_wait_recursive
                0x000000000002aaf0       0x18 c:/devkitpro/devkita64/bin/../lib/gcc/aarch64-none-elf/9.2.0/../../../../aarch64-none-elf/lib/pic\libsysbase.a(locks.o)
                0x000000000002aaf0                __libc_cond_wait_recursive
 .text.__getreent
                0x000000000002ab08       0x20 c:/devkitpro/devkita64/bin/../lib/gcc/aarch64-none-elf/9.2.0/../../../../aarch64-none-elf/lib/pic\libsysbase.a(getreent.o)
                0x000000000002ab08                __getreent
 .text.clock_gettime
                0x000000000002ab28       0x34 c:/devkitpro/devkita64/bin/../lib/gcc/aarch64-none-elf/9.2.0/../../../../aarch64-none-elf/lib/pic\libsysbase.a(clocks.o)
                0x000000000002ab28                clock_gettime
 *fill*         0x000000000002ab5c        0x4 
 .text.clock_settime
                0x000000000002ab60       0x34 c:/devkitpro/devkita64/bin/../lib/gcc/aarch64-none-elf/9.2.0/../../../../aarch64-none-elf/lib/pic\libsysbase.a(clocks.o)
                0x000000000002ab60                clock_settime
 *fill*         0x000000000002ab94        0x4 
 .text.clock_getres
                0x000000000002ab98       0x34 c:/devkitpro/devkita64/bin/../lib/gcc/aarch64-none-elf/9.2.0/../../../../aarch64-none-elf/lib/pic\libsysbase.a(clocks.o)
                0x000000000002ab98                clock_getres
 *fill*         0x000000000002abcc        0x4 
 .text.__trunctfdf2
                0x000000000002abd0      0x30c c:/devkitpro/devkita64/bin/../lib/gcc/aarch64-none-elf/9.2.0/pic\libgcc.a(trunctfdf2.o)
                0x000000000002abd0                __trunctfdf2
 *fill*         0x000000000002aedc        0x4 
 .text.__sfp_handle_exceptions
                0x000000000002aee0       0x70 c:/devkitpro/devkita64/bin/../lib/gcc/aarch64-none-elf/9.2.0/pic\libgcc.a(sfp-exceptions.o)
                0x000000000002aee0                __sfp_handle_exceptions
 .text          0x000000000002af50      0x100 c:/devkitpro/devkita64/bin/../lib/gcc/aarch64-none-elf/9.2.0/../../../../aarch64-none-elf/lib/pic\libg.a(lib_a-strrchr.o)
                0x000000000002af50                strrchr
                0x000000000002b050                . = ALIGN (0x8)

.fini           0x000000000002b050       0x38
 *(.fini)
 .fini          0x000000000002b050       0x18 c:/devkitpro/devkita64/bin/../lib/gcc/aarch64-none-elf/9.2.0/pic/crti.o
                0x000000000002b050                _fini
 .fini          0x000000000002b068       0x1c c:/devkitpro/devkita64/bin/../lib/gcc/aarch64-none-elf/9.2.0/pic/crtn.o
                0x000000000002b088                . = ALIGN (0x8)
 *fill*         0x000000000002b084        0x4 
                0x000000000002c000                . = ALIGN (0x1000)

.rodata         0x000000000002c000     0x1cc0
 *(.rodata .rodata.* .gnu.linkonce.r.*)
 .rodata.str1.8
                0x000000000002c000      0x2dd main.o
 *fill*         0x000000000002c2dd        0x3 
 .rodata        0x000000000002c2e0      0x400 main.o
 .rodata.str1.8
                0x000000000002c6e0        0x5 acmd_wrapper.o
 *fill*         0x000000000002c6e5        0x3 
 .rodata        0x000000000002c6e8      0x400 acmd_wrapper.o
 .rodata.str1.8
                0x000000000002cae8        0x5 saltysd_helper.o
 *fill*         0x000000000002caed        0x3 
 .rodata        0x000000000002caf0        0x5 saltysd_helper.o
 *fill*         0x000000000002caf5        0x3 
 .rodata        0x000000000002caf8       0x60 lua_bind_hash.o
 .rodata.str1.8
                0x000000000002cb58      0x147 raygun_printer.o
                                        0x14f (size before relaxing)
 *fill*         0x000000000002cc9f        0x1 
 .rodata        0x000000000002cca0      0x53c raygun_printer.o
 *fill*         0x000000000002d1dc        0x4 
 .rodata._fsdevUnmountDeviceStruct.part.4.str1.8
                0x000000000002d1e0        0x2 C:/Users/oukeh/OneDrive/桌面/code-mod-example/code-mod-framework/lib/libnx_min/nx/lib\libnx_min.a(fs_dev.o)
 *fill*         0x000000000002d1e2        0x6 
 .rodata.error_table
                0x000000000002d1e8       0x20 C:/Users/oukeh/OneDrive/桌面/code-mod-example/code-mod-framework/lib/libnx_min/nx/lib\libnx_min.a(fs_dev.o)
 .rodata.fsdevMountSdmc.str1.8
                0x000000000002d208        0x5 C:/Users/oukeh/OneDrive/桌面/code-mod-example/code-mod-framework/lib/libnx_min/nx/lib\libnx_min.a(fs_dev.o)
 *fill*         0x000000000002d20d        0x3 
 .rodata.fsInitialize.str1.8
                0x000000000002d210        0x8 C:/Users/oukeh/OneDrive/桌面/code-mod-example/code-mod-framework/lib/libnx_min/nx/lib\libnx_min.a(fs.o)
 .rodata.setInitialize.str1.8
                0x000000000002d218        0x4 C:/Users/oukeh/OneDrive/桌面/code-mod-example/code-mod-framework/lib/libnx_min/nx/lib\libnx_min.a(set.o)
 *fill*         0x000000000002d21c        0x4 
 .rodata.setsysInitialize.str1.8
                0x000000000002d220        0x8 C:/Users/oukeh/OneDrive/桌面/code-mod-example/code-mod-framework/lib/libnx_min/nx/lib\libnx_min.a(set.o)
 .rodata._fatalImpl.str1.8
                0x000000000002d228        0x8 C:/Users/oukeh/OneDrive/桌面/code-mod-example/code-mod-framework/lib/libnx_min/nx/lib\libnx_min.a(fatal.o)
 .rodata.smInitialize.str1.8
                0x000000000002d230        0x4 C:/Users/oukeh/OneDrive/桌面/code-mod-example/code-mod-framework/lib/libnx_min/nx/lib\libnx_min.a(sm.o)
                                          0x9 (size before relaxing)
 *fill*         0x000000000002d234        0x4 
 .rodata        0x000000000002d238       0x24 C:/Users/oukeh/OneDrive/桌面/code-mod-example/code-mod-framework/lib/libnx_min/nx/lib\libnx_min.a(hid.o)
 *fill*         0x000000000002d25c        0x4 
 .rodata.hidInitialize.str1.8
                0x000000000002d260        0x4 C:/Users/oukeh/OneDrive/桌面/code-mod-example/code-mod-framework/lib/libnx_min/nx/lib\libnx_min.a(hid.o)
 *fill*         0x000000000002d264        0x4 
 .rodata.timeInitialize.str1.8
                0x000000000002d268        0xf C:/Users/oukeh/OneDrive/桌面/code-mod-example/code-mod-framework/lib/libnx_min/nx/lib\libnx_min.a(time.o)
 *fill*         0x000000000002d277        0x1 
 .rodata.CSWTCH.93
                0x000000000002d278       0x14 C:/Users/oukeh/OneDrive/桌面/code-mod-example/code-mod-framework/lib/libnx_min/nx/lib\libnx_min.a(applet.o)
 *fill*         0x000000000002d28c        0x4 
 .rodata.appletInitialize.str1.8
                0x000000000002d290       0x19 C:/Users/oukeh/OneDrive/桌面/code-mod-example/code-mod-framework/lib/libnx_min/nx/lib\libnx_min.a(applet.o)
 *fill*         0x000000000002d2a9        0x7 
 .rodata.__libnx_init_time.str1.8
                0x000000000002d2b0        0x3 C:/Users/oukeh/OneDrive/桌面/code-mod-example/code-mod-framework/lib/libnx_min/nx/lib\libnx_min.a(newlib.o)
 *fill*         0x000000000002d2b3        0x5 
 .rodata.apmInitialize.str1.8
                0x000000000002d2b8        0x4 C:/Users/oukeh/OneDrive/桌面/code-mod-example/code-mod-framework/lib/libnx_min/nx/lib\libnx_min.a(apm.o)
 *fill*         0x000000000002d2bc        0x4 
 .rodata._ctype_
                0x000000000002d2c0      0x101 c:/devkitpro/devkita64/bin/../lib/gcc/aarch64-none-elf/9.2.0/../../../../aarch64-none-elf/lib/pic\libg.a(lib_a-ctype_.o)
                0x000000000002d2c0                _ctype_
 *fill*         0x000000000002d3c1        0x3 
 .rodata.get_arg
                0x000000000002d3c4       0x92 c:/devkitpro/devkita64/bin/../lib/gcc/aarch64-none-elf/9.2.0/../../../../aarch64-none-elf/lib/pic\libg.a(lib_a-svfprintf.o)
 .rodata._svfprintf_r.str1.1
                0x000000000002d456       0x3b c:/devkitpro/devkita64/bin/../lib/gcc/aarch64-none-elf/9.2.0/../../../../aarch64-none-elf/lib/pic\libg.a(lib_a-svfprintf.o)
 *fill*         0x000000000002d491        0x3 
 .rodata._svfprintf_r
                0x000000000002d494       0xb6 c:/devkitpro/devkita64/bin/../lib/gcc/aarch64-none-elf/9.2.0/../../../../aarch64-none-elf/lib/pic\libg.a(lib_a-svfprintf.o)
 *fill*         0x000000000002d54a        0x6 
 .rodata.blanks.6692
                0x000000000002d550       0x10 c:/devkitpro/devkita64/bin/../lib/gcc/aarch64-none-elf/9.2.0/../../../../aarch64-none-elf/lib/pic\libg.a(lib_a-svfprintf.o)
 .rodata.zeroes.6693
                0x000000000002d560       0x10 c:/devkitpro/devkita64/bin/../lib/gcc/aarch64-none-elf/9.2.0/../../../../aarch64-none-elf/lib/pic\libg.a(lib_a-svfprintf.o)
 .rodata._dtoa_r.str1.8
                0x000000000002d570       0x1a c:/devkitpro/devkita64/bin/../lib/gcc/aarch64-none-elf/9.2.0/../../../../aarch64-none-elf/lib/pic\libg.a(lib_a-dtoa.o)
 *fill*         0x000000000002d58a        0x6 
 .rodata.cst8   0x000000000002d590       0x18 c:/devkitpro/devkita64/bin/../lib/gcc/aarch64-none-elf/9.2.0/../../../../aarch64-none-elf/lib/pic\libg.a(lib_a-dtoa.o)
 .rodata.currentlocale.str1.8
                0x000000000002d5a8        0x2 c:/devkitpro/devkita64/bin/../lib/gcc/aarch64-none-elf/9.2.0/../../../../aarch64-none-elf/lib/pic\libg.a(lib_a-locale.o)
 *fill*         0x000000000002d5aa        0x6 
 .rodata.__loadlocale.str1.8
                0x000000000002d5b0      0x113 c:/devkitpro/devkita64/bin/../lib/gcc/aarch64-none-elf/9.2.0/../../../../aarch64-none-elf/lib/pic\libg.a(lib_a-locale.o)
 *fill*         0x000000000002d6c3        0x1 
 .rodata.__loadlocale
                0x000000000002d6c4       0x6a c:/devkitpro/devkita64/bin/../lib/gcc/aarch64-none-elf/9.2.0/../../../../aarch64-none-elf/lib/pic\libg.a(lib_a-locale.o)
 *fill*         0x000000000002d72e        0x2 
 .rodata.__get_locale_env.str1.8
                0x000000000002d730        0xd c:/devkitpro/devkita64/bin/../lib/gcc/aarch64-none-elf/9.2.0/../../../../aarch64-none-elf/lib/pic\libg.a(lib_a-locale.o)
 *fill*         0x000000000002d73d        0x3 
 .rodata.str1.8
                0x000000000002d740       0x5c c:/devkitpro/devkita64/bin/../lib/gcc/aarch64-none-elf/9.2.0/../../../../aarch64-none-elf/lib/pic\libg.a(lib_a-locale.o)
                                         0x64 (size before relaxing)
 *fill*         0x000000000002d79c        0x4 
 .rodata.JIS_action_table
                0x000000000002d7a0       0x48 c:/devkitpro/devkita64/bin/../lib/gcc/aarch64-none-elf/9.2.0/../../../../aarch64-none-elf/lib/pic\libg.a(lib_a-mbtowc_r.o)
 .rodata.JIS_state_table
                0x000000000002d7e8       0x48 c:/devkitpro/devkita64/bin/../lib/gcc/aarch64-none-elf/9.2.0/../../../../aarch64-none-elf/lib/pic\libg.a(lib_a-mbtowc_r.o)
 .rodata.__mprec_bigtens
                0x000000000002d830       0x28 c:/devkitpro/devkita64/bin/../lib/gcc/aarch64-none-elf/9.2.0/../../../../aarch64-none-elf/lib/pic\libg.a(lib_a-mprec.o)
                0x000000000002d830                __mprec_bigtens
 .rodata.__mprec_tens
                0x000000000002d858       0xc8 c:/devkitpro/devkita64/bin/../lib/gcc/aarch64-none-elf/9.2.0/../../../../aarch64-none-elf/lib/pic\libg.a(lib_a-mprec.o)
                0x000000000002d858                __mprec_tens
 .rodata.__mprec_tinytens
                0x000000000002d920       0x28 c:/devkitpro/devkita64/bin/../lib/gcc/aarch64-none-elf/9.2.0/../../../../aarch64-none-elf/lib/pic\libg.a(lib_a-mprec.o)
                0x000000000002d920                __mprec_tinytens
 .rodata.p05.5441
                0x000000000002d948        0xc c:/devkitpro/devkita64/bin/../lib/gcc/aarch64-none-elf/9.2.0/../../../../aarch64-none-elf/lib/pic\libg.a(lib_a-mprec.o)
 .rodata.get_arg
                0x000000000002d954       0x92 c:/devkitpro/devkita64/bin/../lib/gcc/aarch64-none-elf/9.2.0/../../../../aarch64-none-elf/lib/pic\libg.a(lib_a-svfiprintf.o)
 .rodata._svfiprintf_r.str1.1
                0x000000000002d9e6       0x29 c:/devkitpro/devkita64/bin/../lib/gcc/aarch64-none-elf/9.2.0/../../../../aarch64-none-elf/lib/pic\libg.a(lib_a-svfiprintf.o)
 *fill*         0x000000000002d9e6        0x2 
 .rodata._svfiprintf_r
                0x000000000002d9e8       0xb6 c:/devkitpro/devkita64/bin/../lib/gcc/aarch64-none-elf/9.2.0/../../../../aarch64-none-elf/lib/pic\libg.a(lib_a-svfiprintf.o)
 *fill*         0x000000000002da9e        0x2 
 .rodata.__action_table
                0x000000000002daa0       0x6c c:/devkitpro/devkita64/bin/../lib/gcc/aarch64-none-elf/9.2.0/../../../../aarch64-none-elf/lib/pic\libg.a(lib_a-svfiprintf.o)
                0x000000000002daa0                __action_table
 *fill*         0x000000000002db0c        0x4 
 .rodata.__chclass
                0x000000000002db10      0x100 c:/devkitpro/devkita64/bin/../lib/gcc/aarch64-none-elf/9.2.0/../../../../aarch64-none-elf/lib/pic\libg.a(lib_a-svfiprintf.o)
                0x000000000002db10                __chclass
 .rodata.__state_table
                0x000000000002dc10       0x6c c:/devkitpro/devkita64/bin/../lib/gcc/aarch64-none-elf/9.2.0/../../../../aarch64-none-elf/lib/pic\libg.a(lib_a-svfiprintf.o)
                0x000000000002dc10                __state_table
 *fill*         0x000000000002dc7c        0x4 
 .rodata.blanks.6671
                0x000000000002dc80       0x10 c:/devkitpro/devkita64/bin/../lib/gcc/aarch64-none-elf/9.2.0/../../../../aarch64-none-elf/lib/pic\libg.a(lib_a-svfiprintf.o)
 .rodata.zeroes.6672
                0x000000000002dc90       0x10 c:/devkitpro/devkita64/bin/../lib/gcc/aarch64-none-elf/9.2.0/../../../../aarch64-none-elf/lib/pic\libg.a(lib_a-svfiprintf.o)
 .rodata.AddDevice.str1.8
                0x000000000002dca0        0x8 c:/devkitpro/devkita64/bin/../lib/gcc/aarch64-none-elf/9.2.0/../../../../aarch64-none-elf/lib/pic\libsysbase.a(iosupport.o)
 .rodata.DIRECTORY_PARENT
                0x000000000002dca8        0x3 c:/devkitpro/devkita64/bin/../lib/gcc/aarch64-none-elf/9.2.0/../../../../aarch64-none-elf/lib/pic\libsysbase.a(chdir.o)
                0x000000000002dca8                DIRECTORY_PARENT
 *fill*         0x000000000002dcab        0x5 
 .rodata.DIRECTORY_SEPARATOR
                0x000000000002dcb0        0x2 c:/devkitpro/devkita64/bin/../lib/gcc/aarch64-none-elf/9.2.0/../../../../aarch64-none-elf/lib/pic\libsysbase.a(chdir.o)
                0x000000000002dcb0                DIRECTORY_SEPARATOR
 *fill*         0x000000000002dcb2        0x6 
 .rodata.DIRECTORY_THIS
                0x000000000002dcb8        0x2 c:/devkitpro/devkita64/bin/../lib/gcc/aarch64-none-elf/9.2.0/../../../../aarch64-none-elf/lib/pic\libsysbase.a(chdir.o)
                0x000000000002dcb8                DIRECTORY_THIS
                0x000000000002dcc0                . = ALIGN (0x8)
 *fill*         0x000000000002dcba        0x6 

.eh_frame_hdr   0x000000000002dcc0        0x0
                0x000000000002dcc0                __eh_frame_hdr_start = .
 *(.eh_frame_hdr)
 *(.eh_frame_entry .eh_frame_entry.*)
                0x000000000002dcc0                __eh_frame_hdr_end = .

.eh_frame       0x000000000002dcc0     0x78e0
 *(.eh_frame)
 .eh_frame      0x000000000002dcc0       0x80 c:/devkitpro/devkita64/bin/../lib/gcc/aarch64-none-elf/9.2.0/pic/crtbegin.o
 .eh_frame      0x000000000002dd40      0x248 main.o
                                        0x258 (size before relaxing)
 .eh_frame      0x000000000002df88      0x328 acmd_wrapper.o
                                        0x338 (size before relaxing)
 .eh_frame      0x000000000002e2b0       0x78 saltysd_helper.o
                                         0x88 (size before relaxing)
 .eh_frame      0x000000000002e328       0x40 lua_bind_hash.o
                                         0x58 (size before relaxing)
 .eh_frame      0x000000000002e368       0xd8 l2c_imports.o
                                         0xe8 (size before relaxing)
 .eh_frame      0x000000000002e440      0x118 raygun_printer.o
                                        0x128 (size before relaxing)
 .eh_frame      0x000000000002e558       0x28 C:/Users/oukeh/OneDrive/桌面/code-mod-example/code-mod-framework/lib/libnx_min/nx/lib\libnx_min.a(exception.o)
                                         0x40 (size before relaxing)
 .eh_frame      0x000000000002e580       0xa8 C:/Users/oukeh/OneDrive/桌面/code-mod-example/code-mod-framework/lib/libnx_min/nx/lib\libnx_min.a(argv.o)
                                         0xb8 (size before relaxing)
 .eh_frame      0x000000000002e628      0x1c0 C:/Users/oukeh/OneDrive/桌面/code-mod-example/code-mod-framework/lib/libnx_min/nx/lib\libnx_min.a(env.o)
                                        0x1d8 (size before relaxing)
 .eh_frame      0x000000000002e7e8       0x68 C:/Users/oukeh/OneDrive/桌面/code-mod-example/code-mod-framework/lib/libnx_min/nx/lib\libnx_min.a(init.o)
                                         0xb8 (size before relaxing)
 .eh_frame      0x000000000002e850       0x28 C:/Users/oukeh/OneDrive/桌面/code-mod-example/code-mod-framework/lib/libnx_min/nx/lib\libnx_min.a(hosversion.o)
                                         0x40 (size before relaxing)
 .eh_frame      0x000000000002e878       0x18 C:/Users/oukeh/OneDrive/桌面/code-mod-example/code-mod-framework/lib/libnx_min/nx/lib\libnx_min.a(dynamic.o)
                                         0x30 (size before relaxing)
 .eh_frame      0x000000000002e890      0x800 C:/Users/oukeh/OneDrive/桌面/code-mod-example/code-mod-framework/lib/libnx_min/nx/lib\libnx_min.a(fs_dev.o)
                                        0x818 (size before relaxing)
 .eh_frame      0x000000000002f090       0x18 C:/Users/oukeh/OneDrive/桌面/code-mod-example/code-mod-framework/lib/libnx_min/nx/lib\libnx_min.a(decode_utf8.o)
                                         0x28 (size before relaxing)
 .eh_frame      0x000000000002f0a8      0x7d0 C:/Users/oukeh/OneDrive/桌面/code-mod-example/code-mod-framework/lib/libnx_min/nx/lib\libnx_min.a(svc.o)
                                        0x7e8 (size before relaxing)
 .eh_frame      0x000000000002f878       0x18 C:/Users/oukeh/OneDrive/桌面/code-mod-example/code-mod-framework/lib/libnx_min/nx/lib\libnx_min.a(readtp.o)
                                         0x28 (size before relaxing)
 .eh_frame      0x000000000002f890      0x108 C:/Users/oukeh/OneDrive/桌面/code-mod-example/code-mod-framework/lib/libnx_min/nx/lib\libnx_min.a(virtmem.o)
                                        0x120 (size before relaxing)
 .eh_frame      0x000000000002f998       0xb0 C:/Users/oukeh/OneDrive/桌面/code-mod-example/code-mod-framework/lib/libnx_min/nx/lib\libnx_min.a(mutex.o)
                                         0xc0 (size before relaxing)
 .eh_frame      0x000000000002fa48      0xed0 C:/Users/oukeh/OneDrive/桌面/code-mod-example/code-mod-framework/lib/libnx_min/nx/lib\libnx_min.a(fs.o)
                                        0xee0 (size before relaxing)
 .eh_frame      0x0000000000030918      0x540 C:/Users/oukeh/OneDrive/桌面/code-mod-example/code-mod-framework/lib/libnx_min/nx/lib\libnx_min.a(set.o)
                                        0x550 (size before relaxing)
 .eh_frame      0x0000000000030e58       0x70 C:/Users/oukeh/OneDrive/桌面/code-mod-example/code-mod-framework/lib/libnx_min/nx/lib\libnx_min.a(fatal.o)
                                         0x88 (size before relaxing)
 .eh_frame      0x0000000000030ec8      0x1d8 C:/Users/oukeh/OneDrive/桌面/code-mod-example/code-mod-framework/lib/libnx_min/nx/lib\libnx_min.a(sm.o)
                                        0x1f0 (size before relaxing)
 .eh_frame      0x00000000000310a0      0xbe0 C:/Users/oukeh/OneDrive/桌面/code-mod-example/code-mod-framework/lib/libnx_min/nx/lib\libnx_min.a(hid.o)
                                        0xbf0 (size before relaxing)
 .eh_frame      0x0000000000031c80      0x180 C:/Users/oukeh/OneDrive/桌面/code-mod-example/code-mod-framework/lib/libnx_min/nx/lib\libnx_min.a(time.o)
                                        0x198 (size before relaxing)
 .eh_frame      0x0000000000031e00     0x1448 C:/Users/oukeh/OneDrive/桌面/code-mod-example/code-mod-framework/lib/libnx_min/nx/lib\libnx_min.a(applet.o)
                                       0x1458 (size before relaxing)
 .eh_frame      0x0000000000033248      0x408 C:/Users/oukeh/OneDrive/桌面/code-mod-example/code-mod-framework/lib/libnx_min/nx/lib\libnx_min.a(newlib.o)
                                        0x420 (size before relaxing)
 .eh_frame      0x0000000000033650      0x1b8 C:/Users/oukeh/OneDrive/桌面/code-mod-example/code-mod-framework/lib/libnx_min/nx/lib\libnx_min.a(thread.o)
                                        0x1c8 (size before relaxing)
 .eh_frame      0x0000000000033808       0x30 C:/Users/oukeh/OneDrive/桌面/code-mod-example/code-mod-framework/lib/libnx_min/nx/lib\libnx_min.a(condvar.o)
                                         0x48 (size before relaxing)
 .eh_frame      0x0000000000033838       0xb0 C:/Users/oukeh/OneDrive/桌面/code-mod-example/code-mod-framework/lib/libnx_min/nx/lib\libnx_min.a(event.o)
                                         0xc0 (size before relaxing)
 .eh_frame      0x00000000000338e8       0xf0 C:/Users/oukeh/OneDrive/桌面/code-mod-example/code-mod-framework/lib/libnx_min/nx/lib\libnx_min.a(tmem.o)
                                        0x108 (size before relaxing)
 .eh_frame      0x00000000000339d8       0xb0 C:/Users/oukeh/OneDrive/桌面/code-mod-example/code-mod-framework/lib/libnx_min/nx/lib\libnx_min.a(rwlock.o)
                                         0xc0 (size before relaxing)
 .eh_frame      0x0000000000033a88       0xb0 C:/Users/oukeh/OneDrive/桌面/code-mod-example/code-mod-framework/lib/libnx_min/nx/lib\libnx_min.a(wait.o)
                                         0xc8 (size before relaxing)
 .eh_frame      0x0000000000033b38       0xb8 C:/Users/oukeh/OneDrive/桌面/code-mod-example/code-mod-framework/lib/libnx_min/nx/lib\libnx_min.a(shmem.o)
                                         0xc8 (size before relaxing)
 .eh_frame      0x0000000000033bf0       0xc8 C:/Users/oukeh/OneDrive/桌面/code-mod-example/code-mod-framework/lib/libnx_min/nx/lib\libnx_min.a(detect.o)
                                         0xd8 (size before relaxing)
 .eh_frame      0x0000000000033cb8      0x110 C:/Users/oukeh/OneDrive/桌面/code-mod-example/code-mod-framework/lib/libnx_min/nx/lib\libnx_min.a(apm.o)
                                        0x128 (size before relaxing)
 .eh_frame      0x0000000000033dc8       0x68 c:/devkitpro/devkita64/bin/../lib/gcc/aarch64-none-elf/9.2.0/../../../../aarch64-none-elf/lib/pic\libg.a(lib_a-bsearch.o)
                                         0x78 (size before relaxing)
 .eh_frame      0x0000000000033e30       0x18 c:/devkitpro/devkita64/bin/../lib/gcc/aarch64-none-elf/9.2.0/../../../../aarch64-none-elf/lib/pic\libg.a(lib_a-ctype_.o)
                                         0x28 (size before relaxing)
 .eh_frame      0x0000000000033e48       0x20 c:/devkitpro/devkita64/bin/../lib/gcc/aarch64-none-elf/9.2.0/../../../../aarch64-none-elf/lib/pic\libg.a(lib_a-errno.o)
                                         0x38 (size before relaxing)
 .eh_frame      0x0000000000033e68       0x20 c:/devkitpro/devkita64/bin/../lib/gcc/aarch64-none-elf/9.2.0/../../../../aarch64-none-elf/lib/pic\libg.a(lib_a-exit.o)
                                         0x30 (size before relaxing)
 .eh_frame      0x0000000000033e88       0x28 c:/devkitpro/devkita64/bin/../lib/gcc/aarch64-none-elf/9.2.0/../../../../aarch64-none-elf/lib/pic\libg.a(lib_a-fini.o)
                                         0x38 (size before relaxing)
 .eh_frame      0x0000000000033eb0       0x28 c:/devkitpro/devkita64/bin/../lib/gcc/aarch64-none-elf/9.2.0/../../../../aarch64-none-elf/lib/pic\libg.a(lib_a-init.o)
                                         0x40 (size before relaxing)
 .eh_frame      0x0000000000033ed8       0x28 c:/devkitpro/devkita64/bin/../lib/gcc/aarch64-none-elf/9.2.0/../../../../aarch64-none-elf/lib/pic\libg.a(lib_a-malign.o)
                                         0x38 (size before relaxing)
 .eh_frame      0x0000000000033f00       0x50 c:/devkitpro/devkita64/bin/../lib/gcc/aarch64-none-elf/9.2.0/../../../../aarch64-none-elf/lib/pic\libg.a(lib_a-malignr.o)
                                         0x60 (size before relaxing)
 .eh_frame      0x0000000000033f50       0x48 c:/devkitpro/devkita64/bin/../lib/gcc/aarch64-none-elf/9.2.0/../../../../aarch64-none-elf/lib/pic\libg.a(lib_a-malloc.o)
                                         0x60 (size before relaxing)
 .eh_frame      0x0000000000033f98       0xd0 c:/devkitpro/devkita64/bin/../lib/gcc/aarch64-none-elf/9.2.0/../../../../aarch64-none-elf/lib/pic\libg.a(lib_a-mallocr.o)
                                         0xe0 (size before relaxing)
 .eh_frame      0x0000000000034068       0x28 c:/devkitpro/devkita64/bin/../lib/gcc/aarch64-none-elf/9.2.0/../../../../aarch64-none-elf/lib/pic\libg.a(lib_a-mlock.o)
                                         0x40 (size before relaxing)
 .eh_frame      0x0000000000034090       0x50 c:/devkitpro/devkita64/bin/../lib/gcc/aarch64-none-elf/9.2.0/../../../../aarch64-none-elf/lib/pic\libg.a(lib_a-setenv.o)
                                         0x60 (size before relaxing)
 .eh_frame      0x00000000000340e0       0xb0 c:/devkitpro/devkita64/bin/../lib/gcc/aarch64-none-elf/9.2.0/../../../../aarch64-none-elf/lib/pic\libg.a(lib_a-setenv_r.o)
                                         0xc8 (size before relaxing)
 .eh_frame      0x0000000000034190       0x18 c:/devkitpro/devkita64/bin/../lib/gcc/aarch64-none-elf/9.2.0/../../../../aarch64-none-elf/lib/pic\libg.a(lib_a-strncat.o)
                                         0x28 (size before relaxing)
 .eh_frame      0x00000000000341a8       0x18 c:/devkitpro/devkita64/bin/../lib/gcc/aarch64-none-elf/9.2.0/../../../../aarch64-none-elf/lib/pic\libg.a(lib_a-strncpy.o)
                                         0x28 (size before relaxing)
 .eh_frame      0x00000000000341c0       0x18 c:/devkitpro/devkita64/bin/../lib/gcc/aarch64-none-elf/9.2.0/../../../../aarch64-none-elf/lib/pic\libg.a(lib_a-toupper.o)
                                         0x28 (size before relaxing)
 .eh_frame      0x00000000000341d8       0x60 c:/devkitpro/devkita64/bin/../lib/gcc/aarch64-none-elf/9.2.0/../../../../aarch64-none-elf/lib/pic\libg.a(lib_a-vsnprintf.o)
                                         0x70 (size before relaxing)
 .eh_frame      0x0000000000034238       0x58 c:/devkitpro/devkita64/bin/../lib/gcc/aarch64-none-elf/9.2.0/../../../../aarch64-none-elf/lib/pic\libg.a(lib_a-__call_atexit.o)
                                         0x70 (size before relaxing)
 .eh_frame      0x0000000000034290       0x28 c:/devkitpro/devkita64/bin/../lib/gcc/aarch64-none-elf/9.2.0/../../../../aarch64-none-elf/lib/pic\libg.a(lib_a-envlock.o)
                                         0x40 (size before relaxing)
 .eh_frame      0x00000000000342b8       0x90 c:/devkitpro/devkita64/bin/../lib/gcc/aarch64-none-elf/9.2.0/../../../../aarch64-none-elf/lib/pic\libg.a(lib_a-freer.o)
                                         0xa0 (size before relaxing)
 .eh_frame      0x0000000000034348       0x78 c:/devkitpro/devkita64/bin/../lib/gcc/aarch64-none-elf/9.2.0/../../../../aarch64-none-elf/lib/pic\libg.a(lib_a-getenv_r.o)
                                         0x90 (size before relaxing)
 .eh_frame      0x00000000000343c0       0xf0 c:/devkitpro/devkita64/bin/../lib/gcc/aarch64-none-elf/9.2.0/../../../../aarch64-none-elf/lib/pic\libg.a(lib_a-reallocr.o)
                                        0x108 (size before relaxing)
 .eh_frame      0x00000000000344b0       0xa8 c:/devkitpro/devkita64/bin/../lib/gcc/aarch64-none-elf/9.2.0/../../../../aarch64-none-elf/lib/pic\libg.a(lib_a-svfprintf.o)
                                         0xc0 (size before relaxing)
 .eh_frame      0x0000000000034558       0x70 c:/devkitpro/devkita64/bin/../lib/gcc/aarch64-none-elf/9.2.0/../../../../aarch64-none-elf/lib/pic\libg.a(lib_a-wcrtomb.o)
                                         0x88 (size before relaxing)
 .eh_frame      0x00000000000345c8       0x40 c:/devkitpro/devkita64/bin/../lib/gcc/aarch64-none-elf/9.2.0/../../../../aarch64-none-elf/lib/pic\libg.a(lib_a-wcsrtombs.o)
                                         0x58 (size before relaxing)
 .eh_frame      0x0000000000034608       0xa0 c:/devkitpro/devkita64/bin/../lib/gcc/aarch64-none-elf/9.2.0/../../../../aarch64-none-elf/lib/pic\libg.a(lib_a-dtoa.o)
                                         0xb0 (size before relaxing)
 .eh_frame      0x00000000000346a8       0x58 c:/devkitpro/devkita64/bin/../lib/gcc/aarch64-none-elf/9.2.0/../../../../aarch64-none-elf/lib/pic\libg.a(lib_a-localeconv.o)
                                         0x68 (size before relaxing)
 .eh_frame      0x0000000000034700      0x218 c:/devkitpro/devkita64/bin/../lib/gcc/aarch64-none-elf/9.2.0/../../../../aarch64-none-elf/lib/pic\libg.a(lib_a-locale.o)
                                        0x228 (size before relaxing)
 .eh_frame      0x0000000000034918      0x108 c:/devkitpro/devkita64/bin/../lib/gcc/aarch64-none-elf/9.2.0/../../../../aarch64-none-elf/lib/pic\libg.a(lib_a-mbtowc_r.o)
                                        0x118 (size before relaxing)
 .eh_frame      0x0000000000034a20      0x300 c:/devkitpro/devkita64/bin/../lib/gcc/aarch64-none-elf/9.2.0/../../../../aarch64-none-elf/lib/pic\libg.a(lib_a-mprec.o)
                                        0x318 (size before relaxing)
 .eh_frame      0x0000000000034d20       0x18 c:/devkitpro/devkita64/bin/../lib/gcc/aarch64-none-elf/9.2.0/../../../../aarch64-none-elf/lib/pic\libg.a(lib_a-s_frexp.o)
                                         0x28 (size before relaxing)
 .eh_frame      0x0000000000034d38       0x18 c:/devkitpro/devkita64/bin/../lib/gcc/aarch64-none-elf/9.2.0/../../../../aarch64-none-elf/lib/pic\libg.a(lib_a-strcasecmp.o)
                                         0x28 (size before relaxing)
 .eh_frame      0x0000000000034d50       0x28 c:/devkitpro/devkita64/bin/../lib/gcc/aarch64-none-elf/9.2.0/../../../../aarch64-none-elf/lib/pic\libg.a(lib_a-strcat.o)
                                         0x38 (size before relaxing)
 .eh_frame      0x0000000000034d78       0x18 c:/devkitpro/devkita64/bin/../lib/gcc/aarch64-none-elf/9.2.0/../../../../aarch64-none-elf/lib/pic\libg.a(lib_a-strlcpy.o)
                                         0x28 (size before relaxing)
 .eh_frame      0x0000000000034d90       0x18 c:/devkitpro/devkita64/bin/../lib/gcc/aarch64-none-elf/9.2.0/../../../../aarch64-none-elf/lib/pic\libg.a(lib_a-strncasecmp.o)
                                         0x28 (size before relaxing)
 .eh_frame      0x0000000000034da8       0x98 c:/devkitpro/devkita64/bin/../lib/gcc/aarch64-none-elf/9.2.0/../../../../aarch64-none-elf/lib/pic\libg.a(lib_a-strtol.o)
                                         0xa8 (size before relaxing)
 .eh_frame      0x0000000000034e40       0xe0 c:/devkitpro/devkita64/bin/../lib/gcc/aarch64-none-elf/9.2.0/../../../../aarch64-none-elf/lib/pic\libg.a(lib_a-svfiprintf.o)
                                         0xf0 (size before relaxing)
 .eh_frame      0x0000000000034f20      0x138 c:/devkitpro/devkita64/bin/../lib/gcc/aarch64-none-elf/9.2.0/../../../../aarch64-none-elf/lib/pic\libg.a(lib_a-wcsnrtombs.o)
                                        0x150 (size before relaxing)
 .eh_frame      0x0000000000035058       0x90 c:/devkitpro/devkita64/bin/../lib/gcc/aarch64-none-elf/9.2.0/../../../../aarch64-none-elf/lib/pic\libg.a(lib_a-wctomb_r.o)
                                         0xa8 (size before relaxing)
 .eh_frame      0x00000000000350e8       0x30 c:/devkitpro/devkita64/bin/../lib/gcc/aarch64-none-elf/9.2.0/../../../../aarch64-none-elf/lib/pic\libg.a(lib_a-callocr.o)
                                         0x40 (size before relaxing)
 .eh_frame      0x0000000000035118      0x120 c:/devkitpro/devkita64/bin/../lib/gcc/aarch64-none-elf/9.2.0/../../../../aarch64-none-elf/lib/pic\libsysbase.a(iosupport.o)
                                        0x130 (size before relaxing)
 .eh_frame      0x0000000000035238       0x18 c:/devkitpro/devkita64/bin/../lib/gcc/aarch64-none-elf/9.2.0/../../../../aarch64-none-elf/lib/pic\libsysbase.a(sbrk.o)
                                         0x28 (size before relaxing)
 .eh_frame      0x0000000000035250       0x20 c:/devkitpro/devkita64/bin/../lib/gcc/aarch64-none-elf/9.2.0/../../../../aarch64-none-elf/lib/pic\libsysbase.a(_exit.o)
                                         0x38 (size before relaxing)
 .eh_frame      0x0000000000035270      0x108 c:/devkitpro/devkita64/bin/../lib/gcc/aarch64-none-elf/9.2.0/../../../../aarch64-none-elf/lib/pic\libsysbase.a(chdir.o)
                                        0x120 (size before relaxing)
 .eh_frame      0x0000000000035378      0x168 c:/devkitpro/devkita64/bin/../lib/gcc/aarch64-none-elf/9.2.0/../../../../aarch64-none-elf/lib/pic\libsysbase.a(locks.o)
                                        0x178 (size before relaxing)
 .eh_frame      0x00000000000354e0       0x18 c:/devkitpro/devkita64/bin/../lib/gcc/aarch64-none-elf/9.2.0/../../../../aarch64-none-elf/lib/pic\libsysbase.a(getreent.o)
                                         0x28 (size before relaxing)
 .eh_frame      0x00000000000354f8       0x60 c:/devkitpro/devkita64/bin/../lib/gcc/aarch64-none-elf/9.2.0/../../../../aarch64-none-elf/lib/pic\libsysbase.a(clocks.o)
                                         0x78 (size before relaxing)
 .eh_frame      0x0000000000035558       0x30 c:/devkitpro/devkita64/bin/../lib/gcc/aarch64-none-elf/9.2.0/pic\libgcc.a(trunctfdf2.o)
                                         0x48 (size before relaxing)
 .eh_frame      0x0000000000035588       0x14 c:/devkitpro/devkita64/bin/../lib/gcc/aarch64-none-elf/9.2.0/pic\libgcc.a(sfp-exceptions.o)
                                         0x28 (size before relaxing)
 .eh_frame      0x000000000003559c        0x4 c:/devkitpro/devkita64/bin/../lib/gcc/aarch64-none-elf/9.2.0/pic/crtend.o
 *(.eh_frame.*)

.gcc_except_table
 *(.gcc_except_table .gcc_except_table.*)

.gnu_extab
 *(.gnu_extab*)

.dynamic        0x00000000000355a0      0x1a0
 *(.dynamic)
 .dynamic       0x00000000000355a0      0x1a0 c:/devkitpro/devkita64/bin/../lib/gcc/aarch64-none-elf/9.2.0/pic/crti.o
                0x00000000000355a0                _DYNAMIC

.dynsym         0x0000000000035740     0x47d0
 *(.dynsym)
 .dynsym        0x0000000000035740     0x47d0 c:/devkitpro/devkita64/bin/../lib/gcc/aarch64-none-elf/9.2.0/pic/crti.o

.dynstr         0x0000000000039f10     0x3bd3
 *(.dynstr)
 .dynstr        0x0000000000039f10     0x3bd3 c:/devkitpro/devkita64/bin/../lib/gcc/aarch64-none-elf/9.2.0/pic/crti.o

.rela.dyn       0x000000000003dae8     0x3078
 *(.rela.*)
 .rela.got      0x000000000003dae8      0xc48 c:/devkitpro/devkita64/bin/../lib/gcc/aarch64-none-elf/9.2.0/pic/crti.o
 .rela.plt      0x0000000000040aa0       0xc0 c:/devkitpro/devkita64/bin/../lib/gcc/aarch64-none-elf/9.2.0/pic/crti.o
 .rela.bss      0x000000000003e7f0        0x0 c:/devkitpro/devkita64/bin/../lib/gcc/aarch64-none-elf/9.2.0/pic/crti.o
 .rela.data.rel.ro
                0x000000000003e7f0        0x0 c:/devkitpro/devkita64/bin/../lib/gcc/aarch64-none-elf/9.2.0/pic/crti.o
 .rela.init_array
                0x000000000003e730       0x30 c:/devkitpro/devkita64/bin/../lib/gcc/aarch64-none-elf/9.2.0/pic/crti.o
 .rela.fini_array
                0x000000000003e760       0x18 c:/devkitpro/devkita64/bin/../lib/gcc/aarch64-none-elf/9.2.0/pic/crti.o
 .rela.ifunc    0x000000000003e838        0x0 c:/devkitpro/devkita64/bin/../lib/gcc/aarch64-none-elf/9.2.0/pic/crti.o
 .rela.data.rel.local
                0x000000000003e778      0x3c0 c:/devkitpro/devkita64/bin/../lib/gcc/aarch64-none-elf/9.2.0/pic/crti.o
 .rela.data.rel.ro.local.fsdev_devoptab
                0x000000000003eb38      0x210 c:/devkitpro/devkita64/bin/../lib/gcc/aarch64-none-elf/9.2.0/pic/crti.o
 .rela.data.rel.local._impure_ptr
                0x000000000003ed48       0x18 c:/devkitpro/devkita64/bin/../lib/gcc/aarch64-none-elf/9.2.0/pic/crti.o
 .rela.data.rel.local.impure_data
                0x000000000003ed60       0x48 c:/devkitpro/devkita64/bin/../lib/gcc/aarch64-none-elf/9.2.0/pic/crti.o
 .rela.data.rel.ro.local._global_impure_ptr
                0x000000000003eda8       0x18 c:/devkitpro/devkita64/bin/../lib/gcc/aarch64-none-elf/9.2.0/pic/crti.o
 .rela.data.rel.__malloc_av_
                0x000000000003edc0     0x1800 c:/devkitpro/devkita64/bin/../lib/gcc/aarch64-none-elf/9.2.0/pic/crti.o
 .rela.data.rel.local.environ
                0x00000000000405c0       0x18 c:/devkitpro/devkita64/bin/../lib/gcc/aarch64-none-elf/9.2.0/pic/crti.o
 .rela.data.rel.__global_locale
                0x00000000000405d8      0x138 c:/devkitpro/devkita64/bin/../lib/gcc/aarch64-none-elf/9.2.0/pic/crti.o
 .rela.data.rel.ro.__C_locale
                0x0000000000040710      0x138 c:/devkitpro/devkita64/bin/../lib/gcc/aarch64-none-elf/9.2.0/pic/crti.o
 .rela.data.rel.ro.local.categories
                0x0000000000040848       0xa8 c:/devkitpro/devkita64/bin/../lib/gcc/aarch64-none-elf/9.2.0/pic/crti.o
 .rela.data.rel.devoptab_list
                0x00000000000408f0      0x180 c:/devkitpro/devkita64/bin/../lib/gcc/aarch64-none-elf/9.2.0/pic/crti.o
 .rela.data.rel.ro.local.dotab_stdnull
                0x0000000000040a70       0x30 c:/devkitpro/devkita64/bin/../lib/gcc/aarch64-none-elf/9.2.0/pic/crti.o

.interp         0x0000000000040b60        0xd
 *(.interp)
 .interp        0x0000000000040b60        0xd c:/devkitpro/devkita64/bin/../lib/gcc/aarch64-none-elf/9.2.0/pic/crti.o

.hash           0x0000000000040b70     0x1424
 *(.hash)
 .hash          0x0000000000040b70     0x1424 c:/devkitpro/devkita64/bin/../lib/gcc/aarch64-none-elf/9.2.0/pic/crti.o

.gnu.hash
 *(.gnu.hash)

.gnu.version    0x0000000000041f94        0x0
 *(.gnu.version)
 .gnu.version   0x0000000000041f94        0x0 c:/devkitpro/devkita64/bin/../lib/gcc/aarch64-none-elf/9.2.0/pic/crti.o

.gnu.version_d  0x0000000000041f98        0x0
 *(.gnu.version_d)
 .gnu.version_d
                0x0000000000041f98        0x0 c:/devkitpro/devkita64/bin/../lib/gcc/aarch64-none-elf/9.2.0/pic/crti.o

.gnu.version_r  0x0000000000041f98        0x0
 *(.gnu.version_r)
 .gnu.version_r
                0x0000000000041f98        0x0 c:/devkitpro/devkita64/bin/../lib/gcc/aarch64-none-elf/9.2.0/pic/crti.o

.note.gnu.build-id
                0x0000000000041f94       0x24
 *(.note.gnu.build-id)
 .note.gnu.build-id
                0x0000000000041f94       0x24 c:/devkitpro/devkita64/bin/../lib/gcc/aarch64-none-elf/9.2.0/pic/crti.o
                0x0000000000042000                . = ALIGN (0x1000)

.eh_frame
 *(.eh_frame)
 *(.eh_frame.*)

.gcc_except_table
 *(.gcc_except_table .gcc_except_table.*)

.gnu_extab
 *(.gnu_extab*)

.exception_ranges
 *(.exception_ranges .exception_ranges*)

.tdata          0x0000000000042000        0x0
                0x0000000000042000                __tdata_lma = .
 *(.tdata .tdata.* .gnu.linkonce.td.*)
                0x0000000000042000                . = ALIGN (0x8)
                0x0000000000042000                __tdata_lma_end = .

.tbss           0x0000000000042000     0x4408
 *(.tbss .tbss.* .gnu.linkonce.tb.*)
 .tbss.__fixedpath
                0x0000000000042000      0x401 C:/Users/oukeh/OneDrive/桌面/code-mod-example/code-mod-framework/lib/libnx_min/nx/lib\libnx_min.a(fs_dev.o)
 *fill*         0x0000000000042401        0x3 
 .tbss.fsdev_last_result
                0x0000000000042404        0x4 C:/Users/oukeh/OneDrive/桌面/code-mod-example/code-mod-framework/lib/libnx_min/nx/lib\libnx_min.a(fs_dev.o)
 .tbss.tmp_buffer.7389
                0x0000000000042408     0x2000 C:/Users/oukeh/OneDrive/桌面/code-mod-example/code-mod-framework/lib/libnx_min/nx/lib\libnx_min.a(fs_dev.o)
 .tbss.tmp_buffer.7413
                0x0000000000044408     0x2000 C:/Users/oukeh/OneDrive/桌面/code-mod-example/code-mod-framework/lib/libnx_min/nx/lib\libnx_min.a(fs_dev.o)
 *(.tcommon)
                0x0000000000046408                . = ALIGN (0x8)

.preinit_array  0x0000000000042000        0x0
                0x0000000000042000                PROVIDE (__preinit_array_start = .)
 *(.preinit_array)
                0x0000000000042000                PROVIDE (__preinit_array_end = .)

.init_array     0x0000000000042000       0x10
                0x0000000000042000                PROVIDE (__init_array_start = .)
 *(SORT_BY_NAME(.init_array.*))
 *(.init_array)
 .init_array    0x0000000000042000        0x8 c:/devkitpro/devkita64/bin/../lib/gcc/aarch64-none-elf/9.2.0/pic/crtbegin.o
 .init_array    0x0000000000042008        0x8 main.o
                0x0000000000042010                PROVIDE (__init_array_end = .)

.fini_array     0x0000000000042010        0x8
                0x0000000000042010                PROVIDE (__fini_array_start = .)
 *(.fini_array)
 .fini_array    0x0000000000042010        0x8 c:/devkitpro/devkita64/bin/../lib/gcc/aarch64-none-elf/9.2.0/pic/crtbegin.o
 *(SORT_BY_NAME(.fini_array.*))
                0x0000000000042018                PROVIDE (__fini_array_end = .)

.ctors
 *crtbegin.o(.ctors)
 *(EXCLUDE_FILE(*crtend.o) .ctors)
 *(SORT_BY_NAME(.ctors.*))
 *(.ctors)

.dtors
 *crtbegin.o(.dtors)
 *(EXCLUDE_FILE(*crtend.o) .dtors)
 *(SORT_BY_NAME(.dtors.*))
 *(.dtors)
                0x0000000000042018                __got_start__ = .

.got            0x0000000000042018      0x420
 *(.got)
 .got           0x0000000000042018      0x420 c:/devkitpro/devkita64/bin/../lib/gcc/aarch64-none-elf/9.2.0/pic/crti.o
                0x0000000000042018                _GLOBAL_OFFSET_TABLE_
 *(.igot)

.got.plt        0x0000000000042438       0x58
 *(.got.plt)
 .got.plt       0x0000000000042438       0x58 c:/devkitpro/devkita64/bin/../lib/gcc/aarch64-none-elf/9.2.0/pic/crti.o
 *(.igot.plt)
                0x0000000000042490                __got_end__ = .

.data           0x0000000000042490     0x1ef8
 *(.data .data.* .gnu.linkonce.d.*)
 .data.rel.ro   0x0000000000042490        0x0 c:/devkitpro/devkita64/bin/../lib/gcc/aarch64-none-elf/9.2.0/pic/crti.o
 .data          0x0000000000042490        0x4 main.o
                0x0000000000042490                __nx_applet_type
 *fill*         0x0000000000042494        0x4 
 .data.rel.local
                0x0000000000042498      0x140 raygun_printer.o
                0x0000000000042498                alphabet
 .data.__nx_exception_stack_size
                0x00000000000425d8        0x8 C:/Users/oukeh/OneDrive/桌面/code-mod-example/code-mod-framework/lib/libnx_min/nx/lib\libnx_min.a(init.o)
                0x00000000000425d8                __nx_exception_stack_size
 .data.__cwd    0x00000000000425e0      0x401 C:/Users/oukeh/OneDrive/桌面/code-mod-example/code-mod-framework/lib/libnx_min/nx/lib\libnx_min.a(fs_dev.o)
 *fill*         0x00000000000429e1        0x3 
 .data.fsdev_fsdevice_cwd
                0x00000000000429e4        0x4 C:/Users/oukeh/OneDrive/桌面/code-mod-example/code-mod-framework/lib/libnx_min/nx/lib\libnx_min.a(fs_dev.o)
 .data.fsdev_fsdevice_default
                0x00000000000429e8        0x4 C:/Users/oukeh/OneDrive/桌面/code-mod-example/code-mod-framework/lib/libnx_min/nx/lib\libnx_min.a(fs_dev.o)
 *fill*         0x00000000000429ec        0x4 
 .data.rel.ro.local.fsdev_devoptab
                0x00000000000429f0       0xe0 C:/Users/oukeh/OneDrive/桌面/code-mod-example/code-mod-framework/lib/libnx_min/nx/lib\libnx_min.a(fs_dev.o)
 .data.__nx_applet_auto_notifyrunning
                0x0000000000042ad0        0x1 C:/Users/oukeh/OneDrive/桌面/code-mod-example/code-mod-framework/lib/libnx_min/nx/lib\libnx_min.a(applet.o)
                0x0000000000042ad0                __nx_applet_auto_notifyrunning
 *fill*         0x0000000000042ad1        0x7 
 .data.rel.local._impure_ptr
                0x0000000000042ad8        0x8 c:/devkitpro/devkita64/bin/../lib/gcc/aarch64-none-elf/9.2.0/../../../../aarch64-none-elf/lib/pic\libg.a(lib_a-impure.o)
                0x0000000000042ad8                _impure_ptr
 .data.rel.local.impure_data
                0x0000000000042ae0      0x768 c:/devkitpro/devkita64/bin/../lib/gcc/aarch64-none-elf/9.2.0/../../../../aarch64-none-elf/lib/pic\libg.a(lib_a-impure.o)
 .data.rel.ro.local._global_impure_ptr
                0x0000000000043248        0x8 c:/devkitpro/devkita64/bin/../lib/gcc/aarch64-none-elf/9.2.0/../../../../aarch64-none-elf/lib/pic\libg.a(lib_a-impure.o)
                0x0000000000043248                _global_impure_ptr
 .data.__malloc_sbrk_base
                0x0000000000043250        0x8 c:/devkitpro/devkita64/bin/../lib/gcc/aarch64-none-elf/9.2.0/../../../../aarch64-none-elf/lib/pic\libg.a(lib_a-mallocr.o)
                0x0000000000043250                __malloc_sbrk_base
 .data.__malloc_trim_threshold
                0x0000000000043258        0x8 c:/devkitpro/devkita64/bin/../lib/gcc/aarch64-none-elf/9.2.0/../../../../aarch64-none-elf/lib/pic\libg.a(lib_a-mallocr.o)
                0x0000000000043258                __malloc_trim_threshold
 .data.rel.__malloc_av_
                0x0000000000043260      0x810 c:/devkitpro/devkita64/bin/../lib/gcc/aarch64-none-elf/9.2.0/../../../../aarch64-none-elf/lib/pic\libg.a(lib_a-mallocr.o)
                0x0000000000043260                __malloc_av_
 .data.rel.local.environ
                0x0000000000043a70        0x8 c:/devkitpro/devkita64/bin/../lib/gcc/aarch64-none-elf/9.2.0/../../../../aarch64-none-elf/lib/pic\libg.a(lib_a-environ.o)
                0x0000000000043a70                environ
 .data.__default_locale
                0x0000000000043a78       0x20 c:/devkitpro/devkita64/bin/../lib/gcc/aarch64-none-elf/9.2.0/../../../../aarch64-none-elf/lib/pic\libg.a(lib_a-locale.o)
                0x0000000000043a78                __default_locale
 .data.rel.__global_locale
                0x0000000000043a98      0x1a8 c:/devkitpro/devkita64/bin/../lib/gcc/aarch64-none-elf/9.2.0/../../../../aarch64-none-elf/lib/pic\libg.a(lib_a-locale.o)
                0x0000000000043a98                __global_locale
 .data.rel.ro.__C_locale
                0x0000000000043c40      0x1a8 c:/devkitpro/devkita64/bin/../lib/gcc/aarch64-none-elf/9.2.0/../../../../aarch64-none-elf/lib/pic\libg.a(lib_a-locale.o)
                0x0000000000043c40                __C_locale
 .data.rel.ro.local.categories
                0x0000000000043de8       0x38 c:/devkitpro/devkita64/bin/../lib/gcc/aarch64-none-elf/9.2.0/../../../../aarch64-none-elf/lib/pic\libg.a(lib_a-locale.o)
 .data.defaultDevice
                0x0000000000043e20        0x4 c:/devkitpro/devkita64/bin/../lib/gcc/aarch64-none-elf/9.2.0/../../../../aarch64-none-elf/lib/pic\libsysbase.a(iosupport.o)
 *fill*         0x0000000000043e24        0x4 
 .data.rel.devoptab_list
                0x0000000000043e28       0x80 c:/devkitpro/devkita64/bin/../lib/gcc/aarch64-none-elf/9.2.0/../../../../aarch64-none-elf/lib/pic\libsysbase.a(iosupport.o)
                0x0000000000043e28                devoptab_list
 .data.rel.ro.local.dotab_stdnull
                0x0000000000043ea8       0xe0 c:/devkitpro/devkita64/bin/../lib/gcc/aarch64-none-elf/9.2.0/../../../../aarch64-none-elf/lib/pic\libsysbase.a(iosupport.o)
                0x0000000000043ea8                dotab_stdnull
 .data._current_working_directory
                0x0000000000043f88      0x400 c:/devkitpro/devkita64/bin/../lib/gcc/aarch64-none-elf/9.2.0/../../../../aarch64-none-elf/lib/pic\libsysbase.a(chdir.o)
                0x0000000000044388                __bss_start__ = .

.tm_clone_table
                0x0000000000044388        0x0
 .tm_clone_table
                0x0000000000044388        0x0 c:/devkitpro/devkita64/bin/../lib/gcc/aarch64-none-elf/9.2.0/pic/crtbegin.o
 .tm_clone_table
                0x0000000000044388        0x0 c:/devkitpro/devkita64/bin/../lib/gcc/aarch64-none-elf/9.2.0/pic/crtend.o

.bss            0x0000000000044388    0x158e8
 *(.dynbss)
 .dynbss        0x0000000000044388        0x0 c:/devkitpro/devkita64/bin/../lib/gcc/aarch64-none-elf/9.2.0/pic/crti.o
 *(.bss .bss.* .gnu.linkonce.b.*)
 .bss.completed.8111
                0x0000000000044388        0x1 c:/devkitpro/devkita64/bin/../lib/gcc/aarch64-none-elf/9.2.0/pic/crtbegin.o
 *fill*         0x0000000000044389        0x7 
 .bss.object.8116
                0x0000000000044390       0x30 c:/devkitpro/devkita64/bin/../lib/gcc/aarch64-none-elf/9.2.0/pic/crtbegin.o
 .bss           0x00000000000443c0     0x8128 main.o
                0x00000000000443c0                prev_get_command_flag_cat
                0x00000000000443c8                fighter_agents
                0x0000000000044408                fighter_module_accessors
                0x0000000000044448                acmd_objs
                0x00000000000444c8                prev_clear_lua_stack
                0x00000000000444d0                orig_ctx
                0x00000000000444d8                orig_main_thread
                0x00000000000444e0                orig_saved_lr
 .bss           0x000000000004c4e8        0x8 saltysd_helper.o
                0x000000000004c4e8                ANCHOR_ABS
 .bss.g_argv_empty
                0x000000000004c4f0        0x8 C:/Users/oukeh/OneDrive/桌面/code-mod-example/code-mod-framework/lib/libnx_min/nx/lib\libnx_min.a(argv.o)
 .bss.g_hasRandomSeed
                0x000000000004c4f8        0x1 C:/Users/oukeh/OneDrive/桌面/code-mod-example/code-mod-framework/lib/libnx_min/nx/lib\libnx_min.a(env.o)
 .bss.g_isNso   0x000000000004c4f9        0x1 C:/Users/oukeh/OneDrive/桌面/code-mod-example/code-mod-framework/lib/libnx_min/nx/lib\libnx_min.a(env.o)
 *fill*         0x000000000004c4fa        0x2 
 .bss.g_lastLoadResult
                0x000000000004c4fc        0x4 C:/Users/oukeh/OneDrive/桌面/code-mod-example/code-mod-framework/lib/libnx_min/nx/lib\libnx_min.a(env.o)
 .bss.g_loaderRetAddr
                0x000000000004c500        0x8 C:/Users/oukeh/OneDrive/桌面/code-mod-example/code-mod-framework/lib/libnx_min/nx/lib\libnx_min.a(env.o)
 .bss.g_mainThreadHandle
                0x000000000004c508        0x4 C:/Users/oukeh/OneDrive/桌面/code-mod-example/code-mod-framework/lib/libnx_min/nx/lib\libnx_min.a(env.o)
 *fill*         0x000000000004c50c        0x4 
 .bss.g_nextLoadArgv
                0x000000000004c510        0x8 C:/Users/oukeh/OneDrive/桌面/code-mod-example/code-mod-framework/lib/libnx_min/nx/lib\libnx_min.a(env.o)
 .bss.g_nextLoadPath
                0x000000000004c518        0x8 C:/Users/oukeh/OneDrive/桌面/code-mod-example/code-mod-framework/lib/libnx_min/nx/lib\libnx_min.a(env.o)
 .bss.g_overrideArgv
                0x000000000004c520        0x8 C:/Users/oukeh/OneDrive/桌面/code-mod-example/code-mod-framework/lib/libnx_min/nx/lib\libnx_min.a(env.o)
 .bss.g_overrideHeapAddr
                0x000000000004c528        0x8 C:/Users/oukeh/OneDrive/桌面/code-mod-example/code-mod-framework/lib/libnx_min/nx/lib\libnx_min.a(env.o)
 .bss.g_overrideHeapSize
                0x000000000004c530        0x8 C:/Users/oukeh/OneDrive/桌面/code-mod-example/code-mod-framework/lib/libnx_min/nx/lib\libnx_min.a(env.o)
 .bss.g_processHandle
                0x000000000004c538        0x4 C:/Users/oukeh/OneDrive/桌面/code-mod-example/code-mod-framework/lib/libnx_min/nx/lib\libnx_min.a(env.o)
 *fill*         0x000000000004c53c        0x4 
 .bss.g_randomSeed
                0x000000000004c540       0x10 C:/Users/oukeh/OneDrive/桌面/code-mod-example/code-mod-framework/lib/libnx_min/nx/lib\libnx_min.a(env.o)
 .bss.g_syscallHints
                0x000000000004c550       0x10 C:/Users/oukeh/OneDrive/桌面/code-mod-example/code-mod-framework/lib/libnx_min/nx/lib\libnx_min.a(env.o)
 .bss.__nx_exception_ignoredebug
                0x000000000004c560        0x4 C:/Users/oukeh/OneDrive/桌面/code-mod-example/code-mod-framework/lib/libnx_min/nx/lib\libnx_min.a(init.o)
                0x000000000004c560                __nx_exception_ignoredebug
 *fill*         0x000000000004c564        0xc 
 .bss.__nx_exception_stack
                0x000000000004c570      0x400 C:/Users/oukeh/OneDrive/桌面/code-mod-example/code-mod-framework/lib/libnx_min/nx/lib\libnx_min.a(init.o)
                0x000000000004c570                __nx_exception_stack
 .bss.__nx_heap_size
                0x000000000004c970        0x8 C:/Users/oukeh/OneDrive/桌面/code-mod-example/code-mod-framework/lib/libnx_min/nx/lib\libnx_min.a(init.o)
                0x000000000004c970                __nx_heap_size
 .bss.g_hosVersion
                0x000000000004c978        0x4 C:/Users/oukeh/OneDrive/桌面/code-mod-example/code-mod-framework/lib/libnx_min/nx/lib\libnx_min.a(hosversion.o)
 *fill*         0x000000000004c97c        0x4 
 .bss.fsdev_fsdevices
                0x000000000004c980     0x2300 C:/Users/oukeh/OneDrive/桌面/code-mod-example/code-mod-framework/lib/libnx_min/nx/lib\libnx_min.a(fs_dev.o)
 .bss.fsdev_initialised
                0x000000000004ec80        0x1 C:/Users/oukeh/OneDrive/桌面/code-mod-example/code-mod-framework/lib/libnx_min/nx/lib\libnx_min.a(fs_dev.o)
 *fill*         0x000000000004ec81        0x7 
 .bss.g_AddressSpace
                0x000000000004ec88       0x10 C:/Users/oukeh/OneDrive/桌面/code-mod-example/code-mod-framework/lib/libnx_min/nx/lib\libnx_min.a(virtmem.o)
 .bss.g_CurrentAddr
                0x000000000004ec98        0x8 C:/Users/oukeh/OneDrive/桌面/code-mod-example/code-mod-framework/lib/libnx_min/nx/lib\libnx_min.a(virtmem.o)
 .bss.g_CurrentMapAddr
                0x000000000004eca0        0x8 C:/Users/oukeh/OneDrive/桌面/code-mod-example/code-mod-framework/lib/libnx_min/nx/lib\libnx_min.a(virtmem.o)
 .bss.g_Region  0x000000000004eca8       0x30 C:/Users/oukeh/OneDrive/桌面/code-mod-example/code-mod-framework/lib/libnx_min/nx/lib\libnx_min.a(virtmem.o)
 .bss.g_VirtMemMutex
                0x000000000004ecd8        0x4 C:/Users/oukeh/OneDrive/桌面/code-mod-example/code-mod-framework/lib/libnx_min/nx/lib\libnx_min.a(virtmem.o)
 *fill*         0x000000000004ecdc        0x4 
 .bss.g_fsSrv   0x000000000004ece0        0xc C:/Users/oukeh/OneDrive/桌面/code-mod-example/code-mod-framework/lib/libnx_min/nx/lib\libnx_min.a(fs.o)
 *fill*         0x000000000004ecec        0x4 
 .bss.g_refCnt  0x000000000004ecf0        0x8 C:/Users/oukeh/OneDrive/桌面/code-mod-example/code-mod-framework/lib/libnx_min/nx/lib\libnx_min.a(fs.o)
 .bss.g_refCnt  0x000000000004ecf8        0x8 C:/Users/oukeh/OneDrive/桌面/code-mod-example/code-mod-framework/lib/libnx_min/nx/lib\libnx_min.a(set.o)
 .bss.g_refCntSys
                0x000000000004ed00        0x8 C:/Users/oukeh/OneDrive/桌面/code-mod-example/code-mod-framework/lib/libnx_min/nx/lib\libnx_min.a(set.o)
 .bss.g_setLanguageCodes
                0x000000000004ed08      0x200 C:/Users/oukeh/OneDrive/桌面/code-mod-example/code-mod-framework/lib/libnx_min/nx/lib\libnx_min.a(set.o)
 .bss.g_setLanguageCodesInitialized
                0x000000000004ef08        0x1 C:/Users/oukeh/OneDrive/桌面/code-mod-example/code-mod-framework/lib/libnx_min/nx/lib\libnx_min.a(set.o)
 *fill*         0x000000000004ef09        0x3 
 .bss.g_setLanguageCodesTotal
                0x000000000004ef0c        0x4 C:/Users/oukeh/OneDrive/桌面/code-mod-example/code-mod-framework/lib/libnx_min/nx/lib\libnx_min.a(set.o)
 .bss.g_setSrv  0x000000000004ef10        0xc C:/Users/oukeh/OneDrive/桌面/code-mod-example/code-mod-framework/lib/libnx_min/nx/lib\libnx_min.a(set.o)
 *fill*         0x000000000004ef1c        0x4 
 .bss.g_setsysSrv
                0x000000000004ef20        0xc C:/Users/oukeh/OneDrive/桌面/code-mod-example/code-mod-framework/lib/libnx_min/nx/lib\libnx_min.a(set.o)
 *fill*         0x000000000004ef2c        0x4 
 .bss.g_refCnt  0x000000000004ef30        0x8 C:/Users/oukeh/OneDrive/桌面/code-mod-example/code-mod-framework/lib/libnx_min/nx/lib\libnx_min.a(sm.o)
 .bss.g_smOverrides
                0x000000000004ef38      0x200 C:/Users/oukeh/OneDrive/桌面/code-mod-example/code-mod-framework/lib/libnx_min/nx/lib\libnx_min.a(sm.o)
 .bss.g_smOverridesNum
                0x000000000004f138        0x8 C:/Users/oukeh/OneDrive/桌面/code-mod-example/code-mod-framework/lib/libnx_min/nx/lib\libnx_min.a(sm.o)
 .bss.g_smSrv   0x000000000004f140        0xc C:/Users/oukeh/OneDrive/桌面/code-mod-example/code-mod-framework/lib/libnx_min/nx/lib\libnx_min.a(sm.o)
 *fill*         0x000000000004f14c        0x4 
 .bss.g_controllerDown
                0x000000000004f150       0x50 C:/Users/oukeh/OneDrive/桌面/code-mod-example/code-mod-framework/lib/libnx_min/nx/lib\libnx_min.a(hid.o)
 .bss.g_controllerEntries
                0x000000000004f1a0      0x1e0 C:/Users/oukeh/OneDrive/桌面/code-mod-example/code-mod-framework/lib/libnx_min/nx/lib\libnx_min.a(hid.o)
 .bss.g_controllerHeaders
                0x000000000004f380      0x190 C:/Users/oukeh/OneDrive/桌面/code-mod-example/code-mod-framework/lib/libnx_min/nx/lib\libnx_min.a(hid.o)
 .bss.g_controllerHeld
                0x000000000004f510       0x50 C:/Users/oukeh/OneDrive/桌面/code-mod-example/code-mod-framework/lib/libnx_min/nx/lib\libnx_min.a(hid.o)
 .bss.g_controllerLayout
                0x000000000004f560       0x28 C:/Users/oukeh/OneDrive/桌面/code-mod-example/code-mod-framework/lib/libnx_min/nx/lib\libnx_min.a(hid.o)
 .bss.g_controllerMisc
                0x000000000004f588      0x500 C:/Users/oukeh/OneDrive/桌面/code-mod-example/code-mod-framework/lib/libnx_min/nx/lib\libnx_min.a(hid.o)
 .bss.g_controllerOld
                0x000000000004fa88       0x50 C:/Users/oukeh/OneDrive/桌面/code-mod-example/code-mod-framework/lib/libnx_min/nx/lib\libnx_min.a(hid.o)
 .bss.g_controllerP1AutoID
                0x000000000004fad8        0x4 C:/Users/oukeh/OneDrive/桌面/code-mod-example/code-mod-framework/lib/libnx_min/nx/lib\libnx_min.a(hid.o)
 *fill*         0x000000000004fadc        0x4 
 .bss.g_controllerTimestamps
                0x000000000004fae0       0x50 C:/Users/oukeh/OneDrive/桌面/code-mod-example/code-mod-framework/lib/libnx_min/nx/lib\libnx_min.a(hid.o)
 .bss.g_controllerUp
                0x000000000004fb30       0x50 C:/Users/oukeh/OneDrive/桌面/code-mod-example/code-mod-framework/lib/libnx_min/nx/lib\libnx_min.a(hid.o)
 .bss.g_hidIAppletResource
                0x000000000004fb80        0xc C:/Users/oukeh/OneDrive/桌面/code-mod-example/code-mod-framework/lib/libnx_min/nx/lib\libnx_min.a(hid.o)
 *fill*         0x000000000004fb8c        0x4 
 .bss.g_hidLock
                0x000000000004fb90       0x10 C:/Users/oukeh/OneDrive/桌面/code-mod-example/code-mod-framework/lib/libnx_min/nx/lib\libnx_min.a(hid.o)
 .bss.g_hidSharedmem
                0x000000000004fba0       0x20 C:/Users/oukeh/OneDrive/桌面/code-mod-example/code-mod-framework/lib/libnx_min/nx/lib\libnx_min.a(hid.o)
 .bss.g_hidSrv  0x000000000004fbc0        0xc C:/Users/oukeh/OneDrive/桌面/code-mod-example/code-mod-framework/lib/libnx_min/nx/lib\libnx_min.a(hid.o)
 *fill*         0x000000000004fbcc        0x4 
 .bss.g_keyboardDown
                0x000000000004fbd0       0x20 C:/Users/oukeh/OneDrive/桌面/code-mod-example/code-mod-framework/lib/libnx_min/nx/lib\libnx_min.a(hid.o)
 .bss.g_keyboardEntry
                0x000000000004fbf0       0x38 C:/Users/oukeh/OneDrive/桌面/code-mod-example/code-mod-framework/lib/libnx_min/nx/lib\libnx_min.a(hid.o)
 .bss.g_keyboardHeld
                0x000000000004fc28       0x20 C:/Users/oukeh/OneDrive/桌面/code-mod-example/code-mod-framework/lib/libnx_min/nx/lib\libnx_min.a(hid.o)
 .bss.g_keyboardModDown
                0x000000000004fc48        0x8 C:/Users/oukeh/OneDrive/桌面/code-mod-example/code-mod-framework/lib/libnx_min/nx/lib\libnx_min.a(hid.o)
 .bss.g_keyboardModHeld
                0x000000000004fc50        0x8 C:/Users/oukeh/OneDrive/桌面/code-mod-example/code-mod-framework/lib/libnx_min/nx/lib\libnx_min.a(hid.o)
 .bss.g_keyboardModOld
                0x000000000004fc58        0x8 C:/Users/oukeh/OneDrive/桌面/code-mod-example/code-mod-framework/lib/libnx_min/nx/lib\libnx_min.a(hid.o)
 .bss.g_keyboardModUp
                0x000000000004fc60        0x8 C:/Users/oukeh/OneDrive/桌面/code-mod-example/code-mod-framework/lib/libnx_min/nx/lib\libnx_min.a(hid.o)
 .bss.g_keyboardOld
                0x000000000004fc68       0x20 C:/Users/oukeh/OneDrive/桌面/code-mod-example/code-mod-framework/lib/libnx_min/nx/lib\libnx_min.a(hid.o)
 .bss.g_keyboardTimestamp
                0x000000000004fc88        0x8 C:/Users/oukeh/OneDrive/桌面/code-mod-example/code-mod-framework/lib/libnx_min/nx/lib\libnx_min.a(hid.o)
 .bss.g_keyboardUp
                0x000000000004fc90       0x20 C:/Users/oukeh/OneDrive/桌面/code-mod-example/code-mod-framework/lib/libnx_min/nx/lib\libnx_min.a(hid.o)
 .bss.g_mouse   0x000000000004fcb0      0x400 C:/Users/oukeh/OneDrive/桌面/code-mod-example/code-mod-framework/lib/libnx_min/nx/lib\libnx_min.a(hid.o)
 .bss.g_mouseDown
                0x00000000000500b0        0x8 C:/Users/oukeh/OneDrive/桌面/code-mod-example/code-mod-framework/lib/libnx_min/nx/lib\libnx_min.a(hid.o)
 .bss.g_mouseEntry
                0x00000000000500b8        0x8 C:/Users/oukeh/OneDrive/桌面/code-mod-example/code-mod-framework/lib/libnx_min/nx/lib\libnx_min.a(hid.o)
 .bss.g_mouseHeld
                0x00000000000500c0        0x8 C:/Users/oukeh/OneDrive/桌面/code-mod-example/code-mod-framework/lib/libnx_min/nx/lib\libnx_min.a(hid.o)
 .bss.g_mouseOld
                0x00000000000500c8        0x8 C:/Users/oukeh/OneDrive/桌面/code-mod-example/code-mod-framework/lib/libnx_min/nx/lib\libnx_min.a(hid.o)
 .bss.g_mouseTimestamp
                0x00000000000500d0        0x8 C:/Users/oukeh/OneDrive/桌面/code-mod-example/code-mod-framework/lib/libnx_min/nx/lib\libnx_min.a(hid.o)
 .bss.g_mouseUp
                0x00000000000500d8        0x8 C:/Users/oukeh/OneDrive/桌面/code-mod-example/code-mod-framework/lib/libnx_min/nx/lib\libnx_min.a(hid.o)
 .bss.g_refCnt  0x00000000000500e0        0x8 C:/Users/oukeh/OneDrive/桌面/code-mod-example/code-mod-framework/lib/libnx_min/nx/lib\libnx_min.a(hid.o)
 .bss.g_sevenSixAxisSensorBuffer
                0x00000000000500e8        0x8 C:/Users/oukeh/OneDrive/桌面/code-mod-example/code-mod-framework/lib/libnx_min/nx/lib\libnx_min.a(hid.o)
 .bss.g_sevenSixAxisSensorTmem0
                0x00000000000500f0       0x28 C:/Users/oukeh/OneDrive/桌面/code-mod-example/code-mod-framework/lib/libnx_min/nx/lib\libnx_min.a(hid.o)
 .bss.g_sevenSixAxisSensorTmem1
                0x0000000000050118       0x28 C:/Users/oukeh/OneDrive/桌面/code-mod-example/code-mod-framework/lib/libnx_min/nx/lib\libnx_min.a(hid.o)
 .bss.g_sixaxisEnabled
                0x0000000000050140        0xa C:/Users/oukeh/OneDrive/桌面/code-mod-example/code-mod-framework/lib/libnx_min/nx/lib\libnx_min.a(hid.o)
 *fill*         0x000000000005014a        0x6 
 .bss.g_sixaxisLayouts
                0x0000000000050150     0x4650 C:/Users/oukeh/OneDrive/桌面/code-mod-example/code-mod-framework/lib/libnx_min/nx/lib\libnx_min.a(hid.o)
 .bss.g_touchEntry
                0x00000000000547a0      0x298 C:/Users/oukeh/OneDrive/桌面/code-mod-example/code-mod-framework/lib/libnx_min/nx/lib\libnx_min.a(hid.o)
 .bss.g_touchTimestamp
                0x0000000000054a38        0x8 C:/Users/oukeh/OneDrive/桌面/code-mod-example/code-mod-framework/lib/libnx_min/nx/lib\libnx_min.a(hid.o)
 .bss.g_refCnt  0x0000000000054a40        0x8 C:/Users/oukeh/OneDrive/桌面/code-mod-example/code-mod-framework/lib/libnx_min/nx/lib\libnx_min.a(time.o)
 .bss.g_timeLocalSystemClock
                0x0000000000054a48        0xc C:/Users/oukeh/OneDrive/桌面/code-mod-example/code-mod-framework/lib/libnx_min/nx/lib\libnx_min.a(time.o)
 *fill*         0x0000000000054a54        0x4 
 .bss.g_timeNetworkSystemClock
                0x0000000000054a58        0xc C:/Users/oukeh/OneDrive/桌面/code-mod-example/code-mod-framework/lib/libnx_min/nx/lib\libnx_min.a(time.o)
 *fill*         0x0000000000054a64        0x4 
 .bss.g_timeSrv
                0x0000000000054a68        0xc C:/Users/oukeh/OneDrive/桌面/code-mod-example/code-mod-framework/lib/libnx_min/nx/lib\libnx_min.a(time.o)
 *fill*         0x0000000000054a74        0x4 
 .bss.g_timeTimeZoneService
                0x0000000000054a78        0xc C:/Users/oukeh/OneDrive/桌面/code-mod-example/code-mod-framework/lib/libnx_min/nx/lib\libnx_min.a(time.o)
 *fill*         0x0000000000054a84        0x4 
 .bss.g_timeUserSystemClock
                0x0000000000054a88        0xc C:/Users/oukeh/OneDrive/桌面/code-mod-example/code-mod-framework/lib/libnx_min/nx/lib\libnx_min.a(time.o)
 *fill*         0x0000000000054a94        0x4 
 .bss.__nx_applet_AppletAttribute
                0x0000000000054a98       0x80 C:/Users/oukeh/OneDrive/桌面/code-mod-example/code-mod-framework/lib/libnx_min/nx/lib\libnx_min.a(applet.o)
                0x0000000000054a98                __nx_applet_AppletAttribute
 .bss.__nx_applet_PerformanceConfiguration
                0x0000000000054b18        0x8 C:/Users/oukeh/OneDrive/桌面/code-mod-example/code-mod-framework/lib/libnx_min/nx/lib\libnx_min.a(applet.o)
                0x0000000000054b18                __nx_applet_PerformanceConfiguration
 .bss.__nx_applet_exit_mode
                0x0000000000054b20        0x4 C:/Users/oukeh/OneDrive/桌面/code-mod-example/code-mod-framework/lib/libnx_min/nx/lib\libnx_min.a(applet.o)
                0x0000000000054b20                __nx_applet_exit_mode
 .bss.g_appletCpuBoostMode
                0x0000000000054b24        0x4 C:/Users/oukeh/OneDrive/桌面/code-mod-example/code-mod-framework/lib/libnx_min/nx/lib\libnx_min.a(applet.o)
 .bss.g_appletExitProcessFlag
                0x0000000000054b28        0x1 C:/Users/oukeh/OneDrive/桌面/code-mod-example/code-mod-framework/lib/libnx_min/nx/lib\libnx_min.a(applet.o)
 *fill*         0x0000000000054b29        0x7 
 .bss.g_appletFirstHook
                0x0000000000054b30       0x18 C:/Users/oukeh/OneDrive/桌面/code-mod-example/code-mod-framework/lib/libnx_min/nx/lib\libnx_min.a(applet.o)
 .bss.g_appletFocusState
                0x0000000000054b48        0x1 C:/Users/oukeh/OneDrive/桌面/code-mod-example/code-mod-framework/lib/libnx_min/nx/lib\libnx_min.a(applet.o)
 *fill*         0x0000000000054b49        0x7 
 .bss.g_appletIApplicationCreator
                0x0000000000054b50        0xc C:/Users/oukeh/OneDrive/桌面/code-mod-example/code-mod-framework/lib/libnx_min/nx/lib\libnx_min.a(applet.o)
 *fill*         0x0000000000054b5c        0x4 
 .bss.g_appletIAudioController
                0x0000000000054b60        0xc C:/Users/oukeh/OneDrive/桌面/code-mod-example/code-mod-framework/lib/libnx_min/nx/lib\libnx_min.a(applet.o)
 *fill*         0x0000000000054b6c        0x4 
 .bss.g_appletICommonStateGetter
                0x0000000000054b70        0xc C:/Users/oukeh/OneDrive/桌面/code-mod-example/code-mod-framework/lib/libnx_min/nx/lib\libnx_min.a(applet.o)
 *fill*         0x0000000000054b7c        0x4 
 .bss.g_appletIDebugFunctions
                0x0000000000054b80        0xc C:/Users/oukeh/OneDrive/桌面/code-mod-example/code-mod-framework/lib/libnx_min/nx/lib\libnx_min.a(applet.o)
 *fill*         0x0000000000054b8c        0x4 
 .bss.g_appletIDisplayController
                0x0000000000054b90        0xc C:/Users/oukeh/OneDrive/桌面/code-mod-example/code-mod-framework/lib/libnx_min/nx/lib\libnx_min.a(applet.o)
 *fill*         0x0000000000054b9c        0x4 
 .bss.g_appletIFunctions
                0x0000000000054ba0        0xc C:/Users/oukeh/OneDrive/桌面/code-mod-example/code-mod-framework/lib/libnx_min/nx/lib\libnx_min.a(applet.o)
 *fill*         0x0000000000054bac        0x4 
 .bss.g_appletIGlobalStateController
                0x0000000000054bb0        0xc C:/Users/oukeh/OneDrive/桌面/code-mod-example/code-mod-framework/lib/libnx_min/nx/lib\libnx_min.a(applet.o)
 *fill*         0x0000000000054bbc        0x4 
 .bss.g_appletILibraryAppletCreator
                0x0000000000054bc0        0xc C:/Users/oukeh/OneDrive/桌面/code-mod-example/code-mod-framework/lib/libnx_min/nx/lib\libnx_min.a(applet.o)
 *fill*         0x0000000000054bcc        0x4 
 .bss.g_appletILibraryAppletSelfAccessor
                0x0000000000054bd0        0xc C:/Users/oukeh/OneDrive/桌面/code-mod-example/code-mod-framework/lib/libnx_min/nx/lib\libnx_min.a(applet.o)
 *fill*         0x0000000000054bdc        0x4 
 .bss.g_appletIProcessWindingController
                0x0000000000054be0        0xc C:/Users/oukeh/OneDrive/桌面/code-mod-example/code-mod-framework/lib/libnx_min/nx/lib\libnx_min.a(applet.o)
 *fill*         0x0000000000054bec        0x4 
 .bss.g_appletISelfController
                0x0000000000054bf0        0xc C:/Users/oukeh/OneDrive/桌面/code-mod-example/code-mod-framework/lib/libnx_min/nx/lib\libnx_min.a(applet.o)
 *fill*         0x0000000000054bfc        0x4 
 .bss.g_appletIWindowController
                0x0000000000054c00        0xc C:/Users/oukeh/OneDrive/桌面/code-mod-example/code-mod-framework/lib/libnx_min/nx/lib\libnx_min.a(applet.o)
 *fill*         0x0000000000054c0c        0x4 
 .bss.g_appletLibraryAppletLaunchableEvent
                0x0000000000054c10        0xc C:/Users/oukeh/OneDrive/桌面/code-mod-example/code-mod-framework/lib/libnx_min/nx/lib\libnx_min.a(applet.o)
 *fill*         0x0000000000054c1c        0x4 
 .bss.g_appletMessageEvent
                0x0000000000054c20        0xc C:/Users/oukeh/OneDrive/桌面/code-mod-example/code-mod-framework/lib/libnx_min/nx/lib\libnx_min.a(applet.o)
 .bss.g_appletNotifiedRunning
                0x0000000000054c2c        0x1 C:/Users/oukeh/OneDrive/桌面/code-mod-example/code-mod-framework/lib/libnx_min/nx/lib\libnx_min.a(applet.o)
 .bss.g_appletOperationMode
                0x0000000000054c2d        0x1 C:/Users/oukeh/OneDrive/桌面/code-mod-example/code-mod-framework/lib/libnx_min/nx/lib\libnx_min.a(applet.o)
 *fill*         0x0000000000054c2e        0x2 
 .bss.g_appletPerformanceMode
                0x0000000000054c30        0x4 C:/Users/oukeh/OneDrive/桌面/code-mod-example/code-mod-framework/lib/libnx_min/nx/lib\libnx_min.a(applet.o)
 *fill*         0x0000000000054c34        0x4 
 .bss.g_appletProxySession
                0x0000000000054c38        0xc C:/Users/oukeh/OneDrive/桌面/code-mod-example/code-mod-framework/lib/libnx_min/nx/lib\libnx_min.a(applet.o)
 .bss.g_appletRecordingInitialized
                0x0000000000054c44        0x4 C:/Users/oukeh/OneDrive/桌面/code-mod-example/code-mod-framework/lib/libnx_min/nx/lib\libnx_min.a(applet.o)
 .bss.g_appletRecordingTmem
                0x0000000000054c48       0x28 C:/Users/oukeh/OneDrive/桌面/code-mod-example/code-mod-framework/lib/libnx_min/nx/lib\libnx_min.a(applet.o)
 .bss.g_appletResourceUserId
                0x0000000000054c70        0x8 C:/Users/oukeh/OneDrive/桌面/code-mod-example/code-mod-framework/lib/libnx_min/nx/lib\libnx_min.a(applet.o)
 .bss.g_appletSrv
                0x0000000000054c78        0xc C:/Users/oukeh/OneDrive/桌面/code-mod-example/code-mod-framework/lib/libnx_min/nx/lib\libnx_min.a(applet.o)
 .bss.g_appletThemeColorType
                0x0000000000054c84        0x4 C:/Users/oukeh/OneDrive/桌面/code-mod-example/code-mod-framework/lib/libnx_min/nx/lib\libnx_min.a(applet.o)
 .bss.g_refCnt  0x0000000000054c88        0x8 C:/Users/oukeh/OneDrive/桌面/code-mod-example/code-mod-framework/lib/libnx_min/nx/lib\libnx_min.a(applet.o)
 .bss.__bootticks
                0x0000000000054c90        0x8 C:/Users/oukeh/OneDrive/桌面/code-mod-example/code-mod-framework/lib/libnx_min/nx/lib\libnx_min.a(newlib.o)
 .bss.__boottime
                0x0000000000054c98        0x8 C:/Users/oukeh/OneDrive/桌面/code-mod-example/code-mod-framework/lib/libnx_min/nx/lib\libnx_min.a(newlib.o)
 .bss.__nx_time_type
                0x0000000000054ca0        0x4 C:/Users/oukeh/OneDrive/桌面/code-mod-example/code-mod-framework/lib/libnx_min/nx/lib\libnx_min.a(newlib.o)
                0x0000000000054ca0                __nx_time_type
 *fill*         0x0000000000054ca4        0x4 
 .bss.g_threadList
                0x0000000000054ca8        0x8 C:/Users/oukeh/OneDrive/桌面/code-mod-example/code-mod-framework/lib/libnx_min/nx/lib\libnx_min.a(thread.o)
 .bss.g_threadMutex
                0x0000000000054cb0        0x4 C:/Users/oukeh/OneDrive/桌面/code-mod-example/code-mod-framework/lib/libnx_min/nx/lib\libnx_min.a(thread.o)
 *fill*         0x0000000000054cb4        0x4 
 .bss.g_tlsDestructors
                0x0000000000054cb8       0xd0 C:/Users/oukeh/OneDrive/桌面/code-mod-example/code-mod-framework/lib/libnx_min/nx/lib\libnx_min.a(thread.o)
 .bss.g_tlsUsageMask
                0x0000000000054d88        0x8 C:/Users/oukeh/OneDrive/桌面/code-mod-example/code-mod-framework/lib/libnx_min/nx/lib\libnx_min.a(thread.o)
 .bss.g_JitKernelPatchCached
                0x0000000000054d90        0x1 C:/Users/oukeh/OneDrive/桌面/code-mod-example/code-mod-framework/lib/libnx_min/nx/lib\libnx_min.a(detect.o)
 .bss.g_JitKernelPatchDetected
                0x0000000000054d91        0x1 C:/Users/oukeh/OneDrive/桌面/code-mod-example/code-mod-framework/lib/libnx_min/nx/lib\libnx_min.a(detect.o)
 *fill*         0x0000000000054d92        0x2 
 .bss.g_JitKernelPatchMutex
                0x0000000000054d94        0x4 C:/Users/oukeh/OneDrive/桌面/code-mod-example/code-mod-framework/lib/libnx_min/nx/lib\libnx_min.a(detect.o)
 .bss.g_Version
                0x0000000000054d98        0x4 C:/Users/oukeh/OneDrive/桌面/code-mod-example/code-mod-framework/lib/libnx_min/nx/lib\libnx_min.a(detect.o)
 .bss.g_VersionCached
                0x0000000000054d9c        0x1 C:/Users/oukeh/OneDrive/桌面/code-mod-example/code-mod-framework/lib/libnx_min/nx/lib\libnx_min.a(detect.o)
 *fill*         0x0000000000054d9d        0x3 
 .bss.g_VersionMutex
                0x0000000000054da0        0x4 C:/Users/oukeh/OneDrive/桌面/code-mod-example/code-mod-framework/lib/libnx_min/nx/lib\libnx_min.a(detect.o)
 *fill*         0x0000000000054da4        0x4 
 .bss.g_apmISession
                0x0000000000054da8        0xc C:/Users/oukeh/OneDrive/桌面/code-mod-example/code-mod-framework/lib/libnx_min/nx/lib\libnx_min.a(apm.o)
 *fill*         0x0000000000054db4        0x4 
 .bss.g_apmSrv  0x0000000000054db8        0xc C:/Users/oukeh/OneDrive/桌面/code-mod-example/code-mod-framework/lib/libnx_min/nx/lib\libnx_min.a(apm.o)
 *fill*         0x0000000000054dc4        0x4 
 .bss.g_refCnt  0x0000000000054dc8        0x8 C:/Users/oukeh/OneDrive/桌面/code-mod-example/code-mod-framework/lib/libnx_min/nx/lib\libnx_min.a(apm.o)
 .bss.__malloc_current_mallinfo
                0x0000000000054dd0       0x28 c:/devkitpro/devkita64/bin/../lib/gcc/aarch64-none-elf/9.2.0/../../../../aarch64-none-elf/lib/pic\libg.a(lib_a-mallocr.o)
                0x0000000000054dd0                __malloc_current_mallinfo
 .bss.__malloc_max_sbrked_mem
                0x0000000000054df8        0x8 c:/devkitpro/devkita64/bin/../lib/gcc/aarch64-none-elf/9.2.0/../../../../aarch64-none-elf/lib/pic\libg.a(lib_a-mallocr.o)
                0x0000000000054df8                __malloc_max_sbrked_mem
 .bss.__malloc_max_total_mem
                0x0000000000054e00        0x8 c:/devkitpro/devkita64/bin/../lib/gcc/aarch64-none-elf/9.2.0/../../../../aarch64-none-elf/lib/pic\libg.a(lib_a-mallocr.o)
                0x0000000000054e00                __malloc_max_total_mem
 .bss.__malloc_top_pad
                0x0000000000054e08        0x8 c:/devkitpro/devkita64/bin/../lib/gcc/aarch64-none-elf/9.2.0/../../../../aarch64-none-elf/lib/pic\libg.a(lib_a-mallocr.o)
                0x0000000000054e08                __malloc_top_pad
 .bss.__malloc_recursive_mutex
                0x0000000000054e10        0xc c:/devkitpro/devkita64/bin/../lib/gcc/aarch64-none-elf/9.2.0/../../../../aarch64-none-elf/lib/pic\libg.a(lib_a-mlock.o)
 .bss.alloced.4188
                0x0000000000054e1c        0x4 c:/devkitpro/devkita64/bin/../lib/gcc/aarch64-none-elf/9.2.0/../../../../aarch64-none-elf/lib/pic\libg.a(lib_a-setenv_r.o)
 .bss.__atexit_recursive_mutex
                0x0000000000054e20        0xc c:/devkitpro/devkita64/bin/../lib/gcc/aarch64-none-elf/9.2.0/../../../../aarch64-none-elf/lib/pic\libg.a(lib_a-__call_atexit.o)
                0x0000000000054e20                __atexit_recursive_mutex
 *fill*         0x0000000000054e2c        0x4 
 .bss.initial_env
                0x0000000000054e30        0x8 c:/devkitpro/devkita64/bin/../lib/gcc/aarch64-none-elf/9.2.0/../../../../aarch64-none-elf/lib/pic\libg.a(lib_a-environ.o)
 .bss.__env_recursive_mutex
                0x0000000000054e38        0xc c:/devkitpro/devkita64/bin/../lib/gcc/aarch64-none-elf/9.2.0/../../../../aarch64-none-elf/lib/pic\libg.a(lib_a-envlock.o)
 *fill*         0x0000000000054e44        0x4 
 .bss._PathLocale
                0x0000000000054e48        0x8 c:/devkitpro/devkita64/bin/../lib/gcc/aarch64-none-elf/9.2.0/../../../../aarch64-none-elf/lib/pic\libg.a(lib_a-locale.o)
                0x0000000000054e48                _PathLocale
 .bss.global_locale_string
                0x0000000000054e50       0xe7 c:/devkitpro/devkita64/bin/../lib/gcc/aarch64-none-elf/9.2.0/../../../../aarch64-none-elf/lib/pic\libg.a(lib_a-locale.o)
 *fill*         0x0000000000054f37        0x1 
 .bss.new_categories.4670
                0x0000000000054f38       0xe0 c:/devkitpro/devkita64/bin/../lib/gcc/aarch64-none-elf/9.2.0/../../../../aarch64-none-elf/lib/pic\libg.a(lib_a-locale.o)
 .bss.saved_categories.4671
                0x0000000000055018       0xe0 c:/devkitpro/devkita64/bin/../lib/gcc/aarch64-none-elf/9.2.0/../../../../aarch64-none-elf/lib/pic\libg.a(lib_a-locale.o)
 .bss.heap_start.5367
                0x00000000000550f8        0x8 c:/devkitpro/devkita64/bin/../lib/gcc/aarch64-none-elf/9.2.0/../../../../aarch64-none-elf/lib/pic\libsysbase.a(sbrk.o)
 .bss.fake_heap_end
                0x0000000000055100        0x8 c:/devkitpro/devkita64/bin/../lib/gcc/aarch64-none-elf/9.2.0/../../../../aarch64-none-elf/lib/pic\libsysbase.a(malloc_vars.o)
                0x0000000000055100                fake_heap_end
 .bss.fake_heap_start
                0x0000000000055108        0x8 c:/devkitpro/devkita64/bin/../lib/gcc/aarch64-none-elf/9.2.0/../../../../aarch64-none-elf/lib/pic\libsysbase.a(malloc_vars.o)
                0x0000000000055108                fake_heap_start
 .bss.temp_cwd  0x0000000000055110      0x400 c:/devkitpro/devkita64/bin/../lib/gcc/aarch64-none-elf/9.2.0/../../../../aarch64-none-elf/lib/pic\libsysbase.a(chdir.o)
 *(COMMON)
 COMMON         0x0000000000055510        0xc C:/Users/oukeh/OneDrive/桌面/code-mod-example/code-mod-framework/lib/libnx_min/nx/lib\libnx_min.a(argv.o)
                0x0000000000055510                __system_argv
                0x0000000000055518                __system_argc
 *fill*         0x000000000005551c        0x4 
 COMMON         0x0000000000055520      0x348 C:/Users/oukeh/OneDrive/桌面/code-mod-example/code-mod-framework/lib/libnx_min/nx/lib\libnx_min.a(init.o)
                0x0000000000055520                __nx_exceptiondump
                0x0000000000055860                __stack_top
                0x0000000000055868                . = ALIGN (0x8)
                0x0000000000055868                __tls_start = .
                0x0000000000059c70                . = (. + (SIZEOF (.tdata) + SIZEOF (.tbss)))
 *fill*         0x0000000000055868     0x4408 
                0x0000000000059c70                __tls_end = .
                0x0000000000059c70                __bss_end__ = .
                0x0000000000059c70                __end__ = ABSOLUTE (.)
                0x000000000005a000                . = ALIGN (0x1000)
                0x000000000005a000                __argdata__ = ABSOLUTE (.)

/DISCARD/
 *(.group .comment .note)

.stab
 *(.stab)

.stabstr
 *(.stabstr)

.stab.excl
 *(.stab.excl)

.stab.exclstr
 *(.stab.exclstr)

.stab.index
 *(.stab.index)

.stab.indexstr
 *(.stab.indexstr)

.debug
 *(.debug)

.line
 *(.line)

.debug_srcinfo
 *(.debug_srcinfo)

.debug_sfnames
 *(.debug_sfnames)

.debug_aranges
 *(.debug_aranges)

.debug_pubnames
 *(.debug_pubnames)

.debug_info
 *(.debug_info)

.debug_abbrev
 *(.debug_abbrev)

.debug_line
 *(.debug_line)

.debug_frame
 *(.debug_frame)

.debug_str
 *(.debug_str)

.debug_loc
 *(.debug_loc)

.debug_macinfo
 *(.debug_macinfo)
LOAD c:/devkitpro/devkita64/bin/../lib/gcc/aarch64-none-elf/9.2.0/pic/crti.o
LOAD c:/devkitpro/devkita64/bin/../lib/gcc/aarch64-none-elf/9.2.0/pic/crtbegin.o
LOAD main.o
LOAD acmd_wrapper.o
LOAD saltysd_helper.o
LOAD lua_bind_hash.o
LOAD l2c_imports.o
LOAD raygun_printer.o
LOAD C:/Users/oukeh/OneDrive/桌面/code-mod-example/code-mod-framework/lib/libnx_min/nx/lib\libnx_min.a
LOAD c:/devkitpro/devkita64/bin/../lib/gcc/aarch64-none-elf/9.2.0/../../../../aarch64-none-elf/lib/pic\libstdc++.a
LOAD c:/devkitpro/devkita64/bin/../lib/gcc/aarch64-none-elf/9.2.0/../../../../aarch64-none-elf/lib/pic\libm.a
START GROUP
LOAD c:/devkitpro/devkita64/bin/../lib/gcc/aarch64-none-elf/9.2.0/pic\libgcc.a
LOAD c:/devkitpro/devkita64/bin/../lib/gcc/aarch64-none-elf/9.2.0/../../../../aarch64-none-elf/lib/pic\libg.a
LOAD c:/devkitpro/devkita64/bin/../lib/gcc/aarch64-none-elf/9.2.0/../../../../aarch64-none-elf/lib/pic\libc.a
LOAD c:/devkitpro/devkita64/bin/../lib/gcc/aarch64-none-elf/9.2.0/../../../../aarch64-none-elf/lib/pic\libsysbase.a
END GROUP
LOAD c:/devkitpro/devkita64/bin/../lib/gcc/aarch64-none-elf/9.2.0/pic/crtend.o
LOAD c:/devkitpro/devkita64/bin/../lib/gcc/aarch64-none-elf/9.2.0/pic/crtn.o
OUTPUT(C:/Users/oukeh/OneDrive/桌面/code-mod-example/code-mod-example.elf elf64-littleaarch64)
